__OBJC_LABEL_PROTOCOL_$_CAAction
__OBJC_LABEL_PROTOCOL_$_CAAnimationDelegate
__OBJC_LABEL_PROTOCOL_$_CALayerDelegate
__OBJC_LABEL_PROTOCOL_$_CCTLogResponseHandler
__OBJC_LABEL_PROTOCOL_$_CLLocationManagerDelegate
__OBJC_LABEL_PROTOCOL_$_CLLocationManagerState
__OBJC_LABEL_PROTOCOL_$_GMSAPIClientParameters
__OBJC_LABEL_PROTOCOL_$_GMSAbstractRenderer
__OBJC_LABEL_PROTOCOL_$_GMSAccessibilityContainer
__OBJC_LABEL_PROTOCOL_$_GMSAnalyticsLogging
__OBJC_LABEL_PROTOCOL_$_GMSAnalyticsLoggingTesting
__OBJC_LABEL_PROTOCOL_$_GMSBoolExperimentFlag
__OBJC_LABEL_PROTOCOL_$_GMSBubbleEntityProviderDelegate
__OBJC_LABEL_PROTOCOL_$_GMSCalloutManager
__OBJC_LABEL_PROTOCOL_$_GMSCellularInfo
__OBJC_LABEL_PROTOCOL_$_GMSClientParameters
__OBJC_LABEL_PROTOCOL_$_GMSClientParametersInternal
__OBJC_LABEL_PROTOCOL_$_GMSClientParametersOverriding
__OBJC_LABEL_PROTOCOL_$_GMSClientParametersSubclassing
__OBJC_LABEL_PROTOCOL_$_GMSClientParametersUpdater
__OBJC_LABEL_PROTOCOL_$_GMSClientParametersUserDefaults
__OBJC_LABEL_PROTOCOL_$_GMSClientVectorOpTapDelegate
__OBJC_LABEL_PROTOCOL_$_GMSClientVectorOps
__OBJC_LABEL_PROTOCOL_$_GMSCompactStyleComponentResolver
__OBJC_LABEL_PROTOCOL_$_GMSCompassButton
__OBJC_LABEL_PROTOCOL_$_GMSCoreClientParameters
__OBJC_LABEL_PROTOCOL_$_GMSCoreClientParametersInternal
__OBJC_LABEL_PROTOCOL_$_GMSCoreTesting
__OBJC_LABEL_PROTOCOL_$_GMSDASHClientDescriptionConfiguration
__OBJC_LABEL_PROTOCOL_$_GMSDASHClientStateZwiebackMonitor
__OBJC_LABEL_PROTOCOL_$_GMSDASHConnection
__OBJC_LABEL_PROTOCOL_$_GMSDASHConnectionContextFetcher
__OBJC_LABEL_PROTOCOL_$_GMSDASHConnectionServerConfiguration
__OBJC_LABEL_PROTOCOL_$_GMSDASHConnectionTesting
__OBJC_LABEL_PROTOCOL_$_GMSDASHStreamingCompletionContext
__OBJC_LABEL_PROTOCOL_$_GMSDateProvider
__OBJC_LABEL_PROTOCOL_$_GMSDisplayLinkClient
__OBJC_LABEL_PROTOCOL_$_GMSDoubleTapGestureRecognizerDelegate
__OBJC_LABEL_PROTOCOL_$_GMSEnableFeatureParameters
__OBJC_LABEL_PROTOCOL_$_GMSEntityAccessibleUIItem
__OBJC_LABEL_PROTOCOL_$_GMSEntityProvider
__OBJC_LABEL_PROTOCOL_$_GMSEntityResources
__OBJC_LABEL_PROTOCOL_$_GMSEntityTappableUIItem
__OBJC_LABEL_PROTOCOL_$_GMSEntityUIHandler
__OBJC_LABEL_PROTOCOL_$_GMSEpochResourcesModifier
__OBJC_LABEL_PROTOCOL_$_GMSExperimentFlag
__OBJC_LABEL_PROTOCOL_$_GMSFeature
__OBJC_LABEL_PROTOCOL_$_GMSGestureHandlerViewDelegate
__OBJC_LABEL_PROTOCOL_$_GMSIndoorDisplayDelegate
__OBJC_LABEL_PROTOCOL_$_GMSIndoorFlags
__OBJC_LABEL_PROTOCOL_$_GMSIndoorFocusDelegate
__OBJC_LABEL_PROTOCOL_$_GMSIndoorParameters
__OBJC_LABEL_PROTOCOL_$_GMSIndoorStateListener
__OBJC_LABEL_PROTOCOL_$_GMSIndoorTileObserverDelegate
__OBJC_LABEL_PROTOCOL_$_GMSIntExperimentFlag
__OBJC_LABEL_PROTOCOL_$_GMSLRUCacheDelegate
__OBJC_LABEL_PROTOCOL_$_GMSLabelOps
__OBJC_LABEL_PROTOCOL_$_GMSLabelerFlags
__OBJC_LABEL_PROTOCOL_$_GMSLaunchStabilityControllerDelegate
__OBJC_LABEL_PROTOCOL_$_GMSLaunchStabilityReporting
__OBJC_LABEL_PROTOCOL_$_GMSLocationDescriptorListener
__OBJC_LABEL_PROTOCOL_$_GMSLoggingParameters
__OBJC_LABEL_PROTOCOL_$_GMSMapAnalytics
__OBJC_LABEL_PROTOCOL_$_GMSMapClientStyler
__OBJC_LABEL_PROTOCOL_$_GMSMapClientStylerDelegate
__OBJC_LABEL_PROTOCOL_$_GMSMapCoreFlags
__OBJC_LABEL_PROTOCOL_$_GMSMapCoreParameters
__OBJC_LABEL_PROTOCOL_$_GMSMapEntityUIHandling
__OBJC_LABEL_PROTOCOL_$_GMSMapIDParameters
__OBJC_LABEL_PROTOCOL_$_GMSMapInstanceEventLogger
__OBJC_LABEL_PROTOCOL_$_GMSMapMyLocation
__OBJC_LABEL_PROTOCOL_$_GMSMapRendering
__OBJC_LABEL_PROTOCOL_$_GMSMapRenderingDelegate
__OBJC_LABEL_PROTOCOL_$_GMSMapSessionID
__OBJC_LABEL_PROTOCOL_$_GMSMapTiling
__OBJC_LABEL_PROTOCOL_$_GMSMapViewDelegate
__OBJC_LABEL_PROTOCOL_$_GMSMapViewGoogleDelegate
__OBJC_LABEL_PROTOCOL_$_GMSMapViewOverlay
__OBJC_LABEL_PROTOCOL_$_GMSMapsApiExperimentParameters
__OBJC_LABEL_PROTOCOL_$_GMSMapsSDKLogger
__OBJC_LABEL_PROTOCOL_$_GMSMobileMapsPhotoService
__OBJC_LABEL_PROTOCOL_$_GMSModelFeature
__OBJC_LABEL_PROTOCOL_$_GMSModelFeatureEntityUIItemDelegate
__OBJC_LABEL_PROTOCOL_$_GMSModelFeatureWithServerID
__OBJC_LABEL_PROTOCOL_$_GMSMyLocationEntityProviderDelegate
__OBJC_LABEL_PROTOCOL_$_GMSMyLocationProvider
__OBJC_LABEL_PROTOCOL_$_GMSMyLocationProviderDelegate
__OBJC_LABEL_PROTOCOL_$_GMSNavigation2Parameters
__OBJC_LABEL_PROTOCOL_$_GMSNavigationFlags
__OBJC_LABEL_PROTOCOL_$_GMSNavigationParameters
__OBJC_LABEL_PROTOCOL_$_GMSNetworkFetcher
__OBJC_LABEL_PROTOCOL_$_GMSNetworkFetcherHeaderSource
__OBJC_LABEL_PROTOCOL_$_GMSNetworkFetcherHeaders
__OBJC_LABEL_PROTOCOL_$_GMSNetworkFetcherRequest
__OBJC_LABEL_PROTOCOL_$_GMSNetworkMonitoring
__OBJC_LABEL_PROTOCOL_$_GMSNetworkRequestCUITagger
__OBJC_LABEL_PROTOCOL_$_GMSObjectDataCache
__OBJC_LABEL_PROTOCOL_$_GMSOfflineTileDataCache
__OBJC_LABEL_PROTOCOL_$_GMSPaintTileServing
__OBJC_LABEL_PROTOCOL_$_GMSPanGesture
__OBJC_LABEL_PROTOCOL_$_GMSPanoramaViewDelegate
__OBJC_LABEL_PROTOCOL_$_GMSParameterGroupRegistrar
__OBJC_LABEL_PROTOCOL_$_GMSParameterGroupSource
__OBJC_LABEL_PROTOCOL_$_GMSPhoenixRenderBinSource
__OBJC_LABEL_PROTOCOL_$_GMSPreLaunchServices
__OBJC_LABEL_PROTOCOL_$_GMSQuotaService
__OBJC_LABEL_PROTOCOL_$_GMSQuotaServiceResponseHandler
__OBJC_LABEL_PROTOCOL_$_GMSRPCServiceInterface
__OBJC_LABEL_PROTOCOL_$_GMSRPCTransport
__OBJC_LABEL_PROTOCOL_$_GMSRPCTransportProvider
__OBJC_LABEL_PROTOCOL_$_GMSRPCURLRequestTransformer
__OBJC_LABEL_PROTOCOL_$_GMSRealtimeLogger
__OBJC_LABEL_PROTOCOL_$_GMSRelatedParameterGroupRegistrar
__OBJC_LABEL_PROTOCOL_$_GMSRelatedParameterGroupSource
__OBJC_LABEL_PROTOCOL_$_GMSRenderTile
__OBJC_LABEL_PROTOCOL_$_GMSRenderTileConsumer
__OBJC_LABEL_PROTOCOL_$_GMSRendererDelegate
__OBJC_LABEL_PROTOCOL_$_GMSRoadGraphV2TileClientPropertiesProvider
__OBJC_LABEL_PROTOCOL_$_GMSRocketIVGLViewDelegate
__OBJC_LABEL_PROTOCOL_$_GMSRocketIVRenderLayerDelegate
__OBJC_LABEL_PROTOCOL_$_GMSRouteLoggingFlags
__OBJC_LABEL_PROTOCOL_$_GMSSearchTileRequestDelegate
__OBJC_LABEL_PROTOCOL_$_GMSServerResetLogging
__OBJC_LABEL_PROTOCOL_$_GMSServerVersionMetadataInspecting
__OBJC_LABEL_PROTOCOL_$_GMSServerVersionMetadataTracking
__OBJC_LABEL_PROTOCOL_$_GMSServerVisualElement
__OBJC_LABEL_PROTOCOL_$_GMSServicesTerminator
__OBJC_LABEL_PROTOCOL_$_GMSStreetViewParameters
__OBJC_LABEL_PROTOCOL_$_GMSStyleTable
__OBJC_LABEL_PROTOCOL_$_GMSStyleTableDiskCache
__OBJC_LABEL_PROTOCOL_$_GMSStyleTableInternals
__OBJC_LABEL_PROTOCOL_$_GMSStyledTile
__OBJC_LABEL_PROTOCOL_$_GMSTile
__OBJC_LABEL_PROTOCOL_$_GMSTileDataCache
__OBJC_LABEL_PROTOCOL_$_GMSTileEpoch
__OBJC_LABEL_PROTOCOL_$_GMSTileExpiration
__OBJC_LABEL_PROTOCOL_$_GMSTileInvalidator
__OBJC_LABEL_PROTOCOL_$_GMSTileObserver
__OBJC_LABEL_PROTOCOL_$_GMSTileReceiver
__OBJC_LABEL_PROTOCOL_$_GMSTileRequest
__OBJC_LABEL_PROTOCOL_$_GMSTileService
__OBJC_LABEL_PROTOCOL_$_GMSTileServiceRegistry
__OBJC_LABEL_PROTOCOL_$_GMSTimerTracking
__OBJC_LABEL_PROTOCOL_$_GMSTimingClock
__OBJC_LABEL_PROTOCOL_$_GMSTouchMonitorDelegate
__OBJC_LABEL_PROTOCOL_$_GMSUISettingsViewDelegate
__OBJC_LABEL_PROTOCOL_$_GMSURLOpener
__OBJC_LABEL_PROTOCOL_$_GMSUserAgent
__OBJC_LABEL_PROTOCOL_$_GMSVectorRenderTile
__OBJC_LABEL_PROTOCOL_$_GMSViewportBatchLoggingElement
__OBJC_LABEL_PROTOCOL_$_GMSViewportLoggingElement
__OBJC_LABEL_PROTOCOL_$_GMSViewportLoggingSnapshot
__OBJC_LABEL_PROTOCOL_$_GMSZwiebackMutator
__OBJC_LABEL_PROTOCOL_$_GMSZwiebackProvider
__OBJC_LABEL_PROTOCOL_$_GMSx_AZCoreResources
__OBJC_LABEL_PROTOCOL_$_GMSx_AZCoreResourcesConfiguration
__OBJC_LABEL_PROTOCOL_$_GMSx_AZDisruptionsLoggingParamsService
__OBJC_LABEL_PROTOCOL_$_GMSx_AZMapContentParameters
__OBJC_LABEL_PROTOCOL_$_GMSx_AZTaskScheduling
__OBJC_LABEL_PROTOCOL_$_GMSx_AZTimeFormattingResources
__OBJC_LABEL_PROTOCOL_$_GMSx_CCTClearcutAutoCountersDelegate
__OBJC_LABEL_PROTOCOL_$_GMSx_CCTClearcutComplianceDataProvider
__OBJC_LABEL_PROTOCOL_$_GMSx_CCTClearcutFlagsProtocol
__OBJC_LABEL_PROTOCOL_$_GMSx_CCTClearcutGlobalLogTransformer
__OBJC_LABEL_PROTOCOL_$_GMSx_CCTClearcutLogTransformer
__OBJC_LABEL_PROTOCOL_$_GMSx_CCTClearcutLogger
__OBJC_LABEL_PROTOCOL_$_GMSx_CCTClearcutMetaLoggerProtocol
__OBJC_LABEL_PROTOCOL_$_GMSx_CCTClearcutUploaderListener
__OBJC_LABEL_PROTOCOL_$_GMSx_CCTClearcutUploaderProtocol
__OBJC_LABEL_PROTOCOL_$_GMSx_CCTClockProtocol
__OBJC_LABEL_PROTOCOL_$_GMSx_CCTLogOutputStream
__OBJC_LABEL_PROTOCOL_$_GMSx_CCTPolicyVending
__OBJC_LABEL_PROTOCOL_$_GMSx_CCTUploaderLock
__OBJC_LABEL_PROTOCOL_$_GMSx_CCTUploaderLockProvider
__OBJC_LABEL_PROTOCOL_$_GMSx_CMCCodeModuleCache
__OBJC_LABEL_PROTOCOL_$_GMSx_GDSBaseMapColor
__OBJC_LABEL_PROTOCOL_$_GMSx_GDSMapColor
__OBJC_LABEL_PROTOCOL_$_GMSx_GIPAccountID
__OBJC_LABEL_PROTOCOL_$_GMSx_GIPGaiaAccountID
__OBJC_LABEL_PROTOCOL_$_GMSx_GIPLogAppControl
__OBJC_LABEL_PROTOCOL_$_GMSx_GIPLogCallstack
__OBJC_LABEL_PROTOCOL_$_GMSx_GIPLogFilter
__OBJC_LABEL_PROTOCOL_$_GMSx_GIPLogFormatter
__OBJC_LABEL_PROTOCOL_$_GMSx_GIPLogMultiplexing
__OBJC_LABEL_PROTOCOL_$_GMSx_GIPLogger
__OBJC_LABEL_PROTOCOL_$_GMSx_GIPNoAccountID
__OBJC_LABEL_PROTOCOL_$_GMSx_GIPPseudonymousEnableListener
__OBJC_LABEL_PROTOCOL_$_GMSx_GIPPseudonymousIDObserver
__OBJC_LABEL_PROTOCOL_$_GMSx_GIPSafeParameter
__OBJC_LABEL_PROTOCOL_$_GMSx_GIPSyncLogger
__OBJC_LABEL_PROTOCOL_$_GMSx_GMCSClientVisualElement
__OBJC_LABEL_PROTOCOL_$_GMSx_GMCSClock
__OBJC_LABEL_PROTOCOL_$_GMSx_GMCSDeferredViewUpdate
__OBJC_LABEL_PROTOCOL_$_GMSx_GMCSTraitEnvironment
__OBJC_LABEL_PROTOCOL_$_GMSx_GMCSVisuallyRepressibleElement
__OBJC_LABEL_PROTOCOL_$_GMSx_GMDCColorScheming
__OBJC_LABEL_PROTOCOL_$_GMSx_GMDCContainerScheming
__OBJC_LABEL_PROTOCOL_$_GMSx_GMDCPalette
__OBJC_LABEL_PROTOCOL_$_GMSx_GMDCTypographyDisplayScheming
__OBJC_LABEL_PROTOCOL_$_GMSx_GMDCTypographyScheming
__OBJC_LABEL_PROTOCOL_$_GMSx_GMDCTypographySchemingAdditions
__OBJC_LABEL_PROTOCOL_$_GMSx_GNSStreamProvider
__OBJC_LABEL_PROTOCOL_$_GMSx_GOOCheckboxContentViewDelegate
__OBJC_LABEL_PROTOCOL_$_GMSx_GOOContentView
__OBJC_LABEL_PROTOCOL_$_GMSx_GOOContentViewObject
__OBJC_LABEL_PROTOCOL_$_GMSx_GOOScrollViewKeyboardManagerDelegate
__OBJC_LABEL_PROTOCOL_$_GMSx_GPBDictionaryInternalsProtocol
__OBJC_LABEL_PROTOCOL_$_GMSx_GPBExtensionRegistry
__OBJC_LABEL_PROTOCOL_$_GMSx_GPBMessageSignatureProtocol
__OBJC_LABEL_PROTOCOL_$_GMSx_GTMDecoratedSessionFetcherServiceFactory
__OBJC_LABEL_PROTOCOL_$_GMSx_GTMFetcherAuthorizationProtocol
__OBJC_LABEL_PROTOCOL_$_GMSx_GTMLogFilter
__OBJC_LABEL_PROTOCOL_$_GMSx_GTMLogFormatter
__OBJC_LABEL_PROTOCOL_$_GMSx_GTMLogWriter
__OBJC_LABEL_PROTOCOL_$_GMSx_GTMSessionFetcherServiceProtocol
__OBJC_LABEL_PROTOCOL_$_GMSx_GTMUserAgentProvider
__OBJC_LABEL_PROTOCOL_$_GMSx_IVAnnotationTextStyler
__OBJC_LABEL_PROTOCOL_$_GMSx_IVAnnotationsManagerDelegate
__OBJC_LABEL_PROTOCOL_$_GMSx_IVCameraLayerDelegate
__OBJC_LABEL_PROTOCOL_$_GMSx_IVCoordinateUtils
__OBJC_LABEL_PROTOCOL_$_GMSx_IVFontProvider
__OBJC_LABEL_PROTOCOL_$_GMSx_IVIconManagerHost
__OBJC_LABEL_PROTOCOL_$_GMSx_IVMetadataService
__OBJC_LABEL_PROTOCOL_$_GMSx_IVStreetViewDelegate
__OBJC_LABEL_PROTOCOL_$_GMSx_IVStreetViewViewControls
__OBJC_LABEL_PROTOCOL_$_GMSx_IVTransitionCompletionDelegate
__OBJC_LABEL_PROTOCOL_$_GMSx_MDCColorScheme
__OBJC_LABEL_PROTOCOL_$_GMSx_MDCColorScheming
__OBJC_LABEL_PROTOCOL_$_GMSx_MDCContainerScheming
__OBJC_LABEL_PROTOCOL_$_GMSx_MDCElevatable
__OBJC_LABEL_PROTOCOL_$_GMSx_MDCElevationOverriding
__OBJC_LABEL_PROTOCOL_$_GMSx_MDCFloatingButtonModeAnimatorDelegate
__OBJC_LABEL_PROTOCOL_$_GMSx_MDCInkLayerDelegate
__OBJC_LABEL_PROTOCOL_$_GMSx_MDCInkTouchControllerDelegate
__OBJC_LABEL_PROTOCOL_$_GMSx_MDCLegacyInkLayerDelegate
__OBJC_LABEL_PROTOCOL_$_GMSx_MDCLegacyInkLayerRippleDelegate
__OBJC_LABEL_PROTOCOL_$_GMSx_MDCRippleLayerDelegate
__OBJC_LABEL_PROTOCOL_$_GMSx_MDCShapeGenerating
__OBJC_LABEL_PROTOCOL_$_GMSx_MDCShapeScheming
__OBJC_LABEL_PROTOCOL_$_GMSx_MDCTypographyFontLoading
__OBJC_LABEL_PROTOCOL_$_GMSx_MDCTypographyScheming
__OBJC_LABEL_PROTOCOL_$_GMSx_MDMCoreAnimationTraceable
__OBJC_LABEL_PROTOCOL_$_GMSx_MDMRepetitionTraits
__OBJC_LABEL_PROTOCOL_$_GMSx_MDMTimingCurve
__OBJC_LABEL_PROTOCOL_$_GMSx_NIActionsDataSource
__OBJC_LABEL_PROTOCOL_$_GMSx_NICell
__OBJC_LABEL_PROTOCOL_$_GMSx_NICellObject
__OBJC_LABEL_PROTOCOL_$_GMSx_NIGroupedCellAppearance
__OBJC_LABEL_PROTOCOL_$_GMSx_NIRecyclableView
__OBJC_LABEL_PROTOCOL_$_GMSx_NISnapshotRotationDelegate
__OBJC_LABEL_PROTOCOL_$_GMSx_NITableViewModelDelegate
__OBJC_LABEL_PROTOCOL_$_GMSx_PHTBasePhenotypeFlagsProtocol
__OBJC_LABEL_PROTOCOL_$_GMSx_PHTDeviceTokenCacheService
__OBJC_LABEL_PROTOCOL_$_GMSx_PHTHermeticOverridesService
__OBJC_LABEL_PROTOCOL_$_GMSx_PHTHeterodyneSyncerProtocol
__OBJC_LABEL_PROTOCOL_$_GMSx_PHTInternalPhenotypeFlagsProtocol
__OBJC_LABEL_PROTOCOL_$_GMSx_PHTPhenotype
__OBJC_LABEL_PROTOCOL_$_GMSx_PHTPhenotypeAccount
__OBJC_LABEL_PROTOCOL_$_GMSx_PHTPhenotypeAccountService
__OBJC_LABEL_PROTOCOL_$_GMSx_PHTPhenotypeFlagsProtocol
__OBJC_LABEL_PROTOCOL_$_GMSx_PHTPhenotypeInternal
__OBJC_LABEL_PROTOCOL_$_GMSx_PHTPhenotypeRuntimeASP
__OBJC_LABEL_PROTOCOL_$_GMSx_PHTPhenotypeSyncAfter
__OBJC_LABEL_PROTOCOL_$_GMSx_PHTTokenCacheService
__OBJC_LABEL_PROTOCOL_$_GMSx_PHTUserTokenCacheService
__OBJC_LABEL_PROTOCOL_$_GMSx_PRMName
__OBJC_LABEL_PROTOCOL_$_GMSx_QTMCollectionViewInfoBarDelegate
__OBJC_LABEL_PROTOCOL_$_GMSx_QTMCollectionViewModelDelegate
__OBJC_LABEL_PROTOCOL_$_GMSx_QTMCollectionViewStyleDelegate
__OBJC_LABEL_PROTOCOL_$_GMSx_QTMCustomEditingAccessoryViewContainer
__OBJC_LABEL_PROTOCOL_$_GMSx_QTMResourceLoader
__OBJC_LABEL_PROTOCOL_$_GMSx_SMCClockProvider
__OBJC_LABEL_PROTOCOL_$_GMSx_SRLFilterable
__OBJC_LABEL_PROTOCOL_$_GMSx_SRLInstanceType
__OBJC_LABEL_PROTOCOL_$_GMSx_SRLPServiceInitializationEventProtocol
__OBJC_LABEL_PROTOCOL_$_GMSx_SRLPServiceInitializationNewInstanceEventProtocol
__OBJC_LABEL_PROTOCOL_$_GMSx_SRLProfilingStorageProtocol
__OBJC_LABEL_PROTOCOL_$_GMSx_SRLScopeTag
__OBJC_LABEL_PROTOCOL_$_MTLBuffer
__OBJC_LABEL_PROTOCOL_$_MTLDepthStencilState
__OBJC_LABEL_PROTOCOL_$_MTLDevice
__OBJC_LABEL_PROTOCOL_$_MTLDrawable
__OBJC_LABEL_PROTOCOL_$_MTLFunction
__OBJC_LABEL_PROTOCOL_$_MTLHeap
__OBJC_LABEL_PROTOCOL_$_MTLLibrary
__OBJC_LABEL_PROTOCOL_$_MTLRenderPipelineState
__OBJC_LABEL_PROTOCOL_$_MTLResource
__OBJC_LABEL_PROTOCOL_$_MTLTexture
__OBJC_LABEL_PROTOCOL_$_NSCoding
__OBJC_LABEL_PROTOCOL_$_NSCopying
__OBJC_LABEL_PROTOCOL_$_NSFastEnumeration
__OBJC_LABEL_PROTOCOL_$_NSMutableCopying
__OBJC_LABEL_PROTOCOL_$_NSObject
__OBJC_LABEL_PROTOCOL_$_NSSecureCoding
__OBJC_LABEL_PROTOCOL_$_NSURLSessionDelegate
__OBJC_LABEL_PROTOCOL_$_OS_dispatch_object
__OBJC_LABEL_PROTOCOL_$_OS_dispatch_queue
__OBJC_LABEL_PROTOCOL_$_OS_dispatch_queue_concurrent
__OBJC_LABEL_PROTOCOL_$_OS_dispatch_queue_global
__OBJC_LABEL_PROTOCOL_$_OS_dispatch_queue_main
__OBJC_LABEL_PROTOCOL_$_OS_dispatch_queue_serial
__OBJC_LABEL_PROTOCOL_$_OS_dispatch_workloop
__OBJC_LABEL_PROTOCOL_$_UICollectionViewDataSource
__OBJC_LABEL_PROTOCOL_$_UICollectionViewDelegate
__OBJC_LABEL_PROTOCOL_$_UICollectionViewDelegateFlowLayout
__OBJC_LABEL_PROTOCOL_$_UIGestureRecognizerDelegate
__OBJC_LABEL_PROTOCOL_$_UIScrollViewDelegate
__OBJC_LABEL_PROTOCOL_$_UITableViewDataSource
__OBJC_LABEL_PROTOCOL_$_UITableViewDelegate
__OBJC_PROTOCOL_$_CAAction
__OBJC_PROTOCOL_$_CAAnimationDelegate
__OBJC_PROTOCOL_$_CALayerDelegate
__OBJC_PROTOCOL_$_CCTLogResponseHandler
__OBJC_PROTOCOL_$_CLLocationManagerDelegate
__OBJC_PROTOCOL_$_CLLocationManagerState
__OBJC_PROTOCOL_$_GMSAPIClientParameters
__OBJC_PROTOCOL_$_GMSAbstractRenderer
__OBJC_PROTOCOL_$_GMSAccessibilityContainer
__OBJC_PROTOCOL_$_GMSAnalyticsLogging
__OBJC_PROTOCOL_$_GMSAnalyticsLoggingTesting
__OBJC_PROTOCOL_$_GMSBoolExperimentFlag
__OBJC_PROTOCOL_$_GMSBubbleEntityProviderDelegate
__OBJC_PROTOCOL_$_GMSCalloutManager
__OBJC_PROTOCOL_$_GMSCellularInfo
__OBJC_PROTOCOL_$_GMSClientParameters
__OBJC_PROTOCOL_$_GMSClientParametersInternal
__OBJC_PROTOCOL_$_GMSClientParametersOverriding
__OBJC_PROTOCOL_$_GMSClientParametersSubclassing
__OBJC_PROTOCOL_$_GMSClientParametersUpdater
__OBJC_PROTOCOL_$_GMSClientParametersUserDefaults
__OBJC_PROTOCOL_$_GMSClientVectorOpTapDelegate
__OBJC_PROTOCOL_$_GMSClientVectorOps
__OBJC_PROTOCOL_$_GMSCompactStyleComponentResolver
__OBJC_PROTOCOL_$_GMSCompassButton
__OBJC_PROTOCOL_$_GMSCoreClientParameters
__OBJC_PROTOCOL_$_GMSCoreClientParametersInternal
__OBJC_PROTOCOL_$_GMSCoreTesting
__OBJC_PROTOCOL_$_GMSDASHClientDescriptionConfiguration
__OBJC_PROTOCOL_$_GMSDASHClientStateZwiebackMonitor
__OBJC_PROTOCOL_$_GMSDASHConnection
__OBJC_PROTOCOL_$_GMSDASHConnectionContextFetcher
__OBJC_PROTOCOL_$_GMSDASHConnectionServerConfiguration
__OBJC_PROTOCOL_$_GMSDASHConnectionTesting
__OBJC_PROTOCOL_$_GMSDASHStreamingCompletionContext
__OBJC_PROTOCOL_$_GMSDateProvider
__OBJC_PROTOCOL_$_GMSDisplayLinkClient
__OBJC_PROTOCOL_$_GMSDoubleTapGestureRecognizerDelegate
__OBJC_PROTOCOL_$_GMSEnableFeatureParameters
__OBJC_PROTOCOL_$_GMSEntityAccessibleUIItem
__OBJC_PROTOCOL_$_GMSEntityProvider
__OBJC_PROTOCOL_$_GMSEntityResources
__OBJC_PROTOCOL_$_GMSEntityTappableUIItem
__OBJC_PROTOCOL_$_GMSEntityUIHandler
__OBJC_PROTOCOL_$_GMSEpochResourcesModifier
__OBJC_PROTOCOL_$_GMSExperimentFlag
__OBJC_PROTOCOL_$_GMSFeature
__OBJC_PROTOCOL_$_GMSGestureHandlerViewDelegate
__OBJC_PROTOCOL_$_GMSIndoorDisplayDelegate
__OBJC_PROTOCOL_$_GMSIndoorFlags
__OBJC_PROTOCOL_$_GMSIndoorFocusDelegate
__OBJC_PROTOCOL_$_GMSIndoorParameters
__OBJC_PROTOCOL_$_GMSIndoorStateListener
__OBJC_PROTOCOL_$_GMSIndoorTileObserverDelegate
__OBJC_PROTOCOL_$_GMSIntExperimentFlag
__OBJC_PROTOCOL_$_GMSLRUCacheDelegate
__OBJC_PROTOCOL_$_GMSLabelOps
__OBJC_PROTOCOL_$_GMSLabelerFlags
__OBJC_PROTOCOL_$_GMSLaunchStabilityControllerDelegate
__OBJC_PROTOCOL_$_GMSLaunchStabilityReporting
__OBJC_PROTOCOL_$_GMSLocationDescriptorListener
__OBJC_PROTOCOL_$_GMSLoggingParameters
__OBJC_PROTOCOL_$_GMSMapAnalytics
__OBJC_PROTOCOL_$_GMSMapClientStyler
__OBJC_PROTOCOL_$_GMSMapClientStylerDelegate
__OBJC_PROTOCOL_$_GMSMapCoreFlags
__OBJC_PROTOCOL_$_GMSMapCoreParameters
__OBJC_PROTOCOL_$_GMSMapEntityUIHandling
__OBJC_PROTOCOL_$_GMSMapIDParameters
__OBJC_PROTOCOL_$_GMSMapInstanceEventLogger
__OBJC_PROTOCOL_$_GMSMapMyLocation
__OBJC_PROTOCOL_$_GMSMapRendering
__OBJC_PROTOCOL_$_GMSMapRenderingDelegate
__OBJC_PROTOCOL_$_GMSMapSessionID
__OBJC_PROTOCOL_$_GMSMapTiling
__OBJC_PROTOCOL_$_GMSMapViewDelegate
__OBJC_PROTOCOL_$_GMSMapViewGoogleDelegate
__OBJC_PROTOCOL_$_GMSMapViewOverlay
__OBJC_PROTOCOL_$_GMSMapsApiExperimentParameters
__OBJC_PROTOCOL_$_GMSMapsSDKLogger
__OBJC_PROTOCOL_$_GMSMobileMapsPhotoService
__OBJC_PROTOCOL_$_GMSModelFeature
__OBJC_PROTOCOL_$_GMSModelFeatureEntityUIItemDelegate
__OBJC_PROTOCOL_$_GMSModelFeatureWithServerID
__OBJC_PROTOCOL_$_GMSMyLocationEntityProviderDelegate
__OBJC_PROTOCOL_$_GMSMyLocationProvider
__OBJC_PROTOCOL_$_GMSMyLocationProviderDelegate
__OBJC_PROTOCOL_$_GMSNavigation2Parameters
__OBJC_PROTOCOL_$_GMSNavigationFlags
__OBJC_PROTOCOL_$_GMSNavigationParameters
__OBJC_PROTOCOL_$_GMSNetworkFetcher
__OBJC_PROTOCOL_$_GMSNetworkFetcherHeaderSource
__OBJC_PROTOCOL_$_GMSNetworkFetcherHeaders
__OBJC_PROTOCOL_$_GMSNetworkFetcherRequest
__OBJC_PROTOCOL_$_GMSNetworkMonitoring
__OBJC_PROTOCOL_$_GMSNetworkRequestCUITagger
__OBJC_PROTOCOL_$_GMSObjectDataCache
__OBJC_PROTOCOL_$_GMSOfflineTileDataCache
__OBJC_PROTOCOL_$_GMSPaintTileServing
__OBJC_PROTOCOL_$_GMSPanGesture
__OBJC_PROTOCOL_$_GMSPanoramaViewDelegate
__OBJC_PROTOCOL_$_GMSParameterGroupRegistrar
__OBJC_PROTOCOL_$_GMSParameterGroupSource
__OBJC_PROTOCOL_$_GMSPhoenixRenderBinSource
__OBJC_PROTOCOL_$_GMSPreLaunchServices
__OBJC_PROTOCOL_$_GMSQuotaService
__OBJC_PROTOCOL_$_GMSQuotaServiceResponseHandler
__OBJC_PROTOCOL_$_GMSRPCServiceInterface
__OBJC_PROTOCOL_$_GMSRPCTransport
__OBJC_PROTOCOL_$_GMSRPCTransportProvider
__OBJC_PROTOCOL_$_GMSRPCURLRequestTransformer
__OBJC_PROTOCOL_$_GMSRealtimeLogger
__OBJC_PROTOCOL_$_GMSRelatedParameterGroupRegistrar
__OBJC_PROTOCOL_$_GMSRelatedParameterGroupSource
__OBJC_PROTOCOL_$_GMSRenderTile
__OBJC_PROTOCOL_$_GMSRenderTileConsumer
__OBJC_PROTOCOL_$_GMSRendererDelegate
__OBJC_PROTOCOL_$_GMSRoadGraphV2TileClientPropertiesProvider
__OBJC_PROTOCOL_$_GMSRocketIVGLViewDelegate
__OBJC_PROTOCOL_$_GMSRocketIVRenderLayerDelegate
__OBJC_PROTOCOL_$_GMSRouteLoggingFlags
__OBJC_PROTOCOL_$_GMSSearchTileRequestDelegate
__OBJC_PROTOCOL_$_GMSServerResetLogging
__OBJC_PROTOCOL_$_GMSServerVersionMetadataInspecting
__OBJC_PROTOCOL_$_GMSServerVersionMetadataTracking
__OBJC_PROTOCOL_$_GMSServerVisualElement
__OBJC_PROTOCOL_$_GMSServicesTerminator
__OBJC_PROTOCOL_$_GMSStreetViewParameters
__OBJC_PROTOCOL_$_GMSStyleTable
__OBJC_PROTOCOL_$_GMSStyleTableDiskCache
__OBJC_PROTOCOL_$_GMSStyleTableInternals
__OBJC_PROTOCOL_$_GMSStyledTile
__OBJC_PROTOCOL_$_GMSTile
__OBJC_PROTOCOL_$_GMSTileDataCache
__OBJC_PROTOCOL_$_GMSTileEpoch
__OBJC_PROTOCOL_$_GMSTileExpiration
__OBJC_PROTOCOL_$_GMSTileInvalidator
__OBJC_PROTOCOL_$_GMSTileObserver
__OBJC_PROTOCOL_$_GMSTileReceiver
__OBJC_PROTOCOL_$_GMSTileRequest
__OBJC_PROTOCOL_$_GMSTileService
__OBJC_PROTOCOL_$_GMSTileServiceRegistry
__OBJC_PROTOCOL_$_GMSTimerTracking
__OBJC_PROTOCOL_$_GMSTimingClock
__OBJC_PROTOCOL_$_GMSTouchMonitorDelegate
__OBJC_PROTOCOL_$_GMSUISettingsViewDelegate
__OBJC_PROTOCOL_$_GMSURLOpener
__OBJC_PROTOCOL_$_GMSUserAgent
__OBJC_PROTOCOL_$_GMSVectorRenderTile
__OBJC_PROTOCOL_$_GMSViewportBatchLoggingElement
__OBJC_PROTOCOL_$_GMSViewportLoggingElement
__OBJC_PROTOCOL_$_GMSViewportLoggingSnapshot
__OBJC_PROTOCOL_$_GMSZwiebackMutator
__OBJC_PROTOCOL_$_GMSZwiebackProvider
__OBJC_PROTOCOL_$_GMSx_AZCoreResources
__OBJC_PROTOCOL_$_GMSx_AZCoreResourcesConfiguration
__OBJC_PROTOCOL_$_GMSx_AZDisruptionsLoggingParamsService
__OBJC_PROTOCOL_$_GMSx_AZMapContentParameters
__OBJC_PROTOCOL_$_GMSx_AZTaskScheduling
__OBJC_PROTOCOL_$_GMSx_AZTimeFormattingResources
__OBJC_PROTOCOL_$_GMSx_CCTClearcutAutoCountersDelegate
__OBJC_PROTOCOL_$_GMSx_CCTClearcutComplianceDataProvider
__OBJC_PROTOCOL_$_GMSx_CCTClearcutFlagsProtocol
__OBJC_PROTOCOL_$_GMSx_CCTClearcutGlobalLogTransformer
__OBJC_PROTOCOL_$_GMSx_CCTClearcutLogTransformer
__OBJC_PROTOCOL_$_GMSx_CCTClearcutLogger
__OBJC_PROTOCOL_$_GMSx_CCTClearcutMetaLoggerProtocol
__OBJC_PROTOCOL_$_GMSx_CCTClearcutUploaderListener
__OBJC_PROTOCOL_$_GMSx_CCTClearcutUploaderProtocol
__OBJC_PROTOCOL_$_GMSx_CCTClockProtocol
__OBJC_PROTOCOL_$_GMSx_CCTLogOutputStream
__OBJC_PROTOCOL_$_GMSx_CCTPolicyVending
__OBJC_PROTOCOL_$_GMSx_CCTUploaderLock
__OBJC_PROTOCOL_$_GMSx_CCTUploaderLockProvider
__OBJC_PROTOCOL_$_GMSx_CMCCodeModuleCache
__OBJC_PROTOCOL_$_GMSx_GDSBaseMapColor
__OBJC_PROTOCOL_$_GMSx_GDSMapColor
__OBJC_PROTOCOL_$_GMSx_GIPAccountID
__OBJC_PROTOCOL_$_GMSx_GIPGaiaAccountID
__OBJC_PROTOCOL_$_GMSx_GIPLogAppControl
__OBJC_PROTOCOL_$_GMSx_GIPLogCallstack
__OBJC_PROTOCOL_$_GMSx_GIPLogFilter
__OBJC_PROTOCOL_$_GMSx_GIPLogFormatter
__OBJC_PROTOCOL_$_GMSx_GIPLogMultiplexing
__OBJC_PROTOCOL_$_GMSx_GIPLogger
__OBJC_PROTOCOL_$_GMSx_GIPNoAccountID
__OBJC_PROTOCOL_$_GMSx_GIPPseudonymousEnableListener
__OBJC_PROTOCOL_$_GMSx_GIPPseudonymousIDObserver
__OBJC_PROTOCOL_$_GMSx_GIPSafeParameter
__OBJC_PROTOCOL_$_GMSx_GIPSyncLogger
__OBJC_PROTOCOL_$_GMSx_GMCSClientVisualElement
__OBJC_PROTOCOL_$_GMSx_GMCSClock
__OBJC_PROTOCOL_$_GMSx_GMCSDeferredViewUpdate
__OBJC_PROTOCOL_$_GMSx_GMCSTraitEnvironment
__OBJC_PROTOCOL_$_GMSx_GMCSVisuallyRepressibleElement
__OBJC_PROTOCOL_$_GMSx_GMDCColorScheming
__OBJC_PROTOCOL_$_GMSx_GMDCContainerScheming
__OBJC_PROTOCOL_$_GMSx_GMDCPalette
__OBJC_PROTOCOL_$_GMSx_GMDCTypographyDisplayScheming
__OBJC_PROTOCOL_$_GMSx_GMDCTypographyScheming
__OBJC_PROTOCOL_$_GMSx_GMDCTypographySchemingAdditions
__OBJC_PROTOCOL_$_GMSx_GNSStreamProvider
__OBJC_PROTOCOL_$_GMSx_GOOCheckboxContentViewDelegate
__OBJC_PROTOCOL_$_GMSx_GOOContentView
__OBJC_PROTOCOL_$_GMSx_GOOContentViewObject
__OBJC_PROTOCOL_$_GMSx_GOOScrollViewKeyboardManagerDelegate
__OBJC_PROTOCOL_$_GMSx_GPBDictionaryInternalsProtocol
__OBJC_PROTOCOL_$_GMSx_GPBExtensionRegistry
__OBJC_PROTOCOL_$_GMSx_GPBMessageSignatureProtocol
__OBJC_PROTOCOL_$_GMSx_GTMDecoratedSessionFetcherServiceFactory
__OBJC_PROTOCOL_$_GMSx_GTMFetcherAuthorizationProtocol
__OBJC_PROTOCOL_$_GMSx_GTMLogFilter
__OBJC_PROTOCOL_$_GMSx_GTMLogFormatter
__OBJC_PROTOCOL_$_GMSx_GTMLogWriter
__OBJC_PROTOCOL_$_GMSx_GTMSessionFetcherServiceProtocol
__OBJC_PROTOCOL_$_GMSx_GTMUserAgentProvider
__OBJC_PROTOCOL_$_GMSx_IVAnnotationTextStyler
__OBJC_PROTOCOL_$_GMSx_IVAnnotationsManagerDelegate
__OBJC_PROTOCOL_$_GMSx_IVCameraLayerDelegate
__OBJC_PROTOCOL_$_GMSx_IVCoordinateUtils
__OBJC_PROTOCOL_$_GMSx_IVFontProvider
__OBJC_PROTOCOL_$_GMSx_IVIconManagerHost
__OBJC_PROTOCOL_$_GMSx_IVMetadataService
__OBJC_PROTOCOL_$_GMSx_IVStreetViewDelegate
__OBJC_PROTOCOL_$_GMSx_IVStreetViewViewControls
__OBJC_PROTOCOL_$_GMSx_IVTransitionCompletionDelegate
__OBJC_PROTOCOL_$_GMSx_MDCColorScheme
__OBJC_PROTOCOL_$_GMSx_MDCColorScheming
__OBJC_PROTOCOL_$_GMSx_MDCContainerScheming
__OBJC_PROTOCOL_$_GMSx_MDCElevatable
__OBJC_PROTOCOL_$_GMSx_MDCElevationOverriding
__OBJC_PROTOCOL_$_GMSx_MDCFloatingButtonModeAnimatorDelegate
__OBJC_PROTOCOL_$_GMSx_MDCInkLayerDelegate
__OBJC_PROTOCOL_$_GMSx_MDCInkTouchControllerDelegate
__OBJC_PROTOCOL_$_GMSx_MDCLegacyInkLayerDelegate
__OBJC_PROTOCOL_$_GMSx_MDCLegacyInkLayerRippleDelegate
__OBJC_PROTOCOL_$_GMSx_MDCRippleLayerDelegate
__OBJC_PROTOCOL_$_GMSx_MDCShapeGenerating
__OBJC_PROTOCOL_$_GMSx_MDCShapeScheming
__OBJC_PROTOCOL_$_GMSx_MDCTypographyFontLoading
__OBJC_PROTOCOL_$_GMSx_MDCTypographyScheming
__OBJC_PROTOCOL_$_GMSx_MDMCoreAnimationTraceable
__OBJC_PROTOCOL_$_GMSx_MDMRepetitionTraits
__OBJC_PROTOCOL_$_GMSx_MDMTimingCurve
__OBJC_PROTOCOL_$_GMSx_NIActionsDataSource
__OBJC_PROTOCOL_$_GMSx_NICell
__OBJC_PROTOCOL_$_GMSx_NICellObject
__OBJC_PROTOCOL_$_GMSx_NIGroupedCellAppearance
__OBJC_PROTOCOL_$_GMSx_NIRecyclableView
__OBJC_PROTOCOL_$_GMSx_NISnapshotRotationDelegate
__OBJC_PROTOCOL_$_GMSx_NITableViewModelDelegate
__OBJC_PROTOCOL_$_GMSx_PHTBasePhenotypeFlagsProtocol
__OBJC_PROTOCOL_$_GMSx_PHTDeviceTokenCacheService
__OBJC_PROTOCOL_$_GMSx_PHTHermeticOverridesService
__OBJC_PROTOCOL_$_GMSx_PHTHeterodyneSyncerProtocol
__OBJC_PROTOCOL_$_GMSx_PHTInternalPhenotypeFlagsProtocol
__OBJC_PROTOCOL_$_GMSx_PHTPhenotype
__OBJC_PROTOCOL_$_GMSx_PHTPhenotypeAccount
__OBJC_PROTOCOL_$_GMSx_PHTPhenotypeAccountService
__OBJC_PROTOCOL_$_GMSx_PHTPhenotypeFlagsProtocol
__OBJC_PROTOCOL_$_GMSx_PHTPhenotypeInternal
__OBJC_PROTOCOL_$_GMSx_PHTPhenotypeRuntimeASP
__OBJC_PROTOCOL_$_GMSx_PHTPhenotypeSyncAfter
__OBJC_PROTOCOL_$_GMSx_PHTTokenCacheService
__OBJC_PROTOCOL_$_GMSx_PHTUserTokenCacheService
__OBJC_PROTOCOL_$_GMSx_PRMName
__OBJC_PROTOCOL_$_GMSx_QTMCollectionViewInfoBarDelegate
__OBJC_PROTOCOL_$_GMSx_QTMCollectionViewModelDelegate
__OBJC_PROTOCOL_$_GMSx_QTMCollectionViewStyleDelegate
__OBJC_PROTOCOL_$_GMSx_QTMCustomEditingAccessoryViewContainer
__OBJC_PROTOCOL_$_GMSx_QTMResourceLoader
__OBJC_PROTOCOL_$_GMSx_SMCClockProvider
__OBJC_PROTOCOL_$_GMSx_SRLFilterable
__OBJC_PROTOCOL_$_GMSx_SRLInstanceType
__OBJC_PROTOCOL_$_GMSx_SRLPServiceInitializationEventProtocol
__OBJC_PROTOCOL_$_GMSx_SRLPServiceInitializationNewInstanceEventProtocol
__OBJC_PROTOCOL_$_GMSx_SRLProfilingStorageProtocol
__OBJC_PROTOCOL_$_GMSx_SRLScopeTag
__OBJC_PROTOCOL_$_MTLBuffer
__OBJC_PROTOCOL_$_MTLDepthStencilState
__OBJC_PROTOCOL_$_MTLDevice
__OBJC_PROTOCOL_$_MTLDrawable
__OBJC_PROTOCOL_$_MTLFunction
__OBJC_PROTOCOL_$_MTLHeap
__OBJC_PROTOCOL_$_MTLLibrary
__OBJC_PROTOCOL_$_MTLRenderPipelineState
__OBJC_PROTOCOL_$_MTLResource
__OBJC_PROTOCOL_$_MTLTexture
__OBJC_PROTOCOL_$_NSCoding
__OBJC_PROTOCOL_$_NSCopying
__OBJC_PROTOCOL_$_NSFastEnumeration
__OBJC_PROTOCOL_$_NSMutableCopying
__OBJC_PROTOCOL_$_NSObject
__OBJC_PROTOCOL_$_NSSecureCoding
__OBJC_PROTOCOL_$_NSURLSessionDelegate
__OBJC_PROTOCOL_$_OS_dispatch_object
__OBJC_PROTOCOL_$_OS_dispatch_queue
__OBJC_PROTOCOL_$_OS_dispatch_queue_concurrent
__OBJC_PROTOCOL_$_OS_dispatch_queue_global
__OBJC_PROTOCOL_$_OS_dispatch_queue_main
__OBJC_PROTOCOL_$_OS_dispatch_queue_serial
__OBJC_PROTOCOL_$_OS_dispatch_workloop
__OBJC_PROTOCOL_$_UICollectionViewDataSource
__OBJC_PROTOCOL_$_UICollectionViewDelegate
__OBJC_PROTOCOL_$_UICollectionViewDelegateFlowLayout
__OBJC_PROTOCOL_$_UIGestureRecognizerDelegate
__OBJC_PROTOCOL_$_UIScrollViewDelegate
__OBJC_PROTOCOL_$_UITableViewDataSource
__OBJC_PROTOCOL_$_UITableViewDelegate
__OBJC_PROTOCOL_REFERENCE_$_CLLocationManagerState
__OBJC_PROTOCOL_REFERENCE_$_GMSAnalyticsLogging
__OBJC_PROTOCOL_REFERENCE_$_GMSAnalyticsLoggingTesting
__OBJC_PROTOCOL_REFERENCE_$_GMSCellularInfo
__OBJC_PROTOCOL_REFERENCE_$_GMSClientParametersOverriding
__OBJC_PROTOCOL_REFERENCE_$_GMSClientParametersUpdater
__OBJC_PROTOCOL_REFERENCE_$_GMSClientParametersUserDefaults
__OBJC_PROTOCOL_REFERENCE_$_GMSDASHClientDescriptionConfiguration
__OBJC_PROTOCOL_REFERENCE_$_GMSDASHConnection
__OBJC_PROTOCOL_REFERENCE_$_GMSDASHConnectionContextFetcher
__OBJC_PROTOCOL_REFERENCE_$_GMSDASHConnectionServerConfiguration
__OBJC_PROTOCOL_REFERENCE_$_GMSDoubleTapGestureRecognizerDelegate
__OBJC_PROTOCOL_REFERENCE_$_GMSEnableFeatureParameters
__OBJC_PROTOCOL_REFERENCE_$_GMSIndoorDisplayDelegate
__OBJC_PROTOCOL_REFERENCE_$_GMSIndoorFlags
__OBJC_PROTOCOL_REFERENCE_$_GMSIndoorParameters
__OBJC_PROTOCOL_REFERENCE_$_GMSLabelerFlags
__OBJC_PROTOCOL_REFERENCE_$_GMSLoggingParameters
__OBJC_PROTOCOL_REFERENCE_$_GMSMapCoreFlags
__OBJC_PROTOCOL_REFERENCE_$_GMSMapCoreParameters
__OBJC_PROTOCOL_REFERENCE_$_GMSMapViewDelegate
__OBJC_PROTOCOL_REFERENCE_$_GMSMapViewGoogleDelegate
__OBJC_PROTOCOL_REFERENCE_$_GMSMapsApiExperimentParameters
__OBJC_PROTOCOL_REFERENCE_$_GMSModelFeature
__OBJC_PROTOCOL_REFERENCE_$_GMSNavigation2Parameters
__OBJC_PROTOCOL_REFERENCE_$_GMSNavigationFlags
__OBJC_PROTOCOL_REFERENCE_$_GMSNavigationParameters
__OBJC_PROTOCOL_REFERENCE_$_GMSNetworkFetcherHeaderSource
__OBJC_PROTOCOL_REFERENCE_$_GMSNetworkFetcherHeaders
__OBJC_PROTOCOL_REFERENCE_$_GMSNetworkMonitoring
__OBJC_PROTOCOL_REFERENCE_$_GMSNetworkRequestCUITagger
__OBJC_PROTOCOL_REFERENCE_$_GMSPaintTileServing
__OBJC_PROTOCOL_REFERENCE_$_GMSPanoramaViewDelegate
__OBJC_PROTOCOL_REFERENCE_$_GMSParameterGroupRegistrar
__OBJC_PROTOCOL_REFERENCE_$_GMSParameterGroupSource
__OBJC_PROTOCOL_REFERENCE_$_GMSRelatedParameterGroupRegistrar
__OBJC_PROTOCOL_REFERENCE_$_GMSRelatedParameterGroupSource
__OBJC_PROTOCOL_REFERENCE_$_GMSRouteLoggingFlags
__OBJC_PROTOCOL_REFERENCE_$_GMSServerVersionMetadataInspecting
__OBJC_PROTOCOL_REFERENCE_$_GMSServerVersionMetadataTracking
__OBJC_PROTOCOL_REFERENCE_$_GMSServerVisualElement
__OBJC_PROTOCOL_REFERENCE_$_GMSStreetViewParameters
__OBJC_PROTOCOL_REFERENCE_$_GMSStyledTile
__OBJC_PROTOCOL_REFERENCE_$_GMSTimerTracking
__OBJC_PROTOCOL_REFERENCE_$_GMSTimingClock
__OBJC_PROTOCOL_REFERENCE_$_GMSURLOpener
__OBJC_PROTOCOL_REFERENCE_$_GMSUserAgent
__OBJC_PROTOCOL_REFERENCE_$_GMSVectorRenderTile
__OBJC_PROTOCOL_REFERENCE_$_GMSZwiebackMutator
__OBJC_PROTOCOL_REFERENCE_$_GMSZwiebackProvider
__OBJC_PROTOCOL_REFERENCE_$_GMSx_AZCoreResources
__OBJC_PROTOCOL_REFERENCE_$_GMSx_AZCoreResourcesConfiguration
__OBJC_PROTOCOL_REFERENCE_$_GMSx_AZDisruptionsLoggingParamsService
__OBJC_PROTOCOL_REFERENCE_$_GMSx_AZMapContentParameters
__OBJC_PROTOCOL_REFERENCE_$_GMSx_AZTaskScheduling
__OBJC_PROTOCOL_REFERENCE_$_GMSx_AZTimeFormattingResources
__OBJC_PROTOCOL_REFERENCE_$_GMSx_CCTClearcutComplianceDataProvider
__OBJC_PROTOCOL_REFERENCE_$_GMSx_CCTClearcutGlobalLogTransformer
__OBJC_PROTOCOL_REFERENCE_$_GMSx_CCTPolicyVending
__OBJC_PROTOCOL_REFERENCE_$_GMSx_GDSBaseMapColor
__OBJC_PROTOCOL_REFERENCE_$_GMSx_GDSMapColor
__OBJC_PROTOCOL_REFERENCE_$_GMSx_GIPGaiaAccountID
__OBJC_PROTOCOL_REFERENCE_$_GMSx_GIPNoAccountID
__OBJC_PROTOCOL_REFERENCE_$_GMSx_GIPPseudonymousEnableListener
__OBJC_PROTOCOL_REFERENCE_$_GMSx_GMCSClientVisualElement
__OBJC_PROTOCOL_REFERENCE_$_GMSx_GMCSClock
__OBJC_PROTOCOL_REFERENCE_$_GMSx_GMCSVisuallyRepressibleElement
__OBJC_PROTOCOL_REFERENCE_$_GMSx_GOOContentViewObject
__OBJC_PROTOCOL_REFERENCE_$_GMSx_GTMDecoratedSessionFetcherServiceFactory
__OBJC_PROTOCOL_REFERENCE_$_GMSx_GTMLogWriter
__OBJC_PROTOCOL_REFERENCE_$_GMSx_MDCElevatable
__OBJC_PROTOCOL_REFERENCE_$_GMSx_MDCElevationOverriding
__OBJC_PROTOCOL_REFERENCE_$_GMSx_NIActionsDataSource
__OBJC_PROTOCOL_REFERENCE_$_GMSx_NIGroupedCellAppearance
__OBJC_PROTOCOL_REFERENCE_$_GMSx_NISnapshotRotationDelegate
__OBJC_PROTOCOL_REFERENCE_$_GMSx_PHTDeviceTokenCacheService
__OBJC_PROTOCOL_REFERENCE_$_GMSx_PHTHermeticOverridesService
__OBJC_PROTOCOL_REFERENCE_$_GMSx_PHTPhenotypeAccountService
__OBJC_PROTOCOL_REFERENCE_$_GMSx_PHTUserTokenCacheService
__OBJC_PROTOCOL_REFERENCE_$_GMSx_QTMCollectionViewInfoBarDelegate
__OBJC_PROTOCOL_REFERENCE_$_GMSx_QTMCustomEditingAccessoryViewContainer
__OBJC_PROTOCOL_REFERENCE_$_GMSx_SMCClockProvider
__OBJC_PROTOCOL_REFERENCE_$_NSCoding
__OBJC_PROTOCOL_REFERENCE_$_NSCopying
__OBJC_PROTOCOL_REFERENCE_$_NSFastEnumeration
__OBJC_PROTOCOL_REFERENCE_$_NSSecureCoding
__OBJC_PROTOCOL_REFERENCE_$_OS_dispatch_queue_concurrent
__OBJC_PROTOCOL_REFERENCE_$_OS_dispatch_queue_global
__OBJC_PROTOCOL_REFERENCE_$_OS_dispatch_queue_main
__OBJC_PROTOCOL_REFERENCE_$_OS_dispatch_queue_serial
__OBJC_PROTOCOL_REFERENCE_$_OS_dispatch_workloop
__OBJC_PROTOCOL_REFERENCE_$_UITableViewDelegate
__ZN13GMSx_filament4math7details11printMatrixIdEERNSt3__113basic_ostreamIcNS3_11char_traitsIcEEEES8_PKT_mm
__ZN13GMSx_filament4math7details11printMatrixIfEERNSt3__113basic_ostreamIcNS3_11char_traitsIcEEEES8_PKT_mm
__ZN13GMSx_filament4math7details11printVectorINS0_4halfEEERNSt3__113basic_ostreamIcNS4_11char_traitsIcEEEES9_PKT_m
__ZN13GMSx_filament4math7details9printQuatINS1_11TQuaternionENS0_4halfEEERNSt3__113basic_ostreamIcNS5_11char_traitsIcEEEESA_RKT_IT0_E
__ZN13GMSx_filament4math7detailslsINS0_4halfEEERNSt3__113basic_ostreamIcNS4_11char_traitsIcEEEES9_RKNS1_11TQuaternionIT_EE
__ZN13GMSx_filament4math7detailslsINS0_4halfEEERNSt3__113basic_ostreamIcNS4_11char_traitsIcEEEES9_RKNS1_5TVec2IT_EE
__ZN13GMSx_filament4math7detailslsINS0_4halfEEERNSt3__113basic_ostreamIcNS4_11char_traitsIcEEEES9_RKNS1_5TVec3IT_EE
__ZN13GMSx_filament4math7detailslsINS0_4halfEEERNSt3__113basic_ostreamIcNS4_11char_traitsIcEEEES9_RKNS1_5TVec4IT_EE
__ZNKSt3__110__function6__funcIN7gmscore6vector8ordering16FeatureZOrderingENS_9allocatorIS5_EEFbP15GMSPointFeatureS9_EE11target_typeEv
__ZNKSt3__110__function6__funcIN7gmscore6vector8ordering16FeatureZOrderingENS_9allocatorIS5_EEFbP15GMSPointFeatureS9_EE6targetERKSt9type_info
__ZNKSt3__110__function6__funcIN7gmscore6vector8ordering16FeatureZOrderingENS_9allocatorIS5_EEFbP15GMSPointFeatureS9_EE7__cloneEPNS0_6__baseISA_EE
__ZNKSt3__110__function6__funcIN7gmscore6vector8ordering16FeatureZOrderingENS_9allocatorIS5_EEFbP15GMSPointFeatureS9_EE7__cloneEv
__ZNKSt3__110__function6__funcIN7gmscore6vector8ordering16FeatureZOrderingENS_9allocatorIS5_EEFbP7GMSAreaS9_EE11target_typeEv
__ZNKSt3__110__function6__funcIN7gmscore6vector8ordering16FeatureZOrderingENS_9allocatorIS5_EEFbP7GMSAreaS9_EE6targetERKSt9type_info
__ZNKSt3__110__function6__funcIN7gmscore6vector8ordering16FeatureZOrderingENS_9allocatorIS5_EEFbP7GMSAreaS9_EE7__cloneEPNS0_6__baseISA_EE
__ZNKSt3__110__function6__funcIN7gmscore6vector8ordering16FeatureZOrderingENS_9allocatorIS5_EEFbP7GMSAreaS9_EE7__cloneEv
__ZNKSt3__110__function6__funcIN7gmscore6vector8ordering16FeatureZOrderingENS_9allocatorIS5_EEFbP7GMSLineS9_EE11target_typeEv
__ZNKSt3__110__function6__funcIN7gmscore6vector8ordering16FeatureZOrderingENS_9allocatorIS5_EEFbP7GMSLineS9_EE6targetERKSt9type_info
__ZNKSt3__110__function6__funcIN7gmscore6vector8ordering16FeatureZOrderingENS_9allocatorIS5_EEFbP7GMSLineS9_EE7__cloneEPNS0_6__baseISA_EE
__ZNKSt3__110__function6__funcIN7gmscore6vector8ordering16FeatureZOrderingENS_9allocatorIS5_EEFbP7GMSLineS9_EE7__cloneEv
__ZNKSt3__110__function6__funcIN7gmscore6vector8ordering16FeatureZOrderingENS_9allocatorIS5_EEFbP9GMSRasterS9_EE11target_typeEv
__ZNKSt3__110__function6__funcIN7gmscore6vector8ordering16FeatureZOrderingENS_9allocatorIS5_EEFbP9GMSRasterS9_EE6targetERKSt9type_info
__ZNKSt3__110__function6__funcIN7gmscore6vector8ordering16FeatureZOrderingENS_9allocatorIS5_EEFbP9GMSRasterS9_EE7__cloneEPNS0_6__baseISA_EE
__ZNKSt3__110__function6__funcIN7gmscore6vector8ordering16FeatureZOrderingENS_9allocatorIS5_EEFbP9GMSRasterS9_EE7__cloneEv
__ZNKSt3__110__function6__funcINS_4lessINS_5tupleIJjmjN7gmscore4base10reffed_ptrINS4_8renderer10BaseEntityEEEEEEEENS_9allocatorISB_EEFbRKSA_SF_EE11target_typeEv
__ZNKSt3__110__function6__funcINS_4lessINS_5tupleIJjmjN7gmscore4base10reffed_ptrINS4_8renderer10BaseEntityEEEEEEEENS_9allocatorISB_EEFbRKSA_SF_EE6targetERKSt9type_info
__ZNKSt3__110__function6__funcINS_4lessINS_5tupleIJjmjN7gmscore4base10reffed_ptrINS4_8renderer10BaseEntityEEEEEEEENS_9allocatorISB_EEFbRKSA_SF_EE7__cloneEPNS0_6__baseISG_EE
__ZNKSt3__110__function6__funcINS_4lessINS_5tupleIJjmjN7gmscore4base10reffed_ptrINS4_8renderer10BaseEntityEEEEEEEENS_9allocatorISB_EEFbRKSA_SF_EE7__cloneEv
__ZNKSt3__110__function6__funcINS_6__bindINS_8__mem_fnIMN7gmscore8renderer20ProxySortedRenderBinINS_5tupleIJjmjNS4_4base10reffed_ptrINS5_10BaseEntityEEEEEENS_4lessISC_EEEEFbRKSB_SH_EEEJPSF_RKNS_12placeholders4__phILi1EEERKNSN_ILi2EEEEEENS_9allocatorISU_EEFbSH_SH_EE11target_typeEv
__ZNKSt3__110__function6__funcINS_6__bindINS_8__mem_fnIMN7gmscore8renderer20ProxySortedRenderBinINS_5tupleIJjmjNS4_4base10reffed_ptrINS5_10BaseEntityEEEEEENS_4lessISC_EEEEFbRKSB_SH_EEEJPSF_RKNS_12placeholders4__phILi1EEERKNSN_ILi2EEEEEENS_9allocatorISU_EEFbSH_SH_EE6targetERKSt9type_info
__ZNKSt3__110__function6__funcINS_6__bindINS_8__mem_fnIMN7gmscore8renderer20ProxySortedRenderBinINS_5tupleIJjmjNS4_4base10reffed_ptrINS5_10BaseEntityEEEEEENS_4lessISC_EEEEFbRKSB_SH_EEEJPSF_RKNS_12placeholders4__phILi1EEERKNSN_ILi2EEEEEENS_9allocatorISU_EEFbSH_SH_EE7__cloneEPNS0_6__baseISX_EE
__ZNKSt3__110__function6__funcINS_6__bindINS_8__mem_fnIMN7gmscore8renderer20ProxySortedRenderBinINS_5tupleIJjmjNS4_4base10reffed_ptrINS5_10BaseEntityEEEEEENS_4lessISC_EEEEFbRKSB_SH_EEEJPSF_RKNS_12placeholders4__phILi1EEERKNSN_ILi2EEEEEENS_9allocatorISU_EEFbSH_SH_EE7__cloneEv
__ZNKSt3__110__function6__funcIPFNS_10unique_ptrIN12GMSx_mapcore7labeler14LabelNodeLabelENS_14default_deleteIS5_EEEERKNS4_12RenderOpInfoERKNS4_14LabelingParamsEjbRKNS4_9AlignmentEENS_9allocatorISJ_EESI_E7__cloneEPNS0_6__baseISI_EE
__ZNKSt3__110__function6__funcIPFNS_10unique_ptrIN12GMSx_mapcore7labeler14LabelNodeLabelENS_14default_deleteIS5_EEEERKNS4_12RenderOpInfoERKNS4_14LabelingParamsEjbRKNS4_9AlignmentEENS_9allocatorISJ_EESI_E7__cloneEv
__ZNKSt3__110__function6__funcIPFNS_12basic_stringIcNS_11char_traitsIcEENS_9allocatorIcEEEEN9GMSx_absl11string_viewEENS5_ISB_EESA_E11target_typeEv
__ZNKSt3__110__function6__funcIPFNS_12basic_stringIcNS_11char_traitsIcEENS_9allocatorIcEEEEN9GMSx_absl11string_viewEENS5_ISB_EESA_E6targetERKSt9type_info
__ZNKSt3__110__function6__funcIPFNS_12basic_stringIcNS_11char_traitsIcEENS_9allocatorIcEEEEN9GMSx_absl11string_viewEENS5_ISB_EESA_E7__cloneEPNS0_6__baseISA_EE
__ZNKSt3__110__function6__funcIPFNS_12basic_stringIcNS_11char_traitsIcEENS_9allocatorIcEEEEN9GMSx_absl11string_viewEENS5_ISB_EESA_E7__cloneEv
__ZNKSt3__110__function6__funcIPFNS_12basic_stringIcNS_11char_traitsIcEENS_9allocatorIcEEEEvENS5_IS9_EES8_E11target_typeEv
__ZNKSt3__110__function6__funcIPFNS_12basic_stringIcNS_11char_traitsIcEENS_9allocatorIcEEEEvENS5_IS9_EES8_E6targetERKSt9type_info
__ZNKSt3__110__function6__funcIPFNS_12basic_stringIcNS_11char_traitsIcEENS_9allocatorIcEEEEvENS5_IS9_EES8_E7__cloneEPNS0_6__baseIS8_EE
__ZNKSt3__110__function6__funcIPFNS_12basic_stringIcNS_11char_traitsIcEENS_9allocatorIcEEEEvENS5_IS9_EES8_E7__cloneEv
__ZNKSt3__110__function6__funcIPFbN9GMSx_absl11string_viewEENS_9allocatorIS5_EES4_E11target_typeEv
__ZNKSt3__110__function6__funcIPFbN9GMSx_absl11string_viewEENS_9allocatorIS5_EES4_E6targetERKSt9type_info
__ZNKSt3__110__function6__funcIPFbN9GMSx_absl11string_viewEENS_9allocatorIS5_EES4_E7__cloneEPNS0_6__baseIS4_EE
__ZNKSt3__110__function6__funcIPFbN9GMSx_absl11string_viewEENS_9allocatorIS5_EES4_E7__cloneEv
__ZNKSt3__110__function6__funcIPFbRKN7gmscore4base10reffed_ptrINS2_8renderer10BaseEntityEEES9_ENS_9allocatorISB_EESA_E11target_typeEv
__ZNKSt3__110__function6__funcIPFbRKN7gmscore4base10reffed_ptrINS2_8renderer10BaseEntityEEES9_ENS_9allocatorISB_EESA_E6targetERKSt9type_info
__ZNKSt3__110__function6__funcIPFbRKN7gmscore4base10reffed_ptrINS2_8renderer10BaseEntityEEES9_ENS_9allocatorISB_EESA_E7__cloneEPNS0_6__baseISA_EE
__ZNKSt3__110__function6__funcIPFbRKN7gmscore4base10reffed_ptrINS2_8renderer10BaseEntityEEES9_ENS_9allocatorISB_EESA_E7__cloneEv
__ZNKSt3__110__function6__funcIPFvPNS_6vectorIiNS_9allocatorIiEEEES6_ENS3_IS8_EES7_E11target_typeEv
__ZNKSt3__110__function6__funcIPFvPNS_6vectorIiNS_9allocatorIiEEEES6_ENS3_IS8_EES7_E6targetERKSt9type_info
__ZNKSt3__110__function6__funcIPFvPNS_6vectorIiNS_9allocatorIiEEEES6_ENS3_IS8_EES7_E7__cloneEPNS0_6__baseIS7_EE
__ZNKSt3__110__function6__funcIPFvPNS_6vectorIiNS_9allocatorIiEEEES6_ENS3_IS8_EES7_E7__cloneEv
__ZNKSt3__110__function6__funcIZN11GMSx_proto22io7Printer8WithDefsEN9GMSx_absl4SpanIKNS4_3SubEEEbEUlNS5_11string_viewEE0_NS_9allocatorISB_EEFNS_8optionalINS4_16AnnotationRecordEEESA_EE11target_typeEv
__ZNKSt3__110__function6__funcIZN11GMSx_proto22io7Printer8WithDefsEN9GMSx_absl4SpanIKNS4_3SubEEEbEUlNS5_11string_viewEE0_NS_9allocatorISB_EEFNS_8optionalINS4_16AnnotationRecordEEESA_EE6targetERKSt9type_info
__ZNKSt3__110__function6__funcIZN11GMSx_proto22io7Printer8WithDefsEN9GMSx_absl4SpanIKNS4_3SubEEEbEUlNS5_11string_viewEE0_NS_9allocatorISB_EEFNS_8optionalINS4_16AnnotationRecordEEESA_EE7__cloneEPNS0_6__baseISH_EE
__ZNKSt3__110__function6__funcIZN11GMSx_proto22io7Printer8WithDefsEN9GMSx_absl4SpanIKNS4_3SubEEEbEUlNS5_11string_viewEE0_NS_9allocatorISB_EEFNS_8optionalINS4_16AnnotationRecordEEESA_EE7__cloneEv
__ZNKSt3__110__function6__funcIZN11GMSx_proto22io7Printer8WithDefsEN9GMSx_absl4SpanIKNS4_3SubEEEbEUlNS5_11string_viewEE_NS_9allocatorISB_EEFNS_8optionalINS4_9ValueImplILb0EEEEESA_EE11target_typeEv
__ZNKSt3__110__function6__funcIZN11GMSx_proto22io7Printer8WithDefsEN9GMSx_absl4SpanIKNS4_3SubEEEbEUlNS5_11string_viewEE_NS_9allocatorISB_EEFNS_8optionalINS4_9ValueImplILb0EEEEESA_EE6targetERKSt9type_info
__ZNKSt3__110__function6__funcIZN11GMSx_proto22io7Printer8WithDefsEN9GMSx_absl4SpanIKNS4_3SubEEEbEUlNS5_11string_viewEE_NS_9allocatorISB_EEFNS_8optionalINS4_9ValueImplILb0EEEEESA_EE7__cloneEPNS0_6__baseISI_EE
__ZNKSt3__110__function6__funcIZN11GMSx_proto22io7Printer8WithDefsEN9GMSx_absl4SpanIKNS4_3SubEEEbEUlNS5_11string_viewEE_NS_9allocatorISB_EEFNS_8optionalINS4_9ValueImplILb0EEEEESA_EE7__cloneEv
__ZNKSt3__110__function6__funcIZN11GMSx_proto22io7Printer8WithVarsIN9GMSx_absl13flat_hash_mapINS6_11string_viewES8_NS6_18container_internal10StringHashENS9_8StringEqENS_9allocatorINS_4pairIKS8_S8_EEEEEEEEDaPKT_EUlS8_E_NSC_ISL_EEFNS_8optionalINS4_9ValueImplILb0EEEEES8_EE11target_typeEv
__ZNKSt3__110__function6__funcIZN11GMSx_proto22io7Printer8WithVarsIN9GMSx_absl13flat_hash_mapINS6_11string_viewES8_NS6_18container_internal10StringHashENS9_8StringEqENS_9allocatorINS_4pairIKS8_S8_EEEEEEEEDaPKT_EUlS8_E_NSC_ISL_EEFNS_8optionalINS4_9ValueImplILb0EEEEES8_EE6targetERKSt9type_info
__ZNKSt3__110__function6__funcIZN11GMSx_proto22io7Printer8WithVarsIN9GMSx_absl13flat_hash_mapINS6_11string_viewES8_NS6_18container_internal10StringHashENS9_8StringEqENS_9allocatorINS_4pairIKS8_S8_EEEEEEEEDaPKT_EUlS8_E_NSC_ISL_EEFNS_8optionalINS4_9ValueImplILb0EEEEES8_EE7__cloneEPNS0_6__baseISR_EE
__ZNKSt3__110__function6__funcIZN11GMSx_proto22io7Printer8WithVarsIN9GMSx_absl13flat_hash_mapINS6_11string_viewES8_NS6_18container_internal10StringHashENS9_8StringEqENS_9allocatorINS_4pairIKS8_S8_EEEEEEEEDaPKT_EUlS8_E_NSC_ISL_EEFNS_8optionalINS4_9ValueImplILb0EEEEES8_EE7__cloneEv
__ZNKSt3__110__function6__funcIZN9GMSx_absl14flags_internal13FlagSaverImpl16SaveFromRegistryEvEUlRNS2_15CommandLineFlagEE_NS_9allocatorIS7_EEFvS6_EE11target_typeEv
__ZNKSt3__110__function6__funcIZN9GMSx_absl14flags_internal13FlagSaverImpl16SaveFromRegistryEvEUlRNS2_15CommandLineFlagEE_NS_9allocatorIS7_EEFvS6_EE6targetERKSt9type_info
__ZNKSt3__110__function6__funcIZN9GMSx_absl14flags_internal13FlagSaverImpl16SaveFromRegistryEvEUlRNS2_15CommandLineFlagEE_NS_9allocatorIS7_EEFvS6_EE7__cloneEPNS0_6__baseISA_EE
__ZNKSt3__110__function6__funcIZN9GMSx_absl14flags_internal13FlagSaverImpl16SaveFromRegistryEvEUlRNS2_15CommandLineFlagEE_NS_9allocatorIS7_EEFvS6_EE7__cloneEv
__ZNKSt3__112basic_stringIcNS_11char_traitsIcEENS_9allocatorIcEEE20__throw_length_errorB8ue170006Ev
__ZNKSt3__112basic_stringIcNS_11char_traitsIcEENS_9allocatorIcEEE20__throw_out_of_rangeB8ue170006Ev
__ZNKSt3__113__string_hashIcNS_9allocatorIcEEEclB8ue170006ERKNS_12basic_stringIcNS_11char_traitsIcEES2_EE
__ZNKSt3__114default_deleteIN23GMSx_geo_imagery_viewer4pano8MetadataEEclB8ue170006EPS3_
__ZNKSt3__114default_deleteIN23GMSx_geo_imagery_viewer7overlay16nav_arrows_model12ChevronModelEEclB8ue170006EPS4_
__ZNKSt3__114default_deleteIN7gmscore6vector11LabelSourceEEclB8ue170006EPS3_
__ZNKSt3__114default_deleteIN7gmscore6vector11LabelingJobEEclB8ue170006EPS3_
__ZNKSt3__114default_deleteIN7gmscore6vector20TranslationAnimationEEclB8ue170006EPS3_
__ZNKSt3__114default_deleteIN7gmscore6vector26RankMergingFeatureIteratorEEclB8ue170006EPS3_
__ZNKSt3__114default_deleteIN7gmscore6vector27ClientVectorOpsAreaSubgroupEEclB8ue170006EPS3_
__ZNKSt3__114default_deleteINS_12basic_stringIcNS_11char_traitsIcEENS_9allocatorIcEEEEEclB8ue170006EPS6_
__ZNKSt3__114default_deleteINS_6vectorIjNS_9allocatorIjEEEEEclB8ue170006EPS4_
__ZNKSt3__116__deque_iteratorIN7gmscore5model7Point2DEPS3_RS3_PS4_lLl512EEmiB8ue170006El
__ZNKSt3__116__deque_iteratorIN7gmscore5model7Point2DEPS3_RS3_PS4_lLl512EEplB8ue170006El
__ZNKSt3__119__map_value_compareIN23GMSx_geo_imagery_viewer3api7PhotoIdENS_12__value_typeIS3_iEENS_4lessIS3_EELb1EEclB8ue170006ERKS3_RKS5_
__ZNKSt3__119__map_value_compareIN23GMSx_geo_imagery_viewer3api7PhotoIdENS_12__value_typeIS3_iEENS_4lessIS3_EELb1EEclB8ue170006ERKS5_RKS3_
__ZNKSt3__119__map_value_compareINS_12basic_stringIcNS_11char_traitsIcEENS_9allocatorIcEEEENS_12__value_typeIS6_N7gmscore4base10reffed_ptrINS8_6vector18GLTextureAtlasIconEEEEENS_4lessIS6_EELb1EEclB8ue170006ERKS6_RKSE_
__ZNKSt3__119__map_value_compareINS_12basic_stringIcNS_11char_traitsIcEENS_9allocatorIcEEEENS_12__value_typeIS6_N7gmscore4base10reffed_ptrINS8_6vector18GLTextureAtlasIconEEEEENS_4lessIS6_EELb1EEclB8ue170006ERKSE_RKS6_
__ZNKSt3__120__shared_ptr_pointerIPN23GMSx_geo_imagery_viewer4core5PhotoENS_10shared_ptrIS3_E27__shared_ptr_default_deleteIS3_S3_EENS_9allocatorIS3_EEE13__get_deleterERKSt9type_info
__ZNKSt3__120__shared_ptr_pointerIPN23GMSx_geo_imagery_viewer4pano8MetadataENS_10shared_ptrIS3_E27__shared_ptr_default_deleteIS3_S3_EENS_9allocatorIS3_EEE13__get_deleterERKSt9type_info
__ZNKSt3__120__shared_ptr_pointerIPN7gmscore5model8Region2fENS_10shared_ptrIS3_E27__shared_ptr_default_deleteIS3_S3_EENS_9allocatorIS3_EEE13__get_deleterERKSt9type_info
__ZNKSt3__120__shared_ptr_pointerIPN7gmscore5model9Polygon2fENS_10shared_ptrINS2_8Region2fEE27__shared_ptr_default_deleteIS6_S3_EENS_9allocatorIS3_EEE13__get_deleterERKSt9type_info
__ZNKSt3__120__shared_ptr_pointerIPN7gmscore6vector11LabelSourceENS_10shared_ptrIS3_E27__shared_ptr_default_deleteIS3_S3_EENS_9allocatorIS3_EEE13__get_deleterERKSt9type_info
__ZNKSt3__120__shared_ptr_pointerIPN7gmscore6vector11LabelingJobENS_10shared_ptrIS3_E27__shared_ptr_default_deleteIS3_S3_EENS_9allocatorIS3_EEE13__get_deleterERKSt9type_info
__ZNKSt3__120__shared_ptr_pointerIPN7gmscore6vector11RenderLabelENS_10shared_ptrIS3_E27__shared_ptr_default_deleteIS3_S3_EENS_9allocatorIS3_EEE13__get_deleterERKSt9type_info
__ZNKSt3__120__shared_ptr_pointerIPN7gmscore6vector13GLStrokeLayerENS_10shared_ptrIS3_E27__shared_ptr_default_deleteIS3_S3_EENS_9allocatorIS3_EEE13__get_deleterERKSt9type_info
__ZNKSt3__120__shared_ptr_pointerIPN7gmscore6vector14LabelingParamsENS_10shared_ptrIS3_E27__shared_ptr_default_deleteIS3_S3_EENS_9allocatorIS3_EEE13__get_deleterERKSt9type_info
__ZNKSt3__120__shared_ptr_pointerIPN7gmscore6vector15RenderLineLabelENS_10shared_ptrIS3_E27__shared_ptr_default_deleteIS3_S3_EENS_9allocatorIS3_EEE13__get_deleterERKSt9type_info
__ZNKSt3__120__shared_ptr_pointerIPN7gmscore6vector16MetalDashTextureENS_10shared_ptrIS3_E27__shared_ptr_default_deleteIS3_S3_EENS_9allocatorIS3_EEE13__get_deleterERKSt9type_info
__ZNKSt3__120__shared_ptr_pointerIPN7gmscore6vector16MetalStrokeLayerENS_10shared_ptrIS3_E27__shared_ptr_default_deleteIS3_S3_EENS_9allocatorIS3_EEE13__get_deleterERKSt9type_info
__ZNKSt3__120__shared_ptr_pointerIPN7gmscore6vector16RenderImageLabelENS_10shared_ptrIS3_E27__shared_ptr_default_deleteIS3_S3_EENS_9allocatorIS3_EEE13__get_deleterERKSt9type_info
__ZNKSt3__120__shared_ptr_pointerIPN7gmscore6vector16RenderPointLabelENS_10shared_ptrIS3_E27__shared_ptr_default_deleteIS3_S3_EENS_9allocatorIS3_EEE13__get_deleterERKSt9type_info
__ZNKSt3__120__shared_ptr_pointerIPN7gmscore6vector17TileLabelProviderENS_10shared_ptrIS3_E27__shared_ptr_default_deleteIS3_S3_EENS_9allocatorIS3_EEE13__get_deleterERKSt9type_info
__ZNKSt3__120__shared_ptr_pointerIPN7gmscore6vector19LegacyLabelSnapshotENS_10shared_ptrINS2_13LabelSnapshotEE27__shared_ptr_default_deleteIS6_S3_EENS_9allocatorIS3_EEE13__get_deleterERKSt9type_info
__ZNKSt3__120__shared_ptr_pointerIPN7gmscore6vector19POILabelableFeatureENS_10shared_ptrINS2_16LabelableFeatureEE27__shared_ptr_default_deleteIS6_S3_EENS_9allocatorIS3_EEE13__get_deleterERKSt9type_info
__ZNKSt3__120__shared_ptr_pointerIPN7gmscore6vector19POILabelableFeatureENS_10shared_ptrIS3_E27__shared_ptr_default_deleteIS3_S3_EENS_9allocatorIS3_EEE13__get_deleterERKSt9type_info
__ZNKSt3__120__shared_ptr_pointerIPN7gmscore6vector20ClientVectorOpsGroupENS_10shared_ptrIS3_E27__shared_ptr_default_deleteIS3_S3_EENS_9allocatorIS3_EEE13__get_deleterERKSt9type_info
__ZNKSt3__120__shared_ptr_pointerIPN7gmscore6vector20LineLabelableFeatureENS_10shared_ptrINS2_16LabelableFeatureEE27__shared_ptr_default_deleteIS6_S3_EENS_9allocatorIS3_EEE13__get_deleterERKSt9type_info
__ZNKSt3__120__shared_ptr_pointerIPN7gmscore6vector22RenderLabelElementIconENS_10shared_ptrIS3_E27__shared_ptr_default_deleteIS3_S3_EENS_9allocatorIS3_EEE13__get_deleterERKSt9type_info
__ZNKSt3__120__shared_ptr_pointerIPN7gmscore6vector22RenderLabelElementTextENS_10shared_ptrIS3_E27__shared_ptr_default_deleteIS3_S3_EENS_9allocatorIS3_EEE13__get_deleterERKSt9type_info
__ZNKSt3__120__shared_ptr_pointerIPN7gmscore6vector23CalloutLabelableFeatureENS_10shared_ptrINS2_16LabelableFeatureEE27__shared_ptr_default_deleteIS6_S3_EENS_9allocatorIS3_EEE13__get_deleterERKSt9type_info
__ZNKSt3__120__shared_ptr_pointerIPN7gmscore6vector24CategorizedLabelProviderENS_10shared_ptrIS3_E27__shared_ptr_default_deleteIS3_S3_EENS_9allocatorIS3_EEE13__get_deleterERKSt9type_info
__ZNKSt3__120__shared_ptr_pointerIPN7gmscore6vector25IndoorLabelUpdateDelegateENS_10shared_ptrINS2_19LabelUpdateDelegateEE27__shared_ptr_default_deleteIS6_S3_EENS_9allocatorIS3_EEE13__get_deleterERKSt9type_info
__ZNKSt3__120__shared_ptr_pointerIPN7gmscore6vector25RenderLabelElementTextBoxENS_10shared_ptrINS2_18RenderLabelElementEE27__shared_ptr_default_deleteIS6_S3_EENS_9allocatorIS3_EEE13__get_deleterERKSt9type_info
__ZNKSt3__120__shared_ptr_pointerIPN7gmscore6vector26RankMergingFeatureIteratorENS_10shared_ptrIS3_E27__shared_ptr_default_deleteIS3_S3_EENS_9allocatorIS3_EEE13__get_deleterERKSt9type_info
__ZNKSt3__120__shared_ptr_pointerIPN7gmscore6vector27ClientVectorOpsAreaSubgroupENS_10shared_ptrIS3_E27__shared_ptr_default_deleteIS3_S3_EENS_9allocatorIS3_EEE13__get_deleterERKSt9type_info
__ZNKSt3__120__shared_ptr_pointerIPN7gmscore6vector27LabelingCandidateClassifierENS_10shared_ptrIS3_E27__shared_ptr_default_deleteIS3_S3_EENS_9allocatorIS3_EEE13__get_deleterERKSt9type_info
__ZNKSt3__120__shared_ptr_pointerIPN7gmscore6vector29RenderLabelElementPendingIconENS_10shared_ptrINS2_18RenderLabelElementEE27__shared_ptr_default_deleteIS6_S3_EENS_9allocatorIS3_EEE13__get_deleterERKSt9type_info
__ZNKSt3__120__shared_ptr_pointerIPN7gmscore6vector29RenderLabelElementPlaceholderENS_10shared_ptrINS2_18RenderLabelElementEE27__shared_ptr_default_deleteIS6_S3_EENS_9allocatorIS3_EEE13__get_deleterERKSt9type_info
__ZNKSt3__120__shared_ptr_pointerIPN7gmscore6vector32RenderLabelElementPendingTextBoxENS_10shared_ptrINS2_18RenderLabelElementEE27__shared_ptr_default_deleteIS6_S3_EENS_9allocatorIS3_EEE13__get_deleterERKSt9type_info
__ZNKSt3__120__shared_ptr_pointerIPN7gmscore6vector34BlockBasedLabelableFeatureSelectorENS_10shared_ptrINS2_24LabelableFeatureSelectorEE27__shared_ptr_default_deleteIS6_S3_EENS_9allocatorIS3_EEE13__get_deleterERKSt9type_info
__ZNKSt3__120__shared_ptr_pointerIPN7gmscore6vector38ShallowZoomLevelLabelableFeatureFilterENS_10shared_ptrINS2_24LabelableFeatureSelectorEE27__shared_ptr_default_deleteIS6_S3_EENS_9allocatorIS3_EEE13__get_deleterERKSt9type_info
__ZNKSt3__120__shared_ptr_pointerIPN7gmscore8renderer22MetalTypedBufferObjectINS1_6vector19MetalBuildingVertexEEENS_10shared_ptrIS6_E27__shared_ptr_default_deleteIS6_S6_EENS_9allocatorIS6_EEE13__get_deleterERKSt9type_info
__ZNKSt3__120__shared_ptr_pointerIPN7gmscore8renderer22MetalTypedBufferObjectINS2_13ColoredVertexEEENS_10shared_ptrIS5_E27__shared_ptr_default_deleteIS5_S5_EENS_9allocatorIS5_EEE13__get_deleterERKSt9type_info
__ZNKSt3__120__shared_ptr_pointerIPN7gmscore8renderer22MetalTypedBufferObjectINS2_14TexturedVertexEEENS_10shared_ptrIS5_E27__shared_ptr_default_deleteIS5_S5_EENS_9allocatorIS5_EEE13__get_deleterERKSt9type_info
__ZNKSt3__120__shared_ptr_pointerIPN7gmscore8renderer22MetalTypedBufferObjectItEENS_10shared_ptrIS4_E27__shared_ptr_default_deleteIS4_S4_EENS_9allocatorIS4_EEE13__get_deleterERKSt9type_info
__ZNKSt3__120__shared_ptr_pointerIPN9GMSx_absl5MutexENS_10shared_ptrIS2_E27__shared_ptr_default_deleteIS2_S2_EENS_9allocatorIS2_EEE13__get_deleterERKSt9type_info
__ZNKSt3__120__shared_ptr_pointerIPbNS_10shared_ptrIbE27__shared_ptr_default_deleteIbbEENS_9allocatorIbEEE13__get_deleterERKSt9type_info
__ZNKSt3__121__murmur2_or_cityhashImLm64EEclB8ue170006EPKvm
__ZNKSt3__121__unordered_map_equalINS_12basic_stringIcNS_11char_traitsIcEENS_9allocatorIcEEEENS_17__hash_value_typeIS6_NS_10shared_ptrIN7gmscore6vector24MetalTextureAtlasElementEEEEENS_8equal_toIS6_EENS_4hashIS6_EELb1EEclB8ue170006ERKSD_RKS6_
__ZNKSt3__129_AllocatorDestroyRangeReverseINS_9allocatorIN11GMSx_proto213GMSx_internal17TailCallTableInfo14SkipEntryBlockEEENS_16reverse_iteratorIPS5_EEEclB8ue170006Ev
__ZNKSt3__129_AllocatorDestroyRangeReverseINS_9allocatorIN11GMSx_proto22io7Printer6Format4LineEEENS_16reverse_iteratorIPS6_EEEclB8ue170006Ev
__ZNKSt3__129_AllocatorDestroyRangeReverseINS_9allocatorIN23GMSx_geo_imagery_viewer12platform_ios14ServicesConfig12TileTemplateEEENS_16reverse_iteratorIPS5_EEEclB8ue170006Ev
__ZNKSt3__129_AllocatorDestroyRangeReverseINS_9allocatorIN23GMSx_geo_imagery_viewer12platform_ios14ServicesConfig12TileTemplateEEEPS5_EclB8ue170006Ev
__ZNKSt3__129_AllocatorDestroyRangeReverseINS_9allocatorIN7gmscore5model10LabelGroupEEENS_16reverse_iteratorIPS4_EEEclB8ue170006Ev
__ZNKSt3__129_AllocatorDestroyRangeReverseINS_9allocatorIN7gmscore5model10Polyline2DEEENS_16reverse_iteratorIPS4_EEEclB8ue170006Ev
__ZNKSt3__129_AllocatorDestroyRangeReverseINS_9allocatorIN7gmscore5model10Polyline2DEEEPS4_EclB8ue170006Ev
__ZNKSt3__129_AllocatorDestroyRangeReverseINS_9allocatorIN7gmscore5model12LabelElementEEENS_16reverse_iteratorIPS4_EEEclB8ue170006Ev
__ZNKSt3__129_AllocatorDestroyRangeReverseINS_9allocatorIN7gmscore5model12LabelElementEEEPS4_EclB8ue170006Ev
__ZNKSt3__129_AllocatorDestroyRangeReverseINS_9allocatorIN7gmscore5model6StrokeEEENS_16reverse_iteratorIPS4_EEEclB8ue170006Ev
__ZNKSt3__129_AllocatorDestroyRangeReverseINS_9allocatorIN7gmscore5model6StrokeEEEPS4_EclB8ue170006Ev
__ZNKSt3__129_AllocatorDestroyRangeReverseINS_9allocatorIN7gmscore5model9Clipper2D10ClipResultEEENS_16reverse_iteratorIPS5_EEEclB8ue170006Ev
__ZNKSt3__129_AllocatorDestroyRangeReverseINS_9allocatorIN7gmscore6vector13GLStrokeLayer17LineAttributeInfoEEENS_16reverse_iteratorIPS5_EEEclB8ue170006Ev
__ZNKSt3__129_AllocatorDestroyRangeReverseINS_9allocatorIN7gmscore6vector13NinePatchInfoEEENS_16reverse_iteratorIPS4_EEEclB8ue170006Ev
__ZNKSt3__129_AllocatorDestroyRangeReverseINS_9allocatorIN7gmscore6vector14AnimatedValuesEEENS_16reverse_iteratorIPS4_EEEclB8ue170006Ev
__ZNKSt3__129_AllocatorDestroyRangeReverseINS_9allocatorIN7gmscore6vector14MarkupPolylineEEENS_16reverse_iteratorIPS4_EEEclB8ue170006Ev
__ZNKSt3__129_AllocatorDestroyRangeReverseINS_9allocatorIN7gmscore6vector14MarkupPolylineEEEPS4_EclB8ue170006Ev
__ZNKSt3__129_AllocatorDestroyRangeReverseINS_9allocatorIN7gmscore6vector18PolylineSimplifier14SimplifyResultEEENS_16reverse_iteratorIPS5_EEEclB8ue170006Ev
__ZNKSt3__129_AllocatorDestroyRangeReverseINS_9allocatorIN7gmscore6vector18PolylineSimplifierEEENS_16reverse_iteratorIPS4_EEEclB8ue170006Ev
__ZNKSt3__129_AllocatorDestroyRangeReverseINS_9allocatorIN7gmscore6vector28GMSGeneratedTextureAtlasInfoEEENS_16reverse_iteratorIPS4_EEEclB8ue170006Ev
__ZNKSt3__129_AllocatorDestroyRangeReverseINS_9allocatorIN7gmscore6vector9AreaGroup10AreaSubsetEEENS_16reverse_iteratorIPS5_EEEclB8ue170006Ev
__ZNKSt3__129_AllocatorDestroyRangeReverseINS_9allocatorIN9GMSx_absl16UnrecognizedFlagEEENS_16reverse_iteratorIPS3_EEEclB8ue170006Ev
__ZNKSt3__129_AllocatorDestroyRangeReverseINS_9allocatorINS_10unique_ptrIKN11GMSx_proto219FileDescriptorProtoENS_14default_deleteIS5_EEEEEENS_16reverse_iteratorIPS8_EEEclB8ue170006Ev
__ZNKSt3__129_AllocatorDestroyRangeReverseINS_9allocatorINS_10unique_ptrIN11GMSx_proto210TextFormat13ParseInfoTreeENS_14default_deleteIS5_EEEEEENS_16reverse_iteratorIPS8_EEEclB8ue170006Ev
__ZNKSt3__129_AllocatorDestroyRangeReverseINS_9allocatorINS_10unique_ptrIiN11GMSx_proto214DescriptorPool6Tables11MiscDeleterEEEEENS_16reverse_iteratorIPS7_EEEclB8ue170006Ev
__ZNKSt3__129_AllocatorDestroyRangeReverseINS_9allocatorINS_12basic_stringIcNS_11char_traitsIcEENS1_IcEEEEEENS_16reverse_iteratorIPS6_EEEclB8ue170006Ev
__ZNKSt3__129_AllocatorDestroyRangeReverseINS_9allocatorINS_12basic_stringIcNS_11char_traitsIcEENS1_IcEEEEEEPS6_EclB8ue170006Ev
__ZNKSt3__129_AllocatorDestroyRangeReverseINS_9allocatorINS_3mapIijNS_4lessIiEENS1_INS_4pairIKijEEEEEEEENS_16reverse_iteratorIPS9_EEEclB8ue170006Ev
__ZNKSt3__129_AllocatorDestroyRangeReverseINS_9allocatorINS_4pairINS2_ImmEENS_12basic_stringIcNS_11char_traitsIcEENS1_IcEEEEEEEENS_16reverse_iteratorIPS9_EEEclB8ue170006Ev
__ZNKSt3__129_AllocatorDestroyRangeReverseINS_9allocatorINS_4pairINS_10shared_ptrIN7gmscore6vector11LabelSourceEEENS3_INS4_5model12Collidable2DEEEEEEENS_16reverse_iteratorIPSB_EEEclB8ue170006Ev
__ZNKSt3__129_AllocatorDestroyRangeReverseINS_9allocatorINS_4pairINS_10shared_ptrIN7gmscore6vector11LabelSourceEEENS3_INS4_5model12Collidable2DEEEEEEEPSB_EclB8ue170006Ev
__ZNKSt3__129_AllocatorDestroyRangeReverseINS_9allocatorINS_4pairINS_12basic_stringIcNS_11char_traitsIcEENS1_IcEEEES7_EEEENS_16reverse_iteratorIPS8_EEEclB8ue170006Ev
__ZNKSt3__129_AllocatorDestroyRangeReverseINS_9allocatorINS_4pairINS_12basic_stringIcNS_11char_traitsIcEENS1_IcEEEEbEEEEPS8_EclB8ue170006Ev
__ZNKSt3__129_AllocatorDestroyRangeReverseINS_9allocatorINS_4pairIPK8__CTFontNS_6vectorItNS1_ItEEEEEEEENS_16reverse_iteratorIPS9_EEEclB8ue170006Ev
__ZNKSt3__129_AllocatorDestroyRangeReverseINS_9allocatorINS_6vectorI10GMSPoint2DNS1_IS3_EEEEEENS_16reverse_iteratorIPS5_EEEclB8ue170006Ev
__ZNKSt3__129_AllocatorDestroyRangeReverseINS_9allocatorINS_6vectorIN7gmscore4base10reffed_ptrINS3_6vector6SpriteEEENS1_IS8_EEEEEENS_16reverse_iteratorIPSA_EEEclB8ue170006Ev
__ZNKSt3__129_AllocatorDestroyRangeReverseINS_9allocatorINS_6vectorIN7gmscore4base10reffed_ptrINS3_8renderer21SafeVBOWithAttributesINS3_6vector22GMSLineStampAttributesEEEEENS1_ISB_EEEEEENS_16reverse_iteratorIPSD_EEEclB8ue170006Ev
__ZNKSt3__129_AllocatorDestroyRangeReverseINS_9allocatorINS_6vectorIN7gmscore4base10reffed_ptrINS3_8renderer21SafeVBOWithAttributesINS3_6vector24GMSLineConsumeAttributesEEEEENS1_ISB_EEEEEENS_16reverse_iteratorIPSD_EEEclB8ue170006Ev
__ZNKSt3__129_AllocatorDestroyRangeReverseINS_9allocatorINS_6vectorIN7gmscore4base10reffed_ptrINS3_8renderer21SafeVBOWithAttributesINS3_6vector24GMSLineStippleAttributesEEEEENS1_ISB_EEEEEENS_16reverse_iteratorIPSD_EEEclB8ue170006Ev
__ZNKSt3__129_AllocatorDestroyRangeReverseINS_9allocatorINS_6vectorIN7gmscore4base10reffed_ptrINS3_8renderer21SafeVBOWithAttributesINS3_6vector30GMSLineColorAndWidthAttributesEEEEENS1_ISB_EEEEEENS_16reverse_iteratorIPSD_EEEclB8ue170006Ev
__ZNKSt3__129_AllocatorDestroyRangeReverseINS_9allocatorINS_6vectorIN7gmscore5model10Polyline2DENS1_IS5_EEEEEENS_16reverse_iteratorIPS7_EEEclB8ue170006Ev
__ZNKSt3__129_AllocatorDestroyRangeReverseINS_9allocatorINS_6vectorIN7gmscore5model7Point2DENS1_IS5_EEEEEENS_16reverse_iteratorIPS7_EEEclB8ue170006Ev
__ZNKSt3__129_AllocatorDestroyRangeReverseINS_9allocatorINS_6vectorIN7gmscore6vector13GLStrokeLayer22LineAllStyleAttributesENS1_IS6_EEEEEENS_16reverse_iteratorIPS8_EEEclB8ue170006Ev
__ZNKSt3__129_AllocatorDestroyRangeReverseINS_9allocatorINS_6vectorIN7gmscore6vector9ColorSpanENS1_IS5_EEEEEENS_16reverse_iteratorIPS7_EEEclB8ue170006Ev
__ZNKSt3__129_AllocatorDestroyRangeReverseINS_9allocatorINS_6vectorINS_10shared_ptrIN7gmscore6vector16LabelableFeatureEEENS1_IS7_EEEEEENS_16reverse_iteratorIPS9_EEEclB8ue170006Ev
__ZNKSt3__129_AllocatorDestroyRangeReverseINS_9allocatorINS_6vectorINS_10shared_ptrIN7gmscore6vector18RenderLabelElementEEENS1_IS7_EEEEEENS_16reverse_iteratorIPS9_EEEclB8ue170006Ev
__ZNKSt3__129_AllocatorDestroyRangeReverseINS_9allocatorINS_6vectorINS_10shared_ptrIN7gmscore6vector18RenderLabelElementEEENS1_IS7_EEEEEEPS9_EclB8ue170006Ev
__ZNKSt3__129_AllocatorDestroyRangeReverseINS_9allocatorINS_6vectorINS_3mapIijNS_4lessIiEENS1_INS_4pairIKijEEEEEENS1_ISA_EEEEEENS_16reverse_iteratorIPSC_EEEclB8ue170006Ev
__ZNKSt3__129_AllocatorDestroyRangeReverseINS_9allocatorINS_6vectorIPKN11GMSx_proto215FieldDescriptorENS1_IS6_EEEEEENS_16reverse_iteratorIPS8_EEEclB8ue170006Ev
__ZNKSt3__129_AllocatorDestroyRangeReverseINS_9allocatorINS_6vectorIPKN11GMSx_proto215FieldDescriptorENS1_IS6_EEEEEEPS8_EclB8ue170006Ev
__ZNKSt3__129_AllocatorDestroyRangeReverseINS_9allocatorINS_6vectorIPKvNS1_IS4_EEEEEENS_16reverse_iteratorIPS6_EEEclB8ue170006Ev
__ZNKSt3__129_AllocatorDestroyRangeReverseINS_9allocatorINS_6vectorIfNS1_IfEEEEEENS_16reverse_iteratorIPS4_EEEclB8ue170006Ev
__ZNKSt3__129_AllocatorDestroyRangeReverseINS_9allocatorINS_6vectorIiNS1_IiEEEEEENS_16reverse_iteratorIPS4_EEEclB8ue170006Ev
__ZNKSt3__129_AllocatorDestroyRangeReverseINS_9allocatorINS_8functionIFNS_8optionalIN11GMSx_proto22io7Printer16AnnotationRecordEEEN9GMSx_absl11string_viewEEEEEENS_16reverse_iteratorIPSC_EEEclB8ue170006Ev
__ZNKSt3__129_AllocatorDestroyRangeReverseINS_9allocatorINS_8functionIFNS_8optionalIN11GMSx_proto22io7Printer9ValueImplILb0EEEEEN9GMSx_absl11string_viewEEEEEENS_16reverse_iteratorIPSD_EEEclB8ue170006Ev
__ZNKSt3__129_AllocatorDestroyRangeReverseINS_9allocatorINS_8functionIFvvEEEEENS_16reverse_iteratorIPS4_EEEclB8ue170006Ev
__ZNKSt3__14lessIN23GMSx_geo_imagery_viewer3api7PhotoIdEEclB8ue170006ERKS3_S6_
__ZNKSt3__14lessIN9GMSx_absl11string_viewEEclB8ue170006ERKS2_S5_
__ZNKSt3__14lessINS_12basic_stringIcNS_11char_traitsIcEENS_9allocatorIcEEEEEclB8ue170006ERKS6_S9_
__ZNKSt3__14lessINS_4pairINS_12basic_stringIcNS_11char_traitsIcEENS_9allocatorIcEEEEiEEEclB8ue170006ERKS8_SB_
__ZNKSt3__14lessIvEclB8ue170006IRKN9GMSx_absl11string_viewES6_EEDTltclsr3stdE7forwardIT_Efp_Eclsr3stdE7forwardIT0_Efp0_EEOS7_OS8_
__ZNKSt3__16__lessIvvEclB8ue170006IN9GMSx_absl11string_viewES4_EEbRKT_RKT0_
__ZNKSt3__16__lessIvvEclB8ue170006INS_12basic_stringIcNS_11char_traitsIcEENS_9allocatorIcEEEES8_EEbRKT_RKT0_
__ZNKSt3__16vectorI10GMSPoint2DNS_9allocatorIS1_EEE20__throw_length_errorB8ue170006Ev
__ZNKSt3__16vectorI12GMSFeatureIDNS_9allocatorIS1_EEE20__throw_length_errorB8ue170006Ev
__ZNKSt3__16vectorI13GMSCoordinateNS_9allocatorIS1_EEE20__throw_length_errorB8ue170006Ev
__ZNKSt3__16vectorI13GMSx_S2CellIdNS_9allocatorIS1_EEE20__throw_length_errorB8ue170006Ev
__ZNKSt3__16vectorI20CalloutArrowPositionNS_9allocatorIS1_EEE20__throw_length_errorB8ue170006Ev
__ZNKSt3__16vectorI21GMSLazyMultiZoomStyleNS_9allocatorIS1_EEE20__throw_length_errorB8ue170006Ev
__ZNKSt3__16vectorI22CLLocationCoordinate2DNS_9allocatorIS1_EEE20__throw_length_errorB8ue170006Ev
__ZNKSt3__16vectorI24GMSx_CommandLineFlagInfoNS_9allocatorIS1_EEE20__throw_length_errorB8ue170006Ev
__ZNKSt3__16vectorI6CGRectNS_9allocatorIS1_EEE20__throw_length_errorB8ue170006Ev
__ZNKSt3__16vectorI7CGPointNS_9allocatorIS1_EEE20__throw_length_errorB8ue170006Ev
__ZNKSt3__16vectorI9GMSPassIDNS_9allocatorIS1_EEE20__throw_length_errorB8ue170006Ev
__ZNKSt3__16vectorIDv2_fNS_9allocatorIS1_EEE20__throw_length_errorB8ue170006Ev
__ZNKSt3__16vectorIDv4_hNS_9allocatorIS1_EEE20__throw_length_errorB8ue170006Ev
__ZNKSt3__16vectorIN11GMSx_mathfu12VectorPackedIfLi3EEENS_9allocatorIS3_EEE20__throw_length_errorB8ue170006Ev
__ZNKSt3__16vectorIN11GMSx_mathfu6MatrixIdLi4ELi4EEENS_9allocatorIS3_EEE20__throw_length_errorB8ue170006Ev
__ZNKSt3__16vectorIN11GMSx_mathfu6VectorIdLi3EEENS_9allocatorIS3_EEE20__throw_length_errorB8ue170006Ev
__ZNKSt3__16vectorIN11GMSx_mathfu6VectorIfLi3EEENS_9allocatorIS3_EEE20__throw_length_errorB8ue170006Ev
__ZNKSt3__16vectorIN11GMSx_proto210TextFormat18ParseLocationRangeENS_9allocatorIS3_EEE20__throw_length_errorB8ue170006Ev
__ZNKSt3__16vectorIN11GMSx_proto213GMSx_internal17TailCallTableInfo12FieldOptionsENS_9allocatorIS4_EEE20__throw_length_errorB8ue170006Ev
__ZNKSt3__16vectorIN11GMSx_proto213GMSx_internal17TailCallTableInfo13FastFieldInfoENS_9allocatorIS4_EEE20__throw_length_errorB8ue170006Ev
__ZNKSt3__16vectorIN11GMSx_proto213GMSx_internal17TailCallTableInfo14FieldEntryInfoENS_9allocatorIS4_EEE20__throw_length_errorB8ue170006Ev
__ZNKSt3__16vectorIN11GMSx_proto213GMSx_internal17TailCallTableInfo14SkipEntryBlockENS_9allocatorIS4_EEE20__throw_length_errorB8ue170006Ev
__ZNKSt3__16vectorIN11GMSx_proto213GMSx_internal17TailCallTableInfo8AuxEntryENS_9allocatorIS4_EEE20__throw_length_errorB8ue170006Ev
__ZNKSt3__16vectorIN11GMSx_proto214DescriptorPool18DeferredValidation13LifetimesInfoENS_9allocatorIS4_EEE20__throw_length_errorB8ue170006Ev
__ZNKSt3__16vectorIN11GMSx_proto214DescriptorPool6Tables10CheckPointENS_9allocatorIS4_EEE20__throw_length_errorB8ue170006Ev
__ZNKSt3__16vectorIN11GMSx_proto225EncodedDescriptorDatabase15DescriptorIndex11SymbolEntryENS_9allocatorIS4_EEE20__throw_length_errorB8ue170006Ev
__ZNKSt3__16vectorIN11GMSx_proto225EncodedDescriptorDatabase15DescriptorIndex12EncodedEntryENS_9allocatorIS4_EEE20__throw_length_errorB8ue170006Ev
__ZNKSt3__16vectorIN11GMSx_proto225EncodedDescriptorDatabase15DescriptorIndex14ExtensionEntryENS_9allocatorIS4_EEE20__throw_length_errorB8ue170006Ev
__ZNKSt3__16vectorIN11GMSx_proto225EncodedDescriptorDatabase15DescriptorIndex9FileEntryENS_9allocatorIS4_EEE20__throw_length_errorB8ue170006Ev
__ZNKSt3__16vectorIN11GMSx_proto227FieldOptions_EditionDefaultENS_9allocatorIS2_EEE20__throw_length_errorB8ue170006Ev
__ZNKSt3__16vectorIN11GMSx_proto22io7Printer6Format4LineENS_9allocatorIS5_EEE20__throw_length_errorB8ue170006Ev
__ZNKSt3__16vectorIN11GMSx_proto22io7Printer6Format5ChunkENS_9allocatorIS5_EEE20__throw_length_errorB8ue170006Ev
__ZNKSt3__16vectorIN11GMSx_proto26MapKeyENS_9allocatorIS2_EEE20__throw_length_errorB8ue170006Ev
__ZNKSt3__16vectorIN11GMSx_proto26SymbolENS_9allocatorIS2_EEE20__throw_length_errorB8ue170006Ev
__ZNKSt3__16vectorIN11GMSx_proto29GMSx_util18MessageDifferencer13SpecificFieldENS_9allocatorIS4_EEE20__throw_length_errorB8ue170006Ev
__ZNKSt3__16vectorIN12GMSx_mapcore7labeler17PlacedLabelUpdateENS_9allocatorIS3_EEE20__throw_length_errorB8ue170006Ev
__ZNKSt3__16vectorIN12GMSx_strings12HostPortPairENS_9allocatorIS2_EEE20__throw_length_errorB8ue170006Ev
__ZNKSt3__16vectorIN20GMSx_ShardedLRUCacheIN7gmscore6vector13CTLineBuilder12FontCacheKeyENS2_4base16scoped_cftyperefIPK8__CTFontEEN9GMSx_absl13hash_internal4HashIS5_EE19GMSx_SimpleLRUCacheIS5_SB_SF_NS_8equal_toIS5_EEN9GMSx_util5cache15CycleClockTimerEEE5ShardENS_9allocatorISO_EEE20__throw_length_errorB8ue170006Ev
__ZNKSt3__16vectorIN20GMSx_ShardedLRUCacheIN7gmscore6vector13CTLineBuilder12LineCacheKeyENS2_4base16scoped_cftyperefIPK8__CTLineEEN9GMSx_absl13hash_internal4HashIS5_EE19GMSx_SimpleLRUCacheIS5_SB_SF_NS_8equal_toIS5_EEN9GMSx_util5cache15CycleClockTimerEEE5ShardENS_9allocatorISO_EEE20__throw_length_errorB8ue170006Ev
__ZNKSt3__16vectorIN22GMSx_maps_paint_client18RenderOpAnnotationENS_9allocatorIS2_EEE20__throw_length_errorB8ue170006Ev
__ZNKSt3__16vectorIN23GMSx_geo_imagery_viewer12platform_ios14ServicesConfig12TileTemplateENS_9allocatorIS4_EEE20__throw_length_errorB8ue170006Ev
__ZNKSt3__16vectorIN23GMSx_geo_imagery_viewer3api10IconHandleENS_9allocatorIS3_EEE20__throw_length_errorB8ue170006Ev
__ZNKSt3__16vectorIN23GMSx_geo_imagery_viewer4math5RangeIdLi2EEENS_9allocatorIS4_EEE20__throw_length_errorB8ue170006Ev
__ZNKSt3__16vectorIN23GMSx_geo_imagery_viewer5swipe11PhotoVertexENS_9allocatorIS3_EEE20__throw_length_errorB8ue170006Ev
__ZNKSt3__16vectorIN23GMSx_geo_imagery_viewer7impress5PlaneENS_9allocatorIS3_EEE20__throw_length_errorB8ue170006Ev
__ZNKSt3__16vectorIN23GMSx_geo_imagery_viewer7overlay13NodeCandidateENS_9allocatorIS3_EEE20__throw_length_errorB8ue170006Ev
__ZNKSt3__16vectorIN23GMSx_geo_imagery_viewer7overlay15IconManagerImpl10PickedIconENS_9allocatorIS4_EEE20__throw_length_errorB8ue170006Ev
__ZNKSt3__16vectorIN23GMSx_geo_imagery_viewer7overlay15IconManagerImpl8IconDataENS_9allocatorIS4_EEE20__throw_length_errorB8ue170006Ev
__ZNKSt3__16vectorIN23GMSx_geo_imagery_viewer7overlay16RoadLabelManager17PreparedRoadLabelENS_9allocatorIS4_EEE20__throw_length_errorB8ue170006Ev
__ZNKSt3__16vectorIN27GMSx_program_image_remapper19GMSx_classification7SectionENS_9allocatorIS3_EEE20__throw_length_errorB8ue170006Ev
__ZNKSt3__16vectorIN4base15GMSx_scheduling14QueuedFunctionENS_9allocatorIS3_EEE20__throw_length_errorB8ue170006Ev
__ZNKSt3__16vectorIN4simd8float4x4ENS_9allocatorIS2_EEE20__throw_length_errorB8ue170006Ev
__ZNKSt3__16vectorIN7gmscore4base10reffed_ptrINS1_6vector12FeatureGroupEEENS_9allocatorIS6_EEE20__throw_length_errorB8ue170006Ev
__ZNKSt3__16vectorIN7gmscore4base10reffed_ptrINS1_6vector12MutableStateEEENS_9allocatorIS6_EEE20__throw_length_errorB8ue170006Ev
__ZNKSt3__16vectorIN7gmscore4base10reffed_ptrINS1_6vector16GLBaseLabelBatchEEENS_9allocatorIS6_EEE20__throw_length_errorB8ue170006Ev
__ZNKSt3__16vectorIN7gmscore4base10reffed_ptrINS1_6vector17GMSMarkupInstanceEEENS_9allocatorIS6_EEE20__throw_length_errorB8ue170006Ev
__ZNKSt3__16vectorIN7gmscore4base10reffed_ptrINS1_6vector18TextureAtlasLayoutEEENS_9allocatorIS6_EEE20__throw_length_errorB8ue170006Ev
__ZNKSt3__16vectorIN7gmscore4base10reffed_ptrINS1_6vector19BuildingGroupSubsetEEENS_9allocatorIS6_EEE20__throw_length_errorB8ue170006Ev
__ZNKSt3__16vectorIN7gmscore4base10reffed_ptrINS1_6vector19MutableTextureAtlasEEENS_9allocatorIS6_EEE20__throw_length_errorB8ue170006Ev
__ZNKSt3__16vectorIN7gmscore4base10reffed_ptrINS1_6vector19MyLocationIndicatorEEENS_9allocatorIS6_EEE20__throw_length_errorB8ue170006Ev
__ZNKSt3__16vectorIN7gmscore4base10reffed_ptrINS1_6vector19TextureAtlasElementEEENS_9allocatorIS6_EEE20__throw_length_errorB8ue170006Ev
__ZNKSt3__16vectorIN7gmscore4base10reffed_ptrINS1_6vector24GMSGeneratedTextureAtlasEEENS_9allocatorIS6_EEE20__throw_length_errorB8ue170006Ev
__ZNKSt3__16vectorIN7gmscore4base10reffed_ptrINS1_6vector28GMSTexturedStrokeShaderStateEEENS_9allocatorIS6_EEE20__throw_length_errorB8ue170006Ev
__ZNKSt3__16vectorIN7gmscore4base10reffed_ptrINS1_6vector4text13MetalGlyphSetEEENS_9allocatorIS7_EEE20__throw_length_errorB8ue170006Ev
__ZNKSt3__16vectorIN7gmscore4base10reffed_ptrINS1_6vector4text17TextureAtlasGlyphEEENS_9allocatorIS7_EEE20__throw_length_errorB8ue170006Ev
__ZNKSt3__16vectorIN7gmscore4base10reffed_ptrINS1_6vector4text20RenderableGlyphGroupEEENS_9allocatorIS7_EEE20__throw_length_errorB8ue170006Ev
__ZNKSt3__16vectorIN7gmscore4base10reffed_ptrINS1_6vector4text8BaseTextEEENS_9allocatorIS7_EEE20__throw_length_errorB8ue170006Ev
__ZNKSt3__16vectorIN7gmscore4base10reffed_ptrINS1_6vector4text8GlyphSetEEENS_9allocatorIS7_EEE20__throw_length_errorB8ue170006Ev
__ZNKSt3__16vectorIN7gmscore4base10reffed_ptrINS1_6vector6SpriteEEENS_9allocatorIS6_EEE20__throw_length_errorB8ue170006Ev
__ZNKSt3__16vectorIN7gmscore4base10reffed_ptrINS1_8renderer10BaseEntityEEENS_9allocatorIS6_EEE20__throw_length_errorB8ue170006Ev
__ZNKSt3__16vectorIN7gmscore4base10reffed_ptrINS1_8renderer10VertexDataEEENS_9allocatorIS6_EEE20__throw_length_errorB8ue170006Ev
__ZNKSt3__16vectorIN7gmscore4base10reffed_ptrINS1_8renderer12PolygonStateEEENS_9allocatorIS6_EEE20__throw_length_errorB8ue170006Ev
__ZNKSt3__16vectorIN7gmscore4base10reffed_ptrINS1_8renderer12PolygonStateEEENS_9allocatorIS6_EEE20__throw_out_of_rangeB8ue170006Ev
__ZNKSt3__16vectorIN7gmscore4base10reffed_ptrINS1_8renderer16AlphaShaderStateEEENS_9allocatorIS6_EEE20__throw_length_errorB8ue170006Ev
__ZNKSt3__16vectorIN7gmscore4base10reffed_ptrINS1_8renderer17VBOWithAttributesEEENS_9allocatorIS6_EEE20__throw_length_errorB8ue170006Ev
__ZNKSt3__16vectorIN7gmscore4base10reffed_ptrINS1_8renderer17VertexArrayObjectEEENS_9allocatorIS6_EEE20__throw_length_errorB8ue170006Ev
__ZNKSt3__16vectorIN7gmscore4base10reffed_ptrINS1_8renderer21SafeVBOWithAttributesINS1_6vector22GMSLineStampAttributesEEEEENS_9allocatorIS9_EEE20__throw_length_errorB8ue170006Ev
__ZNKSt3__16vectorIN7gmscore4base10reffed_ptrINS1_8renderer21SafeVBOWithAttributesINS1_6vector24GMSLineConsumeAttributesEEEEENS_9allocatorIS9_EEE20__throw_length_errorB8ue170006Ev
__ZNKSt3__16vectorIN7gmscore4base10reffed_ptrINS1_8renderer21SafeVBOWithAttributesINS1_6vector24GMSLineStippleAttributesEEEEENS_9allocatorIS9_EEE20__throw_length_errorB8ue170006Ev
__ZNKSt3__16vectorIN7gmscore4base10reffed_ptrINS1_8renderer21SafeVBOWithAttributesINS1_6vector30GMSLineColorAndWidthAttributesEEEEENS_9allocatorIS9_EEE20__throw_length_errorB8ue170006Ev
__ZNKSt3__16vectorIN7gmscore4base10reffed_ptrINS1_8renderer27DistanceConsumedShaderStateEEENS_9allocatorIS6_EEE20__throw_length_errorB8ue170006Ev
__ZNKSt3__16vectorIN7gmscore4base10reffed_ptrINS1_8renderer8BehaviorEEENS_9allocatorIS6_EEE20__throw_length_errorB8ue170006Ev
__ZNKSt3__16vectorIN7gmscore4base16scoped_cftyperefIP9CGContextEENS_9allocatorIS6_EEE20__throw_length_errorB8ue170006Ev
__ZNKSt3__16vectorIN7gmscore4math8Vector2fENS_9allocatorIS3_EEE20__throw_length_errorB8ue170006Ev
__ZNKSt3__16vectorIN7gmscore5model10LabelGroupENS_9allocatorIS3_EEE20__throw_length_errorB8ue170006Ev
__ZNKSt3__16vectorIN7gmscore5model10Polyline2DENS_9allocatorIS3_EEE20__throw_length_errorB8ue170006Ev
__ZNKSt3__16vectorIN7gmscore5model10Triangle2DENS_9allocatorIS3_EEE20__throw_length_errorB8ue170006Ev
__ZNKSt3__16vectorIN7gmscore5model11Rectangle2DENS_9allocatorIS3_EEE20__throw_length_errorB8ue170006Ev
__ZNKSt3__16vectorIN7gmscore5model11Rectangle2fENS_9allocatorIS3_EEE20__throw_length_errorB8ue170006Ev
__ZNKSt3__16vectorIN7gmscore5model12LabelElementENS_9allocatorIS3_EEE20__throw_length_errorB8ue170006Ev
__ZNKSt3__16vectorIN7gmscore5model14GLUTessellator8Vector3dENS_9allocatorIS4_EEE20__throw_length_errorB8ue170006Ev
__ZNKSt3__16vectorIN7gmscore5model14Point2DSegmentENS_9allocatorIS3_EEE20__throw_length_errorB8ue170006Ev
__ZNKSt3__16vectorIN7gmscore5model14PolylineSpan2DENS_9allocatorIS3_EEE20__throw_length_errorB8ue170006Ev
__ZNKSt3__16vectorIN7gmscore5model15stripified_mesh12NormalVectorENS_9allocatorIS4_EEE20__throw_length_errorB8ue170006Ev
__ZNKSt3__16vectorIN7gmscore5model16AbsolutePositionENS_9allocatorIS3_EEE20__throw_length_errorB8ue170006Ev
__ZNKSt3__16vectorIN7gmscore5model6StrokeENS_9allocatorIS3_EEE20__throw_length_errorB8ue170006Ev
__ZNKSt3__16vectorIN7gmscore5model7Point2DENS_9allocatorIS3_EEE20__throw_length_errorB8ue170006Ev
__ZNKSt3__16vectorIN7gmscore5model7Point2DENS_9allocatorIS3_EEE20__throw_out_of_rangeB8ue170006Ev
__ZNKSt3__16vectorIN7gmscore5model7Point3DENS_9allocatorIS3_EEE20__throw_length_errorB8ue170006Ev
__ZNKSt3__16vectorIN7gmscore5model9AlignmentENS_9allocatorIS3_EEE20__throw_length_errorB8ue170006Ev
__ZNKSt3__16vectorIN7gmscore5model9Clipper2D10ClipResultENS_9allocatorIS4_EEE20__throw_length_errorB8ue170006Ev
__ZNKSt3__16vectorIN7gmscore5model9Frustum2DENS_9allocatorIS3_EEE20__throw_length_errorB8ue170006Ev
__ZNKSt3__16vectorIN7gmscore6vector12ColoredPointENS_9allocatorIS3_EEE20__throw_length_errorB8ue170006Ev
__ZNKSt3__16vectorIN7gmscore6vector13GLStrokeLayer17LineAttributeInfoENS_9allocatorIS4_EEE20__throw_length_errorB8ue170006Ev
__ZNKSt3__16vectorIN7gmscore6vector13GLStrokeLayer22LineAllStyleAttributesENS_9allocatorIS4_EEE20__throw_length_errorB8ue170006Ev
__ZNKSt3__16vectorIN7gmscore6vector13LabelProvider19LabelCandidateBatchENS_9allocatorIS4_EEE20__throw_length_errorB8ue170006Ev
__ZNKSt3__16vectorIN7gmscore6vector13NinePatchInfo6RegionENS_9allocatorIS4_EEE20__throw_length_errorB8ue170006Ev
__ZNKSt3__16vectorIN7gmscore6vector13NinePatchInfoENS_9allocatorIS3_EEE20__throw_length_errorB8ue170006Ev
__ZNKSt3__16vectorIN7gmscore6vector14AnimatedValues13AnimatedValueENS_9allocatorIS4_EEE20__throw_length_errorB8ue170006Ev
__ZNKSt3__16vectorIN7gmscore6vector14AnimatedValuesENS_9allocatorIS3_EEE20__throw_length_errorB8ue170006Ev
__ZNKSt3__16vectorIN7gmscore6vector14ColorPairPointENS_9allocatorIS3_EEE20__throw_length_errorB8ue170006Ev
__ZNKSt3__16vectorIN7gmscore6vector14MarkupPolylineENS_9allocatorIS3_EEE20__throw_length_errorB8ue170006Ev
__ZNKSt3__16vectorIN7gmscore6vector16ColoredTextStyleENS_9allocatorIS3_EEE20__throw_length_errorB8ue170006Ev
__ZNKSt3__16vectorIN7gmscore6vector17GMSMarkupBehavior17InstanceOperationENS_9allocatorIS4_EEE20__throw_length_errorB8ue170006Ev
__ZNKSt3__16vectorIN7gmscore6vector17PlaceholderUpdateENS_9allocatorIS3_EEE20__throw_length_errorB8ue170006Ev
__ZNKSt3__16vectorIN7gmscore6vector17PolylineVertexSetENS_9allocatorIS3_EEE20__throw_length_errorB8ue170006Ev
__ZNKSt3__16vectorIN7gmscore6vector18PolylineSimplifier10ActionDataENS_9allocatorIS4_EEE20__throw_length_errorB8ue170006Ev
__ZNKSt3__16vectorIN7gmscore6vector18PolylineSimplifier14SimplifyResultENS_9allocatorIS4_EEE20__throw_length_errorB8ue170006Ev
__ZNKSt3__16vectorIN7gmscore6vector18PolylineSimplifier9PointDataENS_9allocatorIS4_EEE20__throw_length_errorB8ue170006Ev
__ZNKSt3__16vectorIN7gmscore6vector18PolylineSimplifierENS_9allocatorIS3_EEE20__throw_length_errorB8ue170006Ev
__ZNKSt3__16vectorIN7gmscore6vector18TextureAtlasRegionENS_9allocatorIS3_EEE20__throw_length_errorB8ue170006Ev
__ZNKSt3__16vectorIN7gmscore6vector22GMSLineStampAttributesENS_9allocatorIS3_EEE20__throw_length_errorB8ue170006Ev
__ZNKSt3__16vectorIN7gmscore6vector22TexturedDistanceVertexENS_9allocatorIS3_EEE20__throw_length_errorB8ue170006Ev
__ZNKSt3__16vectorIN7gmscore6vector23ClientVectorOpsBehavior16PendingOperationENS_9allocatorIS4_EEE20__throw_length_errorB8ue170006Ev
__ZNKSt3__16vectorIN7gmscore6vector24GMSLineConsumeAttributesENS_9allocatorIS3_EEE20__throw_length_errorB8ue170006Ev
__ZNKSt3__16vectorIN7gmscore6vector24GMSLineStippleAttributesENS_9allocatorIS3_EEE20__throw_length_errorB8ue170006Ev
__ZNKSt3__16vectorIN7gmscore6vector28GMSGeneratedTextureAtlasInfoENS_9allocatorIS3_EEE20__throw_length_errorB8ue170006Ev
__ZNKSt3__16vectorIN7gmscore6vector30GMSLineColorAndWidthAttributesENS_9allocatorIS3_EEE20__throw_length_errorB8ue170006Ev
__ZNKSt3__16vectorIN7gmscore6vector37LayeredSpritePerLayerFragmentUniformsENS_9allocatorIS3_EEE20__throw_length_errorB8ue170006Ev
__ZNKSt3__16vectorIN7gmscore6vector4text13GlyphPositionENS_9allocatorIS4_EEE20__throw_length_errorB8ue170006Ev
__ZNKSt3__16vectorIN7gmscore6vector4text9GlyphQuadENS_9allocatorIS4_EEE20__throw_length_errorB8ue170006Ev
__ZNKSt3__16vectorIN7gmscore6vector6VertexENS_9allocatorIS3_EEE20__throw_length_errorB8ue170006Ev
__ZNKSt3__16vectorIN7gmscore6vector9AreaGroup10AreaSubsetENS_9allocatorIS4_EEE20__throw_length_errorB8ue170006Ev
__ZNKSt3__16vectorIN7gmscore6vector9ColorSpanENS_9allocatorIS3_EEE20__throw_length_errorB8ue170006Ev
__ZNKSt3__16vectorIN7gmscore8renderer14EntityRenderer9PendingOpENS_9allocatorIS4_EEE20__throw_length_errorB8ue170006Ev
__ZNKSt3__16vectorIN7gmscore8renderer15VertexAttributeENS_9allocatorIS3_EEE20__throw_length_errorB8ue170006Ev
__ZNKSt3__16vectorIN7gmscore8renderer21ColoredTexturedVertexENS_9allocatorIS3_EEE20__throw_length_errorB8ue170006Ev
__ZNKSt3__16vectorIN7gmscore8renderer22MetalBufferRenderState19BufferObjectBindingENS_9allocatorIS4_EEE20__throw_length_errorB8ue170006Ev
__ZNKSt3__16vectorIN7gmscore8renderer23MetalTextureRenderState14TextureBindingENS_9allocatorIS4_EEE20__throw_length_errorB8ue170006Ev
__ZNKSt3__16vectorIN9GMSx_absl11string_viewENS_9allocatorIS2_EEE20__throw_length_errorB8ue170006Ev
__ZNKSt3__16vectorIN9GMSx_absl13time_internal4cctz10TransitionENS_9allocatorIS4_EEE20__throw_length_errorB8ue170006Ev
__ZNKSt3__16vectorIN9GMSx_absl13time_internal4cctz14TransitionTypeENS_9allocatorIS4_EEE20__throw_length_errorB8ue170006Ev
__ZNKSt3__16vectorIN9GMSx_absl16UnrecognizedFlagENS_9allocatorIS2_EEE20__throw_length_errorB8ue170006Ev
__ZNKSt3__16vectorIN9GMSx_absl19str_format_internal16ParsedFormatBase14ConversionItemENS_9allocatorIS4_EEE20__throw_length_errorB8ue170006Ev
__ZNKSt3__16vectorIN9GMSx_absl21GMSx_strings_internal18ViableSubstitutionENS_9allocatorIS3_EEE20__throw_length_errorB8ue170006Ev
__ZNKSt3__16vectorINS0_I10GMSPoint2DNS_9allocatorIS1_EEEENS2_IS4_EEE20__throw_length_errorB8ue170006Ev
__ZNKSt3__16vectorINS0_IN7gmscore4base10reffed_ptrINS1_6vector6SpriteEEENS_9allocatorIS6_EEEENS7_IS9_EEE20__throw_length_errorB8ue170006Ev
__ZNKSt3__16vectorINS0_IN7gmscore4base10reffed_ptrINS1_8renderer21SafeVBOWithAttributesINS1_6vector22GMSLineStampAttributesEEEEENS_9allocatorIS9_EEEENSA_ISC_EEE20__throw_length_errorB8ue170006Ev
__ZNKSt3__16vectorINS0_IN7gmscore4base10reffed_ptrINS1_8renderer21SafeVBOWithAttributesINS1_6vector24GMSLineConsumeAttributesEEEEENS_9allocatorIS9_EEEENSA_ISC_EEE20__throw_length_errorB8ue170006Ev
__ZNKSt3__16vectorINS0_IN7gmscore4base10reffed_ptrINS1_8renderer21SafeVBOWithAttributesINS1_6vector24GMSLineStippleAttributesEEEEENS_9allocatorIS9_EEEENSA_ISC_EEE20__throw_length_errorB8ue170006Ev
__ZNKSt3__16vectorINS0_IN7gmscore4base10reffed_ptrINS1_8renderer21SafeVBOWithAttributesINS1_6vector30GMSLineColorAndWidthAttributesEEEEENS_9allocatorIS9_EEEENSA_ISC_EEE20__throw_length_errorB8ue170006Ev
__ZNKSt3__16vectorINS0_IN7gmscore5model10Polyline2DENS_9allocatorIS3_EEEENS4_IS6_EEE20__throw_length_errorB8ue170006Ev
__ZNKSt3__16vectorINS0_IN7gmscore5model7Point2DENS_9allocatorIS3_EEEENS4_IS6_EEE20__throw_length_errorB8ue170006Ev
__ZNKSt3__16vectorINS0_IN7gmscore6vector13GLStrokeLayer22LineAllStyleAttributesENS_9allocatorIS4_EEEENS5_IS7_EEE20__throw_length_errorB8ue170006Ev
__ZNKSt3__16vectorINS0_IN7gmscore6vector9ColorSpanENS_9allocatorIS3_EEEENS4_IS6_EEE20__throw_length_errorB8ue170006Ev
__ZNKSt3__16vectorINS0_INS_10shared_ptrIN7gmscore6vector16LabelableFeatureEEENS_9allocatorIS5_EEEENS6_IS8_EEE20__throw_length_errorB8ue170006Ev
__ZNKSt3__16vectorINS0_INS_10shared_ptrIN7gmscore6vector18RenderLabelElementEEENS_9allocatorIS5_EEEENS6_IS8_EEE20__throw_length_errorB8ue170006Ev
__ZNKSt3__16vectorINS0_INS_10unique_ptrIN23GMSx_geo_imagery_viewer4pano12TexturedMeshENS_14default_deleteIS4_EEEENS_9allocatorIS7_EEEENS8_ISA_EEE20__throw_length_errorB8ue170006Ev
__ZNKSt3__16vectorINS0_INS_3mapIijNS_4lessIiEENS_9allocatorINS_4pairIKijEEEEEENS4_IS9_EEEENS4_ISB_EEE20__throw_length_errorB8ue170006Ev
__ZNKSt3__16vectorINS0_IPKN11GMSx_proto215FieldDescriptorENS_9allocatorIS4_EEEENS5_IS7_EEE20__throw_length_errorB8ue170006Ev
__ZNKSt3__16vectorINS0_IPKvNS_9allocatorIS2_EEEENS3_IS5_EEE20__throw_length_errorB8ue170006Ev
__ZNKSt3__16vectorINS0_IfNS_9allocatorIfEEEENS1_IS3_EEE20__throw_length_errorB8ue170006Ev
__ZNKSt3__16vectorINS0_IiNS_9allocatorIiEEEENS1_IS3_EEE20__throw_length_errorB8ue170006Ev
__ZNKSt3__16vectorINS_10shared_ptrIN7gmscore5model12Collidable2DEEENS_9allocatorIS5_EEE20__throw_length_errorB8ue170006Ev
__ZNKSt3__16vectorINS_10shared_ptrIN7gmscore5model8Region2fEEENS_9allocatorIS5_EEE20__throw_length_errorB8ue170006Ev
__ZNKSt3__16vectorINS_10shared_ptrIN7gmscore6vector11LabelSourceEEENS_9allocatorIS5_EEE20__throw_length_errorB8ue170006Ev
__ZNKSt3__16vectorINS_10shared_ptrIN7gmscore6vector11RenderLabelEEENS_9allocatorIS5_EEE20__throw_length_errorB8ue170006Ev
__ZNKSt3__16vectorINS_10shared_ptrIN7gmscore6vector11StrokeLayerEEENS_9allocatorIS5_EEE20__throw_length_errorB8ue170006Ev
__ZNKSt3__16vectorINS_10shared_ptrIN7gmscore6vector13LabelChangeOpEEENS_9allocatorIS5_EEE20__throw_length_errorB8ue170006Ev
__ZNKSt3__16vectorINS_10shared_ptrIN7gmscore6vector13LabelProviderEEENS_9allocatorIS5_EEE20__throw_length_errorB8ue170006Ev
__ZNKSt3__16vectorINS_10shared_ptrIN7gmscore6vector16LabelableFeatureEEENS_9allocatorIS5_EEE20__throw_length_errorB8ue170006Ev
__ZNKSt3__16vectorINS_10shared_ptrIN7gmscore6vector16LabelableFeatureEEENS_9allocatorIS5_EEE20__throw_out_of_rangeB8ue170006Ev
__ZNKSt3__16vectorINS_10shared_ptrIN7gmscore6vector16LabelingBehavior8ListenerEEENS_9allocatorIS6_EEE20__throw_length_errorB8ue170006Ev
__ZNKSt3__16vectorINS_10shared_ptrIN7gmscore6vector18RenderLabelElementEEENS_9allocatorIS5_EEE20__throw_length_errorB8ue170006Ev
__ZNKSt3__16vectorINS_10shared_ptrIN7gmscore6vector19POILabelableFeatureEEENS_9allocatorIS5_EEE20__throw_length_errorB8ue170006Ev
__ZNKSt3__16vectorINS_10shared_ptrIN7gmscore6vector20ClientVectorOpsGroupEEENS_9allocatorIS5_EEE20__throw_length_errorB8ue170006Ev
__ZNKSt3__16vectorINS_10shared_ptrIN7gmscore6vector21MetalLineUniformStateEEENS_9allocatorIS5_EEE20__throw_length_errorB8ue170006Ev
__ZNKSt3__16vectorINS_10shared_ptrIN7gmscore6vector24LabelableFeatureSelectorEEENS_9allocatorIS5_EEE20__throw_length_errorB8ue170006Ev
__ZNKSt3__16vectorINS_10shared_ptrIN7gmscore6vector24MetalTextureAtlasElementEEENS_9allocatorIS5_EEE20__throw_length_errorB8ue170006Ev
__ZNKSt3__16vectorINS_10shared_ptrIN7gmscore6vector27MetalBreadcrumbUniformStateEEENS_9allocatorIS5_EEE20__throw_length_errorB8ue170006Ev
__ZNKSt3__16vectorINS_10shared_ptrIN7gmscore8renderer12MetalTextureEEENS_9allocatorIS5_EEE20__throw_length_errorB8ue170006Ev
__ZNKSt3__16vectorINS_10shared_ptrIN7gmscore8renderer28MetalDepthStencilRenderStateEEENS_9allocatorIS5_EEE20__throw_length_errorB8ue170006Ev
__ZNKSt3__16vectorINS_10shared_ptrIN9GMSx_util14SimulatedClock10WakeUpInfoEEENS_9allocatorIS5_EEE20__throw_length_errorB8ue170006Ev
__ZNKSt3__16vectorINS_10unique_ptrIKN11GMSx_proto219FileDescriptorProtoENS_14default_deleteIS4_EEEENS_9allocatorIS7_EEE20__throw_length_errorB8ue170006Ev
__ZNKSt3__16vectorINS_10unique_ptrIN11GMSx_proto210TextFormat13ParseInfoTreeENS_14default_deleteIS4_EEEENS_9allocatorIS7_EEE20__throw_length_errorB8ue170006Ev
__ZNKSt3__16vectorINS_10unique_ptrIN11GMSx_proto29GMSx_util18MessageDifferencer14IgnoreCriteriaENS_14default_deleteIS5_EEEENS_9allocatorIS8_EEE20__throw_length_errorB8ue170006Ev
__ZNKSt3__16vectorINS_10unique_ptrIN23GMSx_geo_imagery_viewer4pano12TexturedMeshENS_14default_deleteIS4_EEEENS_9allocatorIS7_EEE20__throw_length_errorB8ue170006Ev
__ZNKSt3__16vectorINS_10unique_ptrIN7gmscore6vector18PlacedLabelElementENS_14default_deleteIS4_EEEENS_9allocatorIS7_EEE20__throw_length_errorB8ue170006Ev
__ZNKSt3__16vectorINS_10unique_ptrIN7gmscore6vector24MetalMutableTextureAtlasENS_14default_deleteIS4_EEEENS_9allocatorIS7_EEE20__throw_length_errorB8ue170006Ev
__ZNKSt3__16vectorINS_10unique_ptrIN7gmscore8renderer11Animation3DENS_14default_deleteIS4_EEEENS_9allocatorIS7_EEE20__throw_length_errorB8ue170006Ev
__ZNKSt3__16vectorINS_10unique_ptrIN9GMSx_absl14flags_internal18FlagStateInterfaceENS_14default_deleteIS4_EEEENS_9allocatorIS7_EEE20__throw_length_errorB8ue170006Ev
__ZNKSt3__16vectorINS_10unique_ptrIiN11GMSx_proto214DescriptorPool6Tables11MiscDeleterEEENS_9allocatorIS6_EEE20__throw_length_errorB8ue170006Ev
__ZNKSt3__16vectorINS_11__wrap_iterIPKN7gmscore5model7Point2DEEENS_9allocatorIS7_EEE20__throw_length_errorB8ue170006Ev
__ZNKSt3__16vectorINS_12basic_stringIcNS_11char_traitsIcEENS_9allocatorIcEEEENS4_IS6_EEE20__throw_length_errorB8ue170006Ev
__ZNKSt3__16vectorINS_12basic_stringIcNS_11char_traitsIcEENS_9allocatorIcEEEENS4_IS6_EEE20__throw_out_of_rangeB8ue170006Ev
__ZNKSt3__16vectorINS_14__map_iteratorINS_15__tree_iteratorINS_12__value_typeINS_12basic_stringIcNS_11char_traitsIcEENS_9allocatorIcEEEEN23GMSx_geo_imagery_viewer5swipe21AreaConnectivityGraph9AreaEntryEEEPNS_11__tree_nodeISE_PvEElEEEENS7_ISK_EEE20__throw_length_errorB8ue170006Ev
__ZNKSt3__16vectorINS_14__map_iteratorINS_15__tree_iteratorINS_12__value_typeIPKvN7gmscore4base10reffed_ptrINS6_6vector21SameTextureGlyphBatchEEEEEPNS_11__tree_nodeISC_PvEElEEEENS_9allocatorISI_EEE20__throw_length_errorB8ue170006Ev
__ZNKSt3__16vectorINS_3mapIijNS_4lessIiEENS_9allocatorINS_4pairIKijEEEEEENS4_IS9_EEE20__throw_length_errorB8ue170006Ev
__ZNKSt3__16vectorINS_4pairI8CapShapeS2_EENS_9allocatorIS3_EEE20__throw_length_errorB8ue170006Ev
__ZNKSt3__16vectorINS_4pairIN27GMSx_program_image_remapper19GMSx_classification7SectionENS3_16MemoryImportanceEEENS_9allocatorIS6_EEE20__throw_length_errorB8ue170006Ev
__ZNKSt3__16vectorINS_4pairIN9GMSx_absl11string_viewEiEENS_9allocatorIS4_EEE20__throw_length_errorB8ue170006Ev
__ZNKSt3__16vectorINS_4pairIN9GMSx_absl11string_viewEmEENS_9allocatorIS4_EEE20__throw_length_errorB8ue170006Ev
__ZNKSt3__16vectorINS_4pairINS1_ImmEENS_12basic_stringIcNS_11char_traitsIcEENS_9allocatorIcEEEEEENS6_IS9_EEE20__throw_length_errorB8ue170006Ev
__ZNKSt3__16vectorINS_4pairINS_10shared_ptrIN7gmscore6vector11LabelSourceEEENS2_INS3_5model12Collidable2DEEEEENS_9allocatorISA_EEE20__throw_length_errorB8ue170006Ev
__ZNKSt3__16vectorINS_4pairINS_12basic_stringIcNS_11char_traitsIcEENS_9allocatorIcEEEES7_EENS5_IS8_EEE20__throw_length_errorB8ue170006Ev
__ZNKSt3__16vectorINS_4pairIPK8__CTFontNS0_ItNS_9allocatorItEEEEEENS5_IS8_EEE20__throw_length_errorB8ue170006Ev
__ZNKSt3__16vectorINS_4pairIPKN11GMSx_proto210DescriptorEiEENS_9allocatorIS6_EEE20__throw_length_errorB8ue170006Ev
__ZNKSt3__16vectorINS_4pairIPKNS_12basic_stringIcNS_11char_traitsIcEENS_9allocatorIcEEEEiEENS5_ISA_EEE20__throw_length_errorB8ue170006Ev
__ZNKSt3__16vectorINS_4pairIU8__strongP15GMSx_GPBMessageyEENS_9allocatorIS5_EEE20__throw_length_errorB8ue170006Ev
__ZNKSt3__16vectorINS_4pairIdmEENS_9allocatorIS2_EEE20__throw_length_errorB8ue170006Ev
__ZNKSt3__16vectorINS_4pairIiPKN11GMSx_proto212UnknownFieldEEENS_9allocatorIS6_EEE20__throw_length_errorB8ue170006Ev
__ZNKSt3__16vectorINS_4pairIiiEENS_9allocatorIS2_EEE20__throw_length_errorB8ue170006Ev
__ZNKSt3__16vectorINS_4pairImmEENS_9allocatorIS2_EEE20__throw_length_errorB8ue170006Ev
__ZNKSt3__16vectorINS_5tupleIJPFv14FailureContextEPviEEENS_9allocatorIS6_EEE20__throw_length_errorB8ue170006Ev
__ZNKSt3__16vectorINS_6atomicIN23GMSx_geo_imagery_viewer4pano11MeshManager5PhaseEEENS_9allocatorIS6_EEE20__throw_length_errorB8ue170006Ev
__ZNKSt3__16vectorINS_8functionIFNS_8optionalIN11GMSx_proto22io7Printer16AnnotationRecordEEEN9GMSx_absl11string_viewEEEENS_9allocatorISB_EEE20__throw_length_errorB8ue170006Ev
__ZNKSt3__16vectorINS_8functionIFNS_8optionalIN11GMSx_proto22io7Printer9ValueImplILb0EEEEEN9GMSx_absl11string_viewEEEENS_9allocatorISC_EEE20__throw_length_errorB8ue170006Ev
__ZNKSt3__16vectorINS_8functionIFvvEEENS_9allocatorIS3_EEE20__throw_length_errorB8ue170006Ev
__ZNKSt3__16vectorIP11objc_objectNS_9allocatorIS2_EEE20__throw_length_errorB8ue170006Ev
__ZNKSt3__16vectorIPFPKN9GMSx_util10ErrorSpaceEvENS_9allocatorIS6_EEE20__throw_length_errorB8ue170006Ev
__ZNKSt3__16vectorIPKN11GMSx_proto210DescriptorENS_9allocatorIS4_EEE20__throw_length_errorB8ue170006Ev
__ZNKSt3__16vectorIPKN11GMSx_proto214FileDescriptorENS_9allocatorIS4_EEE20__throw_length_errorB8ue170006Ev
__ZNKSt3__16vectorIPKN11GMSx_proto215FieldDescriptorENS_9allocatorIS4_EEE20__throw_length_errorB8ue170006Ev
__ZNKSt3__16vectorIPKN11GMSx_proto27MessageENS_9allocatorIS4_EEE20__throw_length_errorB8ue170006Ev
__ZNKSt3__16vectorIPKN12GMSx_mapcore7labeler11RestrictionENS_9allocatorIS5_EEE20__throw_length_errorB8ue170006Ev
__ZNKSt3__16vectorIPKN7gmscore5model12Collidable2DENS_9allocatorIS5_EEE20__throw_length_errorB8ue170006Ev
__ZNKSt3__16vectorIPKN7gmscore6vector22RenderLabelElementTextENS_9allocatorIS5_EEE20__throw_length_errorB8ue170006Ev
__ZNKSt3__16vectorIPKN9GMSx_absl13cord_internal11CordzHandleENS_9allocatorIS5_EEE20__throw_length_errorB8ue170006Ev
__ZNKSt3__16vectorIPKN9GMSx_absl15CommandLineFlagENS_9allocatorIS4_EEE20__throw_length_errorB8ue170006Ev
__ZNKSt3__16vectorIPKcNS_9allocatorIS2_EEE20__throw_length_errorB8ue170006Ev
__ZNKSt3__16vectorIPKvNS_9allocatorIS2_EEE20__throw_length_errorB8ue170006Ev
__ZNKSt3__16vectorIPN11GMSx_proto218DescriptorDatabaseENS_9allocatorIS3_EEE20__throw_length_errorB8ue170006Ev
__ZNKSt3__16vectorIPN11GMSx_proto219FileDescriptorProtoENS_9allocatorIS3_EEE20__throw_length_errorB8ue170006Ev
__ZNKSt3__16vectorIPN11GMSx_proto29GMSx_util18MessageDifferencer16MapKeyComparatorENS_9allocatorIS5_EEE20__throw_length_errorB8ue170006Ev
__ZNKSt3__16vectorIPN23GMSx_geo_imagery_viewer4pano12TexturedMeshENS_9allocatorIS4_EEE20__throw_length_errorB8ue170006Ev
__ZNKSt3__16vectorIPN23GMSx_geo_imagery_viewer4pano4MeshENS_9allocatorIS4_EEE20__throw_length_errorB8ue170006Ev
__ZNKSt3__16vectorIPN7gmscore6vector19MutableStateTrackerENS_9allocatorIS4_EEE20__throw_length_errorB8ue170006Ev
__ZNKSt3__16vectorIPN7gmscore8renderer9RenderBinENS_9allocatorIS4_EEE20__throw_length_errorB8ue170006Ev
__ZNKSt3__16vectorIPN9GMSx_absl13cord_internal11CordzHandleENS_9allocatorIS4_EEE20__throw_length_errorB8ue170006Ev
__ZNKSt3__16vectorIPN9GMSx_absl15CommandLineFlagENS_9allocatorIS3_EEE20__throw_length_errorB8ue170006Ev
__ZNKSt3__16vectorIPN9GMSx_absl7LogSinkENS_9allocatorIS3_EEE20__throw_length_errorB8ue170006Ev
__ZNKSt3__16vectorIPcNS_9allocatorIS1_EEE20__throw_length_errorB8ue170006Ev
__ZNKSt3__16vectorIPvNS_9allocatorIS1_EEE20__throw_length_errorB8ue170006Ev
__ZNKSt3__16vectorIU8__strongP11GMSBuildingNS_9allocatorIS3_EEE20__throw_length_errorB8ue170006Ev
__ZNKSt3__16vectorIU8__strongP13GMSModelStyleNS_9allocatorIS3_EEE20__throw_length_errorB8ue170006Ev
__ZNKSt3__16vectorIU8__strongP14GMSStrokeStyleNS_9allocatorIS3_EEE20__throw_length_errorB8ue170006Ev
__ZNKSt3__16vectorIU8__strongP15GMSPointFeatureNS_9allocatorIS3_EEE20__throw_length_errorB8ue170006Ev
__ZNKSt3__16vectorIU8__strongP17GMSMultiZoomStyleNS_9allocatorIS3_EEE20__throw_length_errorB8ue170006Ev
__ZNKSt3__16vectorIU8__strongP17GMSStripifiedMeshNS_9allocatorIS3_EEE20__throw_length_errorB8ue170006Ev
__ZNKSt3__16vectorIU8__strongP20GMSModelFeatureStyleNS_9allocatorIS3_EEE20__throw_length_errorB8ue170006Ev
__ZNKSt3__16vectorIU8__strongP21GMSx_GMPPaintedRegionNS_9allocatorIS3_EEE20__throw_length_errorB8ue170006Ev
__ZNKSt3__16vectorIU8__strongP22GMSOffscreenEntityViewNS_9allocatorIS3_EEE20__throw_length_errorB8ue170006Ev
__ZNKSt3__16vectorIU8__strongP22GMSx_SRLImplementationNS_9allocatorIS3_EEE20__throw_length_errorB8ue170006Ev
__ZNKSt3__16vectorIU8__strongP6UIViewNS_9allocatorIS3_EEE20__throw_length_errorB8ue170006Ev
__ZNKSt3__16vectorIU8__strongP7GMSAreaNS_9allocatorIS3_EEE20__throw_length_errorB8ue170006Ev
__ZNKSt3__16vectorIU8__strongP7GMSLineNS_9allocatorIS3_EEE20__throw_length_errorB8ue170006Ev
__ZNKSt3__16vectorIU8__strongP9GMSMarkerNS_9allocatorIS3_EEE20__throw_length_errorB8ue170006Ev
__ZNKSt3__16vectorIU8__strongPU26objcproto15GMSModelFeature11objc_objectNS_9allocatorIS3_EEE20__throw_length_errorB8ue170006Ev
__ZNKSt3__16vectorIU8__strongPU34objcproto23GMSEntityTappableUIItem11objc_objectNS_9allocatorIS3_EEE20__throw_length_errorB8ue170006Ev
__ZNKSt3__16vectorIbNS_9allocatorIbEEE20__throw_length_errorB8ue170006Ev
__ZNKSt3__16vectorIcNS_9allocatorIcEEE20__throw_length_errorB8ue170006Ev
__ZNKSt3__16vectorIdNS_9allocatorIdEEE20__throw_length_errorB8ue170006Ev
__ZNKSt3__16vectorIfNS_9allocatorIfEEE20__throw_length_errorB8ue170006Ev
__ZNKSt3__16vectorIhNS_9allocatorIhEEE20__throw_length_errorB8ue170006Ev
__ZNKSt3__16vectorIhNS_9allocatorIhEEE20__throw_out_of_rangeB8ue170006Ev
__ZNKSt3__16vectorIiNS_9allocatorIiEEE20__throw_length_errorB8ue170006Ev
__ZNKSt3__16vectorIiNS_9allocatorIiEEE20__throw_out_of_rangeB8ue170006Ev
__ZNKSt3__16vectorIjNS_9allocatorIjEEE20__throw_length_errorB8ue170006Ev
__ZNKSt3__16vectorIjNS_9allocatorIjEEE20__throw_out_of_rangeB8ue170006Ev
__ZNKSt3__16vectorIlNS_9allocatorIlEEE20__throw_length_errorB8ue170006Ev
__ZNKSt3__16vectorImNS_9allocatorImEEE20__throw_length_errorB8ue170006Ev
__ZNKSt3__16vectorIsNS_9allocatorIsEEE20__throw_length_errorB8ue170006Ev
__ZNKSt3__16vectorItNS_9allocatorItEEE20__throw_length_errorB8ue170006Ev
__ZNKSt3__16vectorIxNS_9allocatorIxEEE20__throw_length_errorB8ue170006Ev
__ZNKSt3__16vectorIyNS_9allocatorIyEEE20__throw_length_errorB8ue170006Ev
__ZNKSt3__18equal_toINS_4pairIPKvN9GMSx_absl11string_viewEEEEclB8ue170006ERKS6_S9_
__ZNKSt3__18equal_toIvEclB8un170006IRKNS_12basic_stringIcNS_11char_traitsIcEENS_9allocatorIcEEEERKN9GMSx_absl11string_viewEEEDTeqclsr3stdE7forwardIT_Efp_Eclsr3stdE7forwardIT0_Efp0_EEOSF_OSG_
__ZNKSt3__18functionIFNS_10unique_ptrIN12GMSx_mapcore7labeler14LabelNodeLabelENS_14default_deleteIS4_EEEERKNS3_12RenderOpInfoERKNS3_14LabelingParamsEjbRKNS3_9AlignmentEEEclESA_SD_jbSG_
__ZNKSt3__18functionIFbP15GMSPointFeatureS2_EEclES2_S2_
__ZNKSt3__18functionIFbP7GMSAreaS2_EEclES2_S2_
__ZNKSt3__18functionIFbP7GMSLineS2_EEclES2_S2_
__ZNKSt3__18functionIFbP9GMSRasterS2_EEclES2_S2_
__ZNKSt3__18functionIFbiiEEclEii
__ZNKSt3__18functionIFvPNS_6vectorIiNS_9allocatorIiEEEES5_EEclES5_S5_
__ZNSt11range_errorC1B8ue170006EPKc
__ZNSt11range_errorC1B8ue170006ERKNSt3__112basic_stringIcNS0_11char_traitsIcEENS0_9allocatorIcEEEE
__ZNSt12domain_errorC1B8ue170006EPKc
__ZNSt12domain_errorC1B8ue170006ERKNSt3__112basic_stringIcNS0_11char_traitsIcEENS0_9allocatorIcEEEE
__ZNSt12length_errorC1B8ue170006EPKc
__ZNSt12length_errorC1B8ue170006ERKNSt3__112basic_stringIcNS0_11char_traitsIcEENS0_9allocatorIcEEEE
__ZNSt12out_of_rangeC1B8ue170006EPKc
__ZNSt12out_of_rangeC1B8ue170006ERKNSt3__112basic_stringIcNS0_11char_traitsIcEENS0_9allocatorIcEEEE
__ZNSt14overflow_errorC1B8ue170006EPKc
__ZNSt14overflow_errorC1B8ue170006ERKNSt3__112basic_stringIcNS0_11char_traitsIcEENS0_9allocatorIcEEEE
__ZNSt15underflow_errorC1B8ue170006EPKc
__ZNSt15underflow_errorC1B8ue170006ERKNSt3__112basic_stringIcNS0_11char_traitsIcEENS0_9allocatorIcEEEE
__ZNSt16invalid_argumentC1B8ue170006EPKc
__ZNSt16invalid_argumentC1B8ue170006ERKNSt3__112basic_stringIcNS0_11char_traitsIcEENS0_9allocatorIcEEEE
__ZNSt3__110__function12__value_funcIFNS_10unique_ptrIN12GMSx_mapcore7labeler14LabelNodeLabelENS_14default_deleteIS5_EEEERKNS4_12RenderOpInfoERKNS4_14LabelingParamsEjbRKNS4_9AlignmentEEEC2B8un170006ERKSJ_
__ZNSt3__110__function12__value_funcIFNS_12basic_stringIcNS_11char_traitsIcEENS_9allocatorIcEEEEN9GMSx_absl11string_viewEEE4swapB8ue170006ERSB_
__ZNSt3__110__function12__value_funcIFNS_12basic_stringIcNS_11char_traitsIcEENS_9allocatorIcEEEEN9GMSx_absl11string_viewEEEC2B8ue170006ERKSB_
__ZNSt3__110__function12__value_funcIFNS_12basic_stringIcNS_11char_traitsIcEENS_9allocatorIcEEEEN9GMSx_absl11string_viewEEEaSB8ue170006EOSB_
__ZNSt3__110__function12__value_funcIFNS_12basic_stringIcNS_11char_traitsIcEENS_9allocatorIcEEEEvEE4swapB8ue170006ERS9_
__ZNSt3__110__function12__value_funcIFNS_12basic_stringIcNS_11char_traitsIcEENS_9allocatorIcEEEEvEEC2B8ue170006ERKS9_
__ZNSt3__110__function12__value_funcIFNS_12basic_stringIcNS_11char_traitsIcEENS_9allocatorIcEEEEvEEaSB8ue170006EOS9_
__ZNSt3__110__function12__value_funcIFNS_8optionalIN11GMSx_proto22io7Printer16AnnotationRecordEEEN9GMSx_absl11string_viewEEEC2B8ue170006EOSB_
__ZNSt3__110__function12__value_funcIFNS_8optionalIN11GMSx_proto22io7Printer9ValueImplILb0EEEEEN9GMSx_absl11string_viewEEEC2B8ue170006EOSC_
__ZNSt3__110__function12__value_funcIFbN9GMSx_absl11string_viewEEE4swapB8ue170006ERS5_
__ZNSt3__110__function12__value_funcIFbN9GMSx_absl11string_viewEEEC2B8ue170006EOS5_
__ZNSt3__110__function12__value_funcIFbN9GMSx_absl11string_viewEEEC2B8ue170006ERKS5_
__ZNSt3__110__function12__value_funcIFbN9GMSx_absl11string_viewEEEaSB8ue170006EOS5_
__ZNSt3__110__function12__value_funcIFbP15GMSPointFeatureS3_EEC2B8ue170006ERKS5_
__ZNSt3__110__function12__value_funcIFbP7GMSAreaS3_EEC2B8ue170006ERKS5_
__ZNSt3__110__function12__value_funcIFbP7GMSLineS3_EEC2B8ue170006ERKS5_
__ZNSt3__110__function12__value_funcIFbP9GMSRasterS3_EEC2B8ue170006ERKS5_
__ZNSt3__110__function12__value_funcIFbRKN7gmscore4base10reffed_ptrINS2_8renderer10BaseEntityEEES9_EE4swapB8ue170006ERSB_
__ZNSt3__110__function12__value_funcIFbRKN7gmscore4base10reffed_ptrINS2_8renderer10BaseEntityEEES9_EEC2B8ue170006ERKSB_
__ZNSt3__110__function12__value_funcIFbRKNS_5tupleIJjmjN7gmscore4base10reffed_ptrINS3_8renderer10BaseEntityEEEEEESB_EEaSB8ue170006EOSD_
__ZNSt3__110__function12__value_funcIFbiiEEC2B8ue170006EOS3_
__ZNSt3__110__function12__value_funcIFbvEE4swapB8ue170006ERS3_
__ZNSt3__110__function12__value_funcIFbvEEC2B8ue170006EOS3_
__ZNSt3__110__function12__value_funcIFbvEEC2B8ue170006ERKS3_
__ZNSt3__110__function12__value_funcIFbvEEaSB8ue170006EOS3_
__ZNSt3__110__function12__value_funcIFvPNS_6vectorIiNS_9allocatorIiEEEES6_EE4swapB8ue170006ERS8_
__ZNSt3__110__function12__value_funcIFvPNS_6vectorIiNS_9allocatorIiEEEES6_EEC2B8ue170006ERKS8_
__ZNSt3__110__function12__value_funcIFvRKNS_10shared_ptrIN7gmscore6vector11RenderLabelEEEEE4swapB8ue170006ERSA_
__ZNSt3__110__function12__value_funcIFvmdEEC2B8ue170006ERKS3_
__ZNSt3__110__function12__value_funcIFvvEEC2B8ue170006EOS3_
__ZNSt3__110__function6__funcIN7gmscore6vector8ordering16FeatureZOrderingENS_9allocatorIS5_EEFbP15GMSPointFeatureS9_EE18destroy_deallocateEv
__ZNSt3__110__function6__funcIN7gmscore6vector8ordering16FeatureZOrderingENS_9allocatorIS5_EEFbP15GMSPointFeatureS9_EE7destroyEv
__ZNSt3__110__function6__funcIN7gmscore6vector8ordering16FeatureZOrderingENS_9allocatorIS5_EEFbP15GMSPointFeatureS9_EEclEOU8__strongS9_SD_
__ZNSt3__110__function6__funcIN7gmscore6vector8ordering16FeatureZOrderingENS_9allocatorIS5_EEFbP7GMSAreaS9_EE18destroy_deallocateEv
__ZNSt3__110__function6__funcIN7gmscore6vector8ordering16FeatureZOrderingENS_9allocatorIS5_EEFbP7GMSAreaS9_EE7destroyEv
__ZNSt3__110__function6__funcIN7gmscore6vector8ordering16FeatureZOrderingENS_9allocatorIS5_EEFbP7GMSAreaS9_EEclEOU8__strongS9_SD_
__ZNSt3__110__function6__funcIN7gmscore6vector8ordering16FeatureZOrderingENS_9allocatorIS5_EEFbP7GMSLineS9_EE18destroy_deallocateEv
__ZNSt3__110__function6__funcIN7gmscore6vector8ordering16FeatureZOrderingENS_9allocatorIS5_EEFbP7GMSLineS9_EE7destroyEv
__ZNSt3__110__function6__funcIN7gmscore6vector8ordering16FeatureZOrderingENS_9allocatorIS5_EEFbP7GMSLineS9_EEclEOU8__strongS9_SD_
__ZNSt3__110__function6__funcIN7gmscore6vector8ordering16FeatureZOrderingENS_9allocatorIS5_EEFbP9GMSRasterS9_EE18destroy_deallocateEv
__ZNSt3__110__function6__funcIN7gmscore6vector8ordering16FeatureZOrderingENS_9allocatorIS5_EEFbP9GMSRasterS9_EE7destroyEv
__ZNSt3__110__function6__funcIN7gmscore6vector8ordering16FeatureZOrderingENS_9allocatorIS5_EEFbP9GMSRasterS9_EEclEOU8__strongS9_SD_
__ZNSt3__110__function6__funcINS_4lessINS_5tupleIJjmjN7gmscore4base10reffed_ptrINS4_8renderer10BaseEntityEEEEEEEENS_9allocatorISB_EEFbRKSA_SF_EE18destroy_deallocateEv
__ZNSt3__110__function6__funcINS_4lessINS_5tupleIJjmjN7gmscore4base10reffed_ptrINS4_8renderer10BaseEntityEEEEEEEENS_9allocatorISB_EEFbRKSA_SF_EE7destroyEv
__ZNSt3__110__function6__funcINS_4lessINS_5tupleIJjmjN7gmscore4base10reffed_ptrINS4_8renderer10BaseEntityEEEEEEEENS_9allocatorISB_EEFbRKSA_SF_EEclESF_SF_
__ZNSt3__110__function6__funcINS_6__bindINS_8__mem_fnIMN7gmscore8renderer20ProxySortedRenderBinINS_5tupleIJjmjNS4_4base10reffed_ptrINS5_10BaseEntityEEEEEENS_4lessISC_EEEEFbRKSB_SH_EEEJPSF_RKNS_12placeholders4__phILi1EEERKNSN_ILi2EEEEEENS_9allocatorISU_EEFbSH_SH_EE18destroy_deallocateEv
__ZNSt3__110__function6__funcINS_6__bindINS_8__mem_fnIMN7gmscore8renderer20ProxySortedRenderBinINS_5tupleIJjmjNS4_4base10reffed_ptrINS5_10BaseEntityEEEEEENS_4lessISC_EEEEFbRKSB_SH_EEEJPSF_RKNS_12placeholders4__phILi1EEERKNSN_ILi2EEEEEENS_9allocatorISU_EEFbSH_SH_EE7destroyEv
__ZNSt3__110__function6__funcINS_6__bindINS_8__mem_fnIMN7gmscore8renderer20ProxySortedRenderBinINS_5tupleIJjmjNS4_4base10reffed_ptrINS5_10BaseEntityEEEEEENS_4lessISC_EEEEFbRKSB_SH_EEEJPSF_RKNS_12placeholders4__phILi1EEERKNSN_ILi2EEEEEENS_9allocatorISU_EEFbSH_SH_EEclESH_SH_
__ZNSt3__110__function6__funcIPFNS_10unique_ptrIN12GMSx_mapcore7labeler14LabelNodeLabelENS_14default_deleteIS5_EEEERKNS4_12RenderOpInfoERKNS4_14LabelingParamsEjbRKNS4_9AlignmentEENS_9allocatorISJ_EESI_E18destroy_deallocateEv
__ZNSt3__110__function6__funcIPFNS_10unique_ptrIN12GMSx_mapcore7labeler14LabelNodeLabelENS_14default_deleteIS5_EEEERKNS4_12RenderOpInfoERKNS4_14LabelingParamsEjbRKNS4_9AlignmentEENS_9allocatorISJ_EESI_E7destroyEv
__ZNSt3__110__function6__funcIPFNS_10unique_ptrIN12GMSx_mapcore7labeler14LabelNodeLabelENS_14default_deleteIS5_EEEERKNS4_12RenderOpInfoERKNS4_14LabelingParamsEjbRKNS4_9AlignmentEENS_9allocatorISJ_EESI_EclESB_SE_OjObSH_
__ZNSt3__110__function6__funcIPFNS_12basic_stringIcNS_11char_traitsIcEENS_9allocatorIcEEEEN9GMSx_absl11string_viewEENS5_ISB_EESA_E18destroy_deallocateEv
__ZNSt3__110__function6__funcIPFNS_12basic_stringIcNS_11char_traitsIcEENS_9allocatorIcEEEEN9GMSx_absl11string_viewEENS5_ISB_EESA_E7destroyEv
__ZNSt3__110__function6__funcIPFNS_12basic_stringIcNS_11char_traitsIcEENS_9allocatorIcEEEEN9GMSx_absl11string_viewEENS5_ISB_EESA_EclEOS9_
__ZNSt3__110__function6__funcIPFNS_12basic_stringIcNS_11char_traitsIcEENS_9allocatorIcEEEEvENS5_IS9_EES8_E18destroy_deallocateEv
__ZNSt3__110__function6__funcIPFNS_12basic_stringIcNS_11char_traitsIcEENS_9allocatorIcEEEEvENS5_IS9_EES8_E7destroyEv
__ZNSt3__110__function6__funcIPFNS_12basic_stringIcNS_11char_traitsIcEENS_9allocatorIcEEEEvENS5_IS9_EES8_EclEv
__ZNSt3__110__function6__funcIPFbN9GMSx_absl11string_viewEENS_9allocatorIS5_EES4_E18destroy_deallocateEv
__ZNSt3__110__function6__funcIPFbN9GMSx_absl11string_viewEENS_9allocatorIS5_EES4_E7destroyEv
__ZNSt3__110__function6__funcIPFbN9GMSx_absl11string_viewEENS_9allocatorIS5_EES4_EclEOS3_
__ZNSt3__110__function6__funcIPFbRKN7gmscore4base10reffed_ptrINS2_8renderer10BaseEntityEEES9_ENS_9allocatorISB_EESA_E18destroy_deallocateEv
__ZNSt3__110__function6__funcIPFbRKN7gmscore4base10reffed_ptrINS2_8renderer10BaseEntityEEES9_ENS_9allocatorISB_EESA_E7destroyEv
__ZNSt3__110__function6__funcIPFbRKN7gmscore4base10reffed_ptrINS2_8renderer10BaseEntityEEES9_ENS_9allocatorISB_EESA_EclES9_S9_
__ZNSt3__110__function6__funcIPFvPNS_6vectorIiNS_9allocatorIiEEEES6_ENS3_IS8_EES7_E18destroy_deallocateEv
__ZNSt3__110__function6__funcIPFvPNS_6vectorIiNS_9allocatorIiEEEES6_ENS3_IS8_EES7_E7destroyEv
__ZNSt3__110__function6__funcIPFvPNS_6vectorIiNS_9allocatorIiEEEES6_ENS3_IS8_EES7_EclEOS6_SB_
__ZNSt3__110__function6__funcIZN11GMSx_proto22io7Printer8WithDefsEN9GMSx_absl4SpanIKNS4_3SubEEEbEUlNS5_11string_viewEE0_NS_9allocatorISB_EEFNS_8optionalINS4_16AnnotationRecordEEESA_EE18destroy_deallocateEv
__ZNSt3__110__function6__funcIZN11GMSx_proto22io7Printer8WithDefsEN9GMSx_absl4SpanIKNS4_3SubEEEbEUlNS5_11string_viewEE0_NS_9allocatorISB_EEFNS_8optionalINS4_16AnnotationRecordEEESA_EE7destroyEv
__ZNSt3__110__function6__funcIZN11GMSx_proto22io7Printer8WithDefsEN9GMSx_absl4SpanIKNS4_3SubEEEbEUlNS5_11string_viewEE0_NS_9allocatorISB_EEFNS_8optionalINS4_16AnnotationRecordEEESA_EEclEOSA_
__ZNSt3__110__function6__funcIZN11GMSx_proto22io7Printer8WithDefsEN9GMSx_absl4SpanIKNS4_3SubEEEbEUlNS5_11string_viewEE_NS_9allocatorISB_EEFNS_8optionalINS4_9ValueImplILb0EEEEESA_EE18destroy_deallocateEv
__ZNSt3__110__function6__funcIZN11GMSx_proto22io7Printer8WithDefsEN9GMSx_absl4SpanIKNS4_3SubEEEbEUlNS5_11string_viewEE_NS_9allocatorISB_EEFNS_8optionalINS4_9ValueImplILb0EEEEESA_EE7destroyEv
__ZNSt3__110__function6__funcIZN11GMSx_proto22io7Printer8WithDefsEN9GMSx_absl4SpanIKNS4_3SubEEEbEUlNS5_11string_viewEE_NS_9allocatorISB_EEFNS_8optionalINS4_9ValueImplILb0EEEEESA_EEclEOSA_
__ZNSt3__110__function6__funcIZN11GMSx_proto22io7Printer8WithVarsIN9GMSx_absl13flat_hash_mapINS6_11string_viewES8_NS6_18container_internal10StringHashENS9_8StringEqENS_9allocatorINS_4pairIKS8_S8_EEEEEEEEDaPKT_EUlS8_E_NSC_ISL_EEFNS_8optionalINS4_9ValueImplILb0EEEEES8_EE18destroy_deallocateEv
__ZNSt3__110__function6__funcIZN11GMSx_proto22io7Printer8WithVarsIN9GMSx_absl13flat_hash_mapINS6_11string_viewES8_NS6_18container_internal10StringHashENS9_8StringEqENS_9allocatorINS_4pairIKS8_S8_EEEEEEEEDaPKT_EUlS8_E_NSC_ISL_EEFNS_8optionalINS4_9ValueImplILb0EEEEES8_EE7destroyEv
__ZNSt3__110__function6__funcIZN11GMSx_proto22io7Printer8WithVarsIN9GMSx_absl13flat_hash_mapINS6_11string_viewES8_NS6_18container_internal10StringHashENS9_8StringEqENS_9allocatorINS_4pairIKS8_S8_EEEEEEEEDaPKT_EUlS8_E_NSC_ISL_EEFNS_8optionalINS4_9ValueImplILb0EEEEES8_EEclEOS8_
__ZNSt3__110__function6__funcIZN9GMSx_absl14flags_internal13FlagSaverImpl16SaveFromRegistryEvEUlRNS2_15CommandLineFlagEE_NS_9allocatorIS7_EEFvS6_EE18destroy_deallocateEv
__ZNSt3__110__function6__funcIZN9GMSx_absl14flags_internal13FlagSaverImpl16SaveFromRegistryEvEUlRNS2_15CommandLineFlagEE_NS_9allocatorIS7_EEFvS6_EE7destroyEv
__ZNSt3__110__function6__funcIZN9GMSx_absl14flags_internal13FlagSaverImpl16SaveFromRegistryEvEUlRNS2_15CommandLineFlagEE_NS_9allocatorIS7_EEFvS6_EEclES6_
__ZNSt3__110__list_impIN7gmscore4base10reffed_ptrINS1_8renderer10BaseEntityEEENS_9allocatorIS6_EEE5clearEv
__ZNSt3__110__list_impIN7gmscore4base10reffed_ptrINS1_8renderer8BehaviorEEENS_9allocatorIS6_EEE5clearEv
__ZNSt3__110__list_impIN7gmscore8renderer18ImageDataSignatureENS_9allocatorIS3_EEE5clearEv
__ZNSt3__110__list_impINS_4pairIKN11util_intops6HandleIN12GMSx_mapcore7labeler27LabelCandidateBundleId_tag_EyEENS_10unique_ptrINS5_20LabelCandidateBundleENS_14default_deleteISA_EEEEEENS_9allocatorISE_EEE5clearEv
__ZNSt3__110__list_impINS_4pairIKN11util_intops6HandleIN12GMSx_mapcore7labeler27LabelCandidateBundleId_tag_EyEENS_6vectorINS5_17TileLabelOpBundleENS_9allocatorISA_EEEEEENSB_ISE_EEE5clearEv
__ZNSt3__110__list_impINS_4pairIKN11util_intops6HandleIN12GMSx_mapcore7labeler27LabelCandidateBundleId_tag_EyEENS_6vectorINS5_18WorldLabelOpBundleENS_9allocatorISA_EEEEEENSB_ISE_EEE5clearEv
__ZNSt3__110__list_impINS_4pairIKPKN22GMSx_maps_paint_client19TransitionAnimationEiEENS_9allocatorIS7_EEE5clearEv
__ZNSt3__110__list_impINS_4pairIKPKN22GMSx_maps_paint_client9AnimationEiEENS_9allocatorIS7_EEE5clearEv
__ZNSt3__110__list_impINS_4pairIN23GMSx_geo_imagery_viewer3api7PhotoIdENS_10shared_ptrINS2_4core5PhotoEEEEENS_9allocatorIS9_EEE5clearEv
__ZNSt3__110__list_impINS_4pairIN23GMSx_geo_imagery_viewer4core12TileCacheKeyENS_10unique_ptrINS2_4pano4TileENS_14default_deleteIS7_EEEEEENS_9allocatorISB_EEE5clearEv
__ZNSt3__110__list_impINS_5tupleIJ14MTLTextureType14MTLPixelFormatiibEEENS_9allocatorIS4_EEE5clearEv
__ZNSt3__110__list_impIPN4base15GMSx_scheduling6DomainENS_9allocatorIS4_EEE5clearEv
__ZNSt3__110__list_impIPN7gmscore8renderer24ProjectionChangeListenerENS_9allocatorIS4_EEE5clearEv
__ZNSt3__110__pop_heapB8ue170006INS_17_ClassicAlgPolicyE25GMSx_FilenameFlagnameLessP24GMSx_CommandLineFlagInfoEEvT1_S5_RT0_NS_15iterator_traitsIS5_E15difference_typeE
__ZNSt3__110__pop_heapB8ue170006INS_17_ClassicAlgPolicyENS_6__lessIvvEENS_11__wrap_iterIPN23GMSx_geo_imagery_viewer7overlay13NodeCandidateEEEEEvT1_SA_RT0_NS_15iterator_traitsISA_E15difference_typeE
__ZNSt3__110__pop_heapB8ue170006INS_17_ClassicAlgPolicyENS_6__lessIvvEEPNS_12basic_stringIcNS_11char_traitsIcEENS_9allocatorIcEEEEEEvT1_SB_RT0_NS_15iterator_traitsISB_E15difference_typeE
__ZNSt3__110__pop_heapB8ue170006INS_17_ClassicAlgPolicyENS_8functionIFbRKN7gmscore4base10reffed_ptrINS3_8renderer10BaseEntityEEESA_EEEPS8_EEvT1_SE_RT0_NS_15iterator_traitsISE_E15difference_typeE
__ZNSt3__110__pop_heapB8ue170006INS_17_ClassicAlgPolicyEPFbRKN7gmscore4base10reffed_ptrINS2_6vector4text20RenderableGlyphGroupEEESA_EPS8_EEvT1_SE_RT0_NS_15iterator_traitsISE_E15difference_typeE
__ZNSt3__110shared_ptrI5groupED2B8ue170006Ev
__ZNSt3__110shared_ptrI6passwdED2B8ue170006Ev
__ZNSt3__110shared_ptrIKN12GMSx_mapcore7labeler11PlacedLabelEED2B8ue170006Ev
__ZNSt3__110shared_ptrIKN22GMSx_maps_paint_client13LabelRenderOpEED2B8un170006Ev
__ZNSt3__110shared_ptrIKN22GMSx_maps_paint_client13LabelRenderOpEEaSB8un170006EOS4_
__ZNSt3__110shared_ptrIKN22GMSx_maps_paint_client21LineLabelCandidateSetEED2B8un170006Ev
__ZNSt3__110shared_ptrIKN7gmscore6vector13LabelSnapshotEED2B8ue170006Ev
__ZNSt3__110shared_ptrIKN7gmscore6vector13LabelSnapshotEEaSB8ue170006EOS5_
__ZNSt3__110shared_ptrIN12GMSx_NSSInfoI5groupNS_12basic_stringIcNS_11char_traitsIcEENS_9allocatorIcEEEEPKcL_Z10getgrnam_rEE8CacheRecEE5resetB8ue170006Ev
__ZNSt3__110shared_ptrIN12GMSx_NSSInfoI5groupNS_12basic_stringIcNS_11char_traitsIcEENS_9allocatorIcEEEEPKcL_Z10getgrnam_rEE8CacheRecEED2B8ue170006Ev
__ZNSt3__110shared_ptrIN12GMSx_NSSInfoI5groupNS_12basic_stringIcNS_11char_traitsIcEENS_9allocatorIcEEEEPKcL_Z10getgrnam_rEE8CacheRecEEaSB8ue170006ERKSD_
__ZNSt3__110shared_ptrIN12GMSx_NSSInfoI5groupjjL_Z10getgrgid_rEE8CacheRecEE5resetB8ue170006Ev
__ZNSt3__110shared_ptrIN12GMSx_NSSInfoI5groupjjL_Z10getgrgid_rEE8CacheRecEED2B8ue170006Ev
__ZNSt3__110shared_ptrIN12GMSx_NSSInfoI5groupjjL_Z10getgrgid_rEE8CacheRecEEaSB8ue170006ERKS5_
__ZNSt3__110shared_ptrIN12GMSx_NSSInfoI6passwdNS_12basic_stringIcNS_11char_traitsIcEENS_9allocatorIcEEEEPKcL_Z10getpwnam_rEE8CacheRecEE5resetB8ue170006Ev
__ZNSt3__110shared_ptrIN12GMSx_NSSInfoI6passwdNS_12basic_stringIcNS_11char_traitsIcEENS_9allocatorIcEEEEPKcL_Z10getpwnam_rEE8CacheRecEED2B8ue170006Ev
__ZNSt3__110shared_ptrIN12GMSx_NSSInfoI6passwdNS_12basic_stringIcNS_11char_traitsIcEENS_9allocatorIcEEEEPKcL_Z10getpwnam_rEE8CacheRecEEaSB8ue170006ERKSD_
__ZNSt3__110shared_ptrIN12GMSx_NSSInfoI6passwdjjL_Z10getpwuid_rEE8CacheRecEE5resetB8ue170006Ev
__ZNSt3__110shared_ptrIN12GMSx_NSSInfoI6passwdjjL_Z10getpwuid_rEE8CacheRecEED2B8ue170006Ev
__ZNSt3__110shared_ptrIN12GMSx_NSSInfoI6passwdjjL_Z10getpwuid_rEE8CacheRecEEaSB8ue170006ERKS5_
__ZNSt3__110shared_ptrIN12GMSx_mapcore7labeler15LabelCandidatesEED2B8ue170006Ev
__ZNSt3__110shared_ptrIN12GMSx_mapcore7labeler20PlacedLabelIdTrackerEED2B8un170006Ev
__ZNSt3__110shared_ptrIN12GMSx_mapcore7labeler9IdCounterIN11util_intops6HandleINS2_21LabelCandidateId_tag_ExEEEEED2B8un170006Ev
__ZNSt3__110shared_ptrIN20GMSRocketIconService6HolderEED2B8ue170006Ev
__ZNSt3__110shared_ptrIN20GMSRocketIconService6HolderEEaSB8ue170006ERKS3_
__ZNSt3__110shared_ptrIN22GMSx_maps_paint_client13LabelRenderOpEED2B8un170006Ev
__ZNSt3__110shared_ptrIN22GMSx_maps_paint_client21LineLabelCandidateSetEED2B8un170006Ev
__ZNSt3__110shared_ptrIN23GMSx_geo_imagery_viewer4core5PhotoEED2B8ue170006Ev
__ZNSt3__110shared_ptrIN23GMSx_geo_imagery_viewer4core5PhotoEEaSB8ue170006EOS4_
__ZNSt3__110shared_ptrIN23GMSx_geo_imagery_viewer4core5PhotoEEaSB8ue170006ERKS4_
__ZNSt3__110shared_ptrIN23GMSx_geo_imagery_viewer4pano11MeshManagerEED2B8ue170006Ev
__ZNSt3__110shared_ptrIN23GMSx_geo_imagery_viewer4pano11MeshManagerEEaSB8ue170006EOS4_
__ZNSt3__110shared_ptrIN23GMSx_geo_imagery_viewer4pano8MetadataEED2B8ue170006Ev
__ZNSt3__110shared_ptrIN7gmscore5model12Collidable2DEED2B8ue170006Ev
__ZNSt3__110shared_ptrIN7gmscore5model12Collidable2DEEaSB8ue170006EOS4_
__ZNSt3__110shared_ptrIN7gmscore5model12Collidable2DEEaSB8ue170006ERKS4_
__ZNSt3__110shared_ptrIN7gmscore5model15CollidableSet2DEED2B8ue170006Ev
__ZNSt3__110shared_ptrIN7gmscore5model15CollidableSet2DEEaSB8ue170006EOS4_
__ZNSt3__110shared_ptrIN7gmscore5model8Region2fEED2B8ue170006Ev
__ZNSt3__110shared_ptrIN7gmscore5model8Region2fEEaSB8ue170006ERKS4_
__ZNSt3__110shared_ptrIN7gmscore6vector11LabelSourceEED2B8ue170006Ev
__ZNSt3__110shared_ptrIN7gmscore6vector11LabelSourceEEaSB8ue170006EOS4_
__ZNSt3__110shared_ptrIN7gmscore6vector11LabelSourceEEaSB8ue170006ERKS4_
__ZNSt3__110shared_ptrIN7gmscore6vector11LabelingJobEE5resetB8ue170006Ev
__ZNSt3__110shared_ptrIN7gmscore6vector11LabelingJobEED2B8ue170006Ev
__ZNSt3__110shared_ptrIN7gmscore6vector11LabelingJobEEaSB8ue170006ERKS4_
__ZNSt3__110shared_ptrIN7gmscore6vector11RenderLabelEED2B8ue170006Ev
__ZNSt3__110shared_ptrIN7gmscore6vector11RenderLabelEEaSB8ue170006EOS4_
__ZNSt3__110shared_ptrIN7gmscore6vector11RenderLabelEEaSB8ue170006ERKS4_
__ZNSt3__110shared_ptrIN7gmscore6vector11StrokeLayerEED2B8ue170006Ev
__ZNSt3__110shared_ptrIN7gmscore6vector13CTLineBuilderEED2B8ue170006Ev
__ZNSt3__110shared_ptrIN7gmscore6vector13GLStrokeLayerEED2B8ue170006Ev
__ZNSt3__110shared_ptrIN7gmscore6vector13LabelChangeOpEED2B8ue170006Ev
__ZNSt3__110shared_ptrIN7gmscore6vector13LabelChangeOpEEaSB8ue170006EOS4_
__ZNSt3__110shared_ptrIN7gmscore6vector13LabelChangeOpEEaSB8ue170006ERKS4_
__ZNSt3__110shared_ptrIN7gmscore6vector13LabelProviderEED2B8ue170006Ev
__ZNSt3__110shared_ptrIN7gmscore6vector13LabelProviderEEaSB8ue170006EOS4_
__ZNSt3__110shared_ptrIN7gmscore6vector13LabelSnapshotEE5resetB8ue170006Ev
__ZNSt3__110shared_ptrIN7gmscore6vector13LabelSnapshotEED2B8ue170006Ev
__ZNSt3__110shared_ptrIN7gmscore6vector14LabelingParamsEED2B8ue170006Ev
__ZNSt3__110shared_ptrIN7gmscore6vector14LabelingParamsEEaSB8ue170006ERKS4_
__ZNSt3__110shared_ptrIN7gmscore6vector15RenderLineLabelEED2B8ue170006Ev
__ZNSt3__110shared_ptrIN7gmscore6vector16LabelableFeatureEE5resetB8ue170006Ev
__ZNSt3__110shared_ptrIN7gmscore6vector16LabelableFeatureEED2B8ue170006Ev
__ZNSt3__110shared_ptrIN7gmscore6vector16LabelableFeatureEEaSB8ue170006EOS4_
__ZNSt3__110shared_ptrIN7gmscore6vector16LabelableFeatureEEaSB8ue170006ERKS4_
__ZNSt3__110shared_ptrIN7gmscore6vector16LabelingBehavior8ListenerEED2B8ue170006Ev
__ZNSt3__110shared_ptrIN7gmscore6vector16LabelingBehavior8ListenerEEaSB8ue170006EOS5_
__ZNSt3__110shared_ptrIN7gmscore6vector16MetalDashTextureEED2B8ue170006Ev
__ZNSt3__110shared_ptrIN7gmscore6vector16MetalStrokeLayerEED2B8ue170006Ev
__ZNSt3__110shared_ptrIN7gmscore6vector16RenderImageLabelEED2B8ue170006Ev
__ZNSt3__110shared_ptrIN7gmscore6vector16RenderPointLabelEED2B8ue170006Ev
__ZNSt3__110shared_ptrIN7gmscore6vector16TextUniformStateEE5resetB8ue170006Ev
__ZNSt3__110shared_ptrIN7gmscore6vector16TextUniformStateEED2B8ue170006Ev
__ZNSt3__110shared_ptrIN7gmscore6vector16TextUniformStateEEaSB8ue170006EOS4_
__ZNSt3__110shared_ptrIN7gmscore6vector17PointUniformStateEED2B8ue170006Ev
__ZNSt3__110shared_ptrIN7gmscore6vector17PointUniformStateEEaSB8ue170006EOS4_
__ZNSt3__110shared_ptrIN7gmscore6vector17TileLabelProviderEE5resetB8ue170006Ev
__ZNSt3__110shared_ptrIN7gmscore6vector17TileLabelProviderEED2B8ue170006Ev
__ZNSt3__110shared_ptrIN7gmscore6vector18CalloutSharedStateEED2B8ue170006Ev
__ZNSt3__110shared_ptrIN7gmscore6vector18CalloutSharedStateEEaSB8ue170006EOS4_
__ZNSt3__110shared_ptrIN7gmscore6vector18CalloutSharedStateEEaSB8ue170006ERKS4_
__ZNSt3__110shared_ptrIN7gmscore6vector18RenderLabelElementEED2B8ue170006Ev
__ZNSt3__110shared_ptrIN7gmscore6vector18RenderLabelElementEEaSB8ue170006ERKS4_
__ZNSt3__110shared_ptrIN7gmscore6vector19LabelUpdateDelegateEED2B8ue170006Ev
__ZNSt3__110shared_ptrIN7gmscore6vector19LabelUpdateDelegateEEaSB8ue170006ERKS4_
__ZNSt3__110shared_ptrIN7gmscore6vector19POILabelableFeatureEED2B8ue170006Ev
__ZNSt3__110shared_ptrIN7gmscore6vector19PlacedLabelRendererEED2B8ue170006Ev
__ZNSt3__110shared_ptrIN7gmscore6vector19PlacedLabelSnapshotEED2B8ue170006Ev
__ZNSt3__110shared_ptrIN7gmscore6vector19PlacedLabelSnapshotEEaSB8ue170006EOS4_
__ZNSt3__110shared_ptrIN7gmscore6vector19SharedLabelerFacadeEED2B8ue170006Ev
__ZNSt3__110shared_ptrIN7gmscore6vector20ClientVectorOpsGroupEED2B8ue170006Ev
__ZNSt3__110shared_ptrIN7gmscore6vector20ClientVectorOpsGroupEEaSB8ue170006EOS4_
__ZNSt3__110shared_ptrIN7gmscore6vector20LabelBoxUniformStateEED2B8ue170006Ev
__ZNSt3__110shared_ptrIN7gmscore6vector20LineLabelableFeatureEED2B8ue170006Ev
__ZNSt3__110shared_ptrIN7gmscore6vector20MetalLineStyleBufferEED2B8ue170006Ev
__ZNSt3__110shared_ptrIN7gmscore6vector20MetalLineStyleBufferEEaSB8ue170006EOS4_
__ZNSt3__110shared_ptrIN7gmscore6vector21MetalAreaUniformStateEED2B8ue170006Ev
__ZNSt3__110shared_ptrIN7gmscore6vector21MetalAreaUniformStateEEaSB8ue170006EOS4_
__ZNSt3__110shared_ptrIN7gmscore6vector21MetalLineUniformStateEED2B8ue170006Ev
__ZNSt3__110shared_ptrIN7gmscore6vector21MetalLineVertexBufferEED2B8ue170006Ev
__ZNSt3__110shared_ptrIN7gmscore6vector21MetalLineVertexBufferEEaSB8ue170006EOS4_
__ZNSt3__110shared_ptrIN7gmscore6vector22LabelBucketRestrictionEED2B8ue170006Ev
__ZNSt3__110shared_ptrIN7gmscore6vector22LabelBucketRestrictionEEaSB8ue170006ERKS4_
__ZNSt3__110shared_ptrIN7gmscore6vector22RenderLabelElementIconEED2B8ue170006Ev
__ZNSt3__110shared_ptrIN7gmscore6vector22RenderLabelElementTextEED2B8ue170006Ev
__ZNSt3__110shared_ptrIN7gmscore6vector23CalloutLabelableFeatureEED2B8ue170006Ev
__ZNSt3__110shared_ptrIN7gmscore6vector23LabelPlacementCandidateEED2B8ue170006Ev
__ZNSt3__110shared_ptrIN7gmscore6vector23LabelPlacementCandidateEEaSB8ue170006ERKS4_
__ZNSt3__110shared_ptrIN7gmscore6vector24CategorizedLabelProviderEED2B8ue170006Ev
__ZNSt3__110shared_ptrIN7gmscore6vector24LabelableFeatureSelectorEED2B8ue170006Ev
__ZNSt3__110shared_ptrIN7gmscore6vector24LabelableFeatureSelectorEEaSB8ue170006EOS4_
__ZNSt3__110shared_ptrIN7gmscore6vector24LabelableFeatureSelectorEEaSB8ue170006ERKS4_
__ZNSt3__110shared_ptrIN7gmscore6vector24MetalTextureAtlasElementEED2B8ue170006Ev
__ZNSt3__110shared_ptrIN7gmscore6vector24MetalTextureAtlasElementEEaSB8ue170006EOS4_
__ZNSt3__110shared_ptrIN7gmscore6vector24MetalTextureAtlasElementEEaSB8ue170006ERKS4_
__ZNSt3__110shared_ptrIN7gmscore6vector25LayeredSpriteUniformStateEED2B8ue170006Ev
__ZNSt3__110shared_ptrIN7gmscore6vector25MetalBuildingUniformStateEED2B8ue170006Ev
__ZNSt3__110shared_ptrIN7gmscore6vector26RankMergingFeatureIteratorEED2B8ue170006Ev
__ZNSt3__110shared_ptrIN7gmscore6vector26RankMergingFeatureIteratorEEaSB8ue170006EOS4_
__ZNSt3__110shared_ptrIN7gmscore6vector26RankMergingFeatureIteratorEEaSB8ue170006ERKS4_
__ZNSt3__110shared_ptrIN7gmscore6vector27ClientVectorOpsAreaSubgroupEE5resetB8ue170006Ev
__ZNSt3__110shared_ptrIN7gmscore6vector27ClientVectorOpsAreaSubgroupEED2B8ue170006Ev
__ZNSt3__110shared_ptrIN7gmscore6vector27LabelingCandidateClassifierEED2B8ue170006Ev
__ZNSt3__110shared_ptrIN7gmscore6vector27MetalBreadcrumbUniformStateEED2B8ue170006Ev
__ZNSt3__110shared_ptrIN7gmscore8renderer11MetalBufferEED2B8ue170006Ev
__ZNSt3__110shared_ptrIN7gmscore8renderer11MetalBufferEEaSB8ue170006ERKS4_
__ZNSt3__110shared_ptrIN7gmscore8renderer12MetalTextureEED2B8ue170006Ev
__ZNSt3__110shared_ptrIN7gmscore8renderer12MetalTextureEEaSB8ue170006EOS4_
__ZNSt3__110shared_ptrIN7gmscore8renderer12MetalTextureEEaSB8ue170006ERKS4_
__ZNSt3__110shared_ptrIN7gmscore8renderer16MetalRenderStateEE5resetB8ue170006Ev
__ZNSt3__110shared_ptrIN7gmscore8renderer16MetalRenderStateEED2B8ue170006Ev
__ZNSt3__110shared_ptrIN7gmscore8renderer16MetalRenderStateEEaSB8ue170006ERKS4_
__ZNSt3__110shared_ptrIN7gmscore8renderer17MetalBufferObjectEED2B8ue170006Ev
__ZNSt3__110shared_ptrIN7gmscore8renderer17MetalUniformStateEED2B8ue170006Ev
__ZNSt3__110shared_ptrIN7gmscore8renderer17MetalUniformStateEEaSB8ue170006EOS4_
__ZNSt3__110shared_ptrIN7gmscore8renderer18MetalPooledTextureEED2B8ue170006Ev
__ZNSt3__110shared_ptrIN7gmscore8renderer21MetalFadeUniformStateEE5resetB8ue170006Ev
__ZNSt3__110shared_ptrIN7gmscore8renderer21MetalFadeUniformStateEED2B8ue170006Ev
__ZNSt3__110shared_ptrIN7gmscore8renderer21MetalFadeUniformStateEEaSB8ue170006EOS4_
__ZNSt3__110shared_ptrIN7gmscore8renderer22MetalBufferRenderStateEED2B8ue170006Ev
__ZNSt3__110shared_ptrIN7gmscore8renderer22MetalBufferRenderStateEEaSB8ue170006EOS4_
__ZNSt3__110shared_ptrIN7gmscore8renderer22MetalBufferRenderStateEEaSB8ue170006ERKS4_
__ZNSt3__110shared_ptrIN7gmscore8renderer22MetalColorUniformStateEED2B8ue170006Ev
__ZNSt3__110shared_ptrIN7gmscore8renderer22MetalColorUniformStateEEaSB8ue170006EOS4_
__ZNSt3__110shared_ptrIN7gmscore8renderer22MetalTypedBufferObjectINS1_6vector10PointStyleEEEED2B8ue170006Ev
__ZNSt3__110shared_ptrIN7gmscore8renderer22MetalTypedBufferObjectINS1_6vector11PointVertexEEEED2B8ue170006Ev
__ZNSt3__110shared_ptrIN7gmscore8renderer22MetalTypedBufferObjectINS1_6vector14BreadcrumbQuadEEEED2B8ue170006Ev
__ZNSt3__110shared_ptrIN7gmscore8renderer22MetalTypedBufferObjectINS1_6vector15BasicTextVertexEEEED2B8ue170006Ev
__ZNSt3__110shared_ptrIN7gmscore8renderer22MetalTypedBufferObjectINS1_6vector15BasicTextVertexEEEEaSB8ue170006EOS7_
__ZNSt3__110shared_ptrIN7gmscore8renderer22MetalTypedBufferObjectINS1_6vector15BreadcrumbStyleEEEED2B8ue170006Ev
__ZNSt3__110shared_ptrIN7gmscore8renderer22MetalTypedBufferObjectINS1_6vector16BreadcrumbVertexEEEED2B8ue170006Ev
__ZNSt3__110shared_ptrIN7gmscore8renderer22MetalTypedBufferObjectINS1_6vector16BreadcrumbVertexEEEEaSB8ue170006EOS7_
__ZNSt3__110shared_ptrIN7gmscore8renderer22MetalTypedBufferObjectINS1_6vector16ColoredAreaStyleEEEED2B8ue170006Ev
__ZNSt3__110shared_ptrIN7gmscore8renderer22MetalTypedBufferObjectINS1_6vector16ColoredAreaStyleEEEEaSB8ue170006EOS7_
__ZNSt3__110shared_ptrIN7gmscore8renderer22MetalTypedBufferObjectINS1_6vector16StyledTextVertexEEEED2B8ue170006Ev
__ZNSt3__110shared_ptrIN7gmscore8renderer22MetalTypedBufferObjectINS1_6vector17TexturedAreaStyleEEEED2B8ue170006Ev
__ZNSt3__110shared_ptrIN7gmscore8renderer22MetalTypedBufferObjectINS1_6vector17TexturedAreaStyleEEEEaSB8ue170006EOS7_
__ZNSt3__110shared_ptrIN7gmscore8renderer22MetalTypedBufferObjectINS1_6vector19MetalBuildingVertexEEEED2B8ue170006Ev
__ZNSt3__110shared_ptrIN7gmscore8renderer22MetalTypedBufferObjectINS1_6vector21NinePatchSpriteRegionEEEED2B8ue170006Ev
__ZNSt3__110shared_ptrIN7gmscore8renderer22MetalTypedBufferObjectINS2_12SimpleVertexEEEED2B8ue170006Ev
__ZNSt3__110shared_ptrIN7gmscore8renderer22MetalTypedBufferObjectINS2_12SimpleVertexEEEEaSB8ue170006EOS6_
__ZNSt3__110shared_ptrIN7gmscore8renderer22MetalTypedBufferObjectINS2_13ColoredVertexEEEED2B8ue170006Ev
__ZNSt3__110shared_ptrIN7gmscore8renderer22MetalTypedBufferObjectINS2_14TexturedVertexEEEED2B8ue170006Ev
__ZNSt3__110shared_ptrIN7gmscore8renderer22MetalTypedBufferObjectINS2_14TexturedVertexEEEEaSB8ue170006EOS6_
__ZNSt3__110shared_ptrIN7gmscore8renderer22MetalTypedBufferObjectINS2_24AlphaArrayTexturedVertexEEEED2B8ue170006Ev
__ZNSt3__110shared_ptrIN7gmscore8renderer22MetalTypedBufferObjectINS2_24AlphaArrayTexturedVertexEEEEaSB8ue170006EOS6_
__ZNSt3__110shared_ptrIN7gmscore8renderer22MetalTypedBufferObjectIjEEED2B8ue170006Ev
__ZNSt3__110shared_ptrIN7gmscore8renderer22MetalTypedBufferObjectIjEEEaSB8ue170006EOS5_
__ZNSt3__110shared_ptrIN7gmscore8renderer22MetalTypedBufferObjectItEEED2B8ue170006Ev
__ZNSt3__110shared_ptrIN7gmscore8renderer22MetalTypedBufferObjectItEEEaSB8ue170006EOS5_
__ZNSt3__110shared_ptrIN7gmscore8renderer23MetalTextureRenderStateEED2B8ue170006Ev
__ZNSt3__110shared_ptrIN7gmscore8renderer23MetalTextureRenderStateEEaSB8ue170006EOS4_
__ZNSt3__110shared_ptrIN7gmscore8renderer23MetalTextureRenderStateEEaSB8ue170006ERKS4_
__ZNSt3__110shared_ptrIN7gmscore8renderer24MetalPipelineRenderStateEED2B8ue170006Ev
__ZNSt3__110shared_ptrIN7gmscore8renderer24MetalPipelineRenderStateEEaSB8ue170006EOS4_
__ZNSt3__110shared_ptrIN7gmscore8renderer24MetalPipelineRenderStateEEaSB8ue170006ERKS4_
__ZNSt3__110shared_ptrIN7gmscore8renderer28MetalDepthStencilRenderStateEED2B8ue170006Ev
__ZNSt3__110shared_ptrIN7gmscore8renderer28MetalDepthStencilRenderStateEEaSB8ue170006EOS4_
__ZNSt3__110shared_ptrIN7gmscore8renderer30MetalCullingWindingRenderStateEED2B8ue170006Ev
__ZNSt3__110shared_ptrIN8GMSx_imp13GMSx_internal10FutureImpl17FutureImplWrapperEED2B8un170006Ev
__ZNSt3__110shared_ptrIN8GMSx_imp13GMSx_internal10FutureImpl17FutureImplWrapperEEaSB8un170006ERKS5_
__ZNSt3__110shared_ptrIN8GMSx_imp13GMSx_internal10FutureImplEED2B8un170006Ev
__ZNSt3__110shared_ptrIN8renderer8Behavior44LabelsEntityProviderLabelingBehaviorListenerEED2B8ue170006Ev
__ZNSt3__110shared_ptrIN9GMSx_absl5MutexEED2B8ue170006Ev
__ZNSt3__110shared_ptrIN9GMSx_absl5MutexEEaSB8ue170006ERKS3_
__ZNSt3__110shared_ptrIN9GMSx_util14SimulatedClock10WakeUpInfoEED2B8ue170006Ev
__ZNSt3__110shared_ptrIbED2B8ue170006Ev
__ZNSt3__110unique_ptrI21GMSx_SRLRegistryIvarsNS_14default_deleteIS1_EEE5resetB8un170006EPS1_
__ZNSt3__110unique_ptrI22SRLMemoizingScopeIvarsNS_14default_deleteIS1_EEE5resetB8un170006EPS1_
__ZNSt3__110unique_ptrIKN22GMSx_maps_paint_client21MapsMetadataContainerENS_14default_deleteIS3_EEE5resetB8un170006EPS3_
__ZNSt3__110unique_ptrIKN7gmscore6vector13NinePatchInfoENS_14default_deleteIS4_EEE5resetB8ue170006EPS4_
__ZNSt3__110unique_ptrIKN9GMSx_absl13time_internal4cctz9time_zone4ImplENS_14default_deleteIS6_EEED1B8ue170006Ev
__ZNSt3__110unique_ptrIN11GMSx_proto210FeatureSetENS_14default_deleteIS2_EEE5resetB8ue170006EPS2_
__ZNSt3__110unique_ptrIN11GMSx_proto214DescriptorPool6TablesENS_14default_deleteIS3_EEED1B8ue170006Ev
__ZNSt3__110unique_ptrIN11GMSx_proto215UnknownFieldSetENS_14default_deleteIS2_EEE5resetB8ue170006EPS2_
__ZNSt3__110unique_ptrIN11GMSx_proto217DescriptorBuilderENS_14default_deleteIS2_EEED1B8ue170006Ev
__ZNSt3__110unique_ptrIN11GMSx_proto218FeatureSetDefaultsENS_14default_deleteIS2_EEE5resetB8ue170006EPS2_
__ZNSt3__110unique_ptrIN12GMSx_mapcore5style14LazyStyleTableENS_14default_deleteIS3_EEE5resetB8un170006EPS3_
__ZNSt3__110unique_ptrIN12GMSx_mapcore7labeler11RestrictionENS_14default_deleteIS3_EEE5resetB8ue170006EPS3_
__ZNSt3__110unique_ptrIN12GMSx_mapcore7labeler11RestrictionENS_14default_deleteIS3_EEED1B8ue170006Ev
__ZNSt3__110unique_ptrIN12GMSx_mapcore7labeler12StyleTracker17ResolvedEpochDataENS_14default_deleteIS4_EEE5resetB8un170006EPS4_
__ZNSt3__110unique_ptrIN12GMSx_mapcore7labeler13ResolvedStyleENS_14default_deleteIS3_EEE5resetB8un170006EPS3_
__ZNSt3__110unique_ptrIN12GMSx_mapcore7labeler16CalloutCandidateENS_14default_deleteIS3_EEED1B8un170006Ev
__ZNSt3__110unique_ptrIN12GMSx_mapcore7labeler16NinePatchRegionsENS_14default_deleteIS3_EEE5resetB8un170006EPS3_
__ZNSt3__110unique_ptrIN12GMSx_mapcore7labeler17ResolvedAnimationENS_14default_deleteIS3_EEE5resetB8un170006EPS3_
__ZNSt3__110unique_ptrIN12GMSx_mapcore7labeler19MeasureTextRequestsENS_14default_deleteIS3_EEED1B8un170006Ev
__ZNSt3__110unique_ptrIN12GMSx_mapcore7labeler20LabelCandidateBundleENS_14default_deleteIS3_EEED1B8un170006Ev
__ZNSt3__110unique_ptrIN12GMSx_mapcore7labeler24MeasureIconLayerRequestsENS_14default_deleteIS3_EEED1B8un170006Ev
__ZNSt3__110unique_ptrIN12GMSx_mapcore7labeler31MultipleRepresentationsSplitterENS_14default_deleteIS3_EEED1B8un170006Ev
__ZNSt3__110unique_ptrIN12GMSx_mapcore7labeler7BSPTreeENS_14default_deleteIS3_EEE5resetB8un170006EPS3_
__ZNSt3__110unique_ptrIN12GMSx_mapcore7labeler8Vector2DENS_14default_deleteIS3_EEE5resetB8un170006EPS3_
__ZNSt3__110unique_ptrIN12GMSx_riegeli5Chain8RawBlockENS1_18IntrusiveSharedPtrIS3_E7UnreferEE5resetB8ue170006EPS3_
__ZNSt3__110unique_ptrIN12GMSx_riegeli6BufferENS1_9SharedPtrIS2_E7UnreferEE5resetB8ue170006EPS2_
__ZNSt3__110unique_ptrIN16GMSx_maps_shared4geom6CameraENS_14default_deleteIS3_EEE5resetB8un170006EPS3_
__ZNSt3__110unique_ptrIN22GMSx_maps_paint_client13IconAnimationENS_14default_deleteIS2_EEE5resetB8ue170006EPS2_
__ZNSt3__110unique_ptrIN22GMSx_maps_paint_client13TextAnimationENS_14default_deleteIS2_EEE5resetB8ue170006EPS2_
__ZNSt3__110unique_ptrIN22GMSx_maps_paint_client14MultiZoomStyleENS_14default_deleteIS2_EEE5resetB8un170006EPS2_
__ZNSt3__110unique_ptrIN22GMSx_maps_paint_client19TransitionAnimationENS_14default_deleteIS2_EEE5resetB8ue170006EPS2_
__ZNSt3__110unique_ptrIN22GMSx_maps_paint_client9AnimationENS_14default_deleteIS2_EEE5resetB8un170006EPS2_
__ZNSt3__110unique_ptrIN23GMSx_geo_imagery_viewer12platform_ios14IVIOSGLContextENS_14default_deleteIS3_EEE5resetB8ue170006EPS3_
__ZNSt3__110unique_ptrIN23GMSx_geo_imagery_viewer12platform_ios18scoped_eaglcontextENS_14default_deleteIS3_EEE5resetB8ue170006EPS3_
__ZNSt3__110unique_ptrIN23GMSx_geo_imagery_viewer3api13TaskContainerENS_14default_deleteIS3_EEED1B8ue170006Ev
__ZNSt3__110unique_ptrIN23GMSx_geo_imagery_viewer3api16RequestContainerINS2_10IconSourceENS2_5ImageEEENS_14default_deleteIS6_EEED1B8ue170006Ev
__ZNSt3__110unique_ptrIN23GMSx_geo_imagery_viewer3api16RequestContainerINS2_23AreaConnectivityRequestENS2_24AreaConnectivityResponseEEENS_14default_deleteIS6_EEED1B8ue170006Ev
__ZNSt3__110unique_ptrIN23GMSx_geo_imagery_viewer3api16RequestContainerINS2_4TileENS2_5ImageEEENS_14default_deleteIS6_EEED1B8ue170006Ev
__ZNSt3__110unique_ptrIN23GMSx_geo_imagery_viewer3api17IconOptions_LabelENS_14default_deleteIS3_EEED1B8ue170006Ev
__ZNSt3__110unique_ptrIN23GMSx_geo_imagery_viewer3api24AreaConnectivityResponseENS_14default_deleteIS3_EEE5resetB8ue170006EPS3_
__ZNSt3__110unique_ptrIN23GMSx_geo_imagery_viewer3api24AreaConnectivityResponseENS_14default_deleteIS3_EEED1B8ue170006Ev
__ZNSt3__110unique_ptrIN23GMSx_geo_imagery_viewer4core12PendingPhotoENS_14default_deleteIS3_EEE5resetB8ue170006EPS3_
__ZNSt3__110unique_ptrIN23GMSx_geo_imagery_viewer4core14MetalResourcesENS_14default_deleteIS3_EEE5resetB8ue170006EPS3_
__ZNSt3__110unique_ptrIN23GMSx_geo_imagery_viewer4core16MetalPassManagerENS_14default_deleteIS3_EEE5resetB8ue170006EPS3_
__ZNSt3__110unique_ptrIN23GMSx_geo_imagery_viewer4pano12TexturedMeshENS_14default_deleteIS3_EEED1B8ue170006Ev
__ZNSt3__110unique_ptrIN23GMSx_geo_imagery_viewer5swipe21AreaConnectivityGraphENS_14default_deleteIS3_EEE5resetB8ue170006EPS3_
__ZNSt3__110unique_ptrIN23GMSx_geo_imagery_viewer7overlay15RouteArrowModelENS_14default_deleteIS3_EEE5resetB8ue170006EPS3_
__ZNSt3__110unique_ptrIN23GMSx_geo_imagery_viewer7overlay8geometry6CircleENS_14default_deleteIS4_EEE5resetB8ue170006EPS4_
__ZNSt3__110unique_ptrIN23GMSx_geo_imagery_viewer7overlay9PhotoRailENS_14default_deleteIS3_EEE5resetB8ue170006EPS3_
__ZNSt3__110unique_ptrIN4base26GMSx_SecurityContextHandle23GMSx_RefcountedSecurityENS2_10ReleaseRefEE5resetB8ue170006EPS3_
__ZNSt3__110unique_ptrIN7gmscore4dash11CookieStoreENS_14default_deleteIS3_EEE5resetB8ue170006EPS3_
__ZNSt3__110unique_ptrIN7gmscore5utils7BSPTreeIPKNS1_6vector16LabelableFeatureEEENS_14default_deleteIS8_EEE5resetB8ue170006EPS8_
__ZNSt3__110unique_ptrIN7gmscore6vector11PlacedLabelENS_14default_deleteIS3_EEED1B8ue170006Ev
__ZNSt3__110unique_ptrIN7gmscore6vector12TextureCacheENS_14default_deleteIS3_EEE5resetB8ue170006EPS3_
__ZNSt3__110unique_ptrIN7gmscore6vector13LabelRendererENS_14default_deleteIS3_EEE5resetB8ue170006EPS3_
__ZNSt3__110unique_ptrIN7gmscore6vector14LabelingParamsENS_14default_deleteIS3_EEED1B8ue170006Ev
__ZNSt3__110unique_ptrIN7gmscore6vector18PolylineSimplifierENS_14default_deleteIS3_EEED1B8ue170006Ev
__ZNSt3__110unique_ptrIN7gmscore6vector19MutableStateTrackerENS_14default_deleteIS3_EEE5resetB8ue170006EPS3_
__ZNSt3__110unique_ptrIN7gmscore6vector19MutableStateTrackerENS_14default_deleteIS3_EEED1B8ue170006Ev
__ZNSt3__110unique_ptrIN7gmscore6vector20ClientVectorOpsGroupENS_14default_deleteIS3_EEED1B8ue170006Ev
__ZNSt3__110unique_ptrIN7gmscore6vector6detail11FeatureDataENS_14default_deleteIS4_EEE5resetB8ue170006EPS4_
__ZNSt3__110unique_ptrIN7gmscore8renderer11MetalEntity8PassInfoENS_14default_deleteIS4_EEE5resetB8ue170006EPS4_
__ZNSt3__110unique_ptrIN7gmscore8renderer16MetalTexturePoolENS_14default_deleteIS3_EEE5resetB8ue170006EPS3_
__ZNSt3__110unique_ptrIN7gmscore8renderer26MetalRenderStateControllerENS_14default_deleteIS3_EEE5resetB8ue170006EPS3_
__ZNSt3__110unique_ptrIN9GMSx_absl12AnyInvocableIKFvNS1_11FunctionRefIFvvEEEEEENS_14default_deleteIS7_EEED2B8ue170006Ev
__ZNSt3__110unique_ptrIN9GMSx_absl12log_internal10LogMessage14LogMessageDataENS_14default_deleteIS4_EEED1B8ue170006Ev
__ZNSt3__110unique_ptrIN9GMSx_absl13InlinedVectorINS1_15status_internal7PayloadELm1ENS_9allocatorIS4_EEEENS_14default_deleteIS7_EEE5resetB8ue170006EPS7_
__ZNSt3__110unique_ptrIN9GMSx_absl13InlinedVectorINS1_15status_internal7PayloadELm1ENS_9allocatorIS4_EEEENS_14default_deleteIS7_EEED1B8ue170006Ev
__ZNSt3__110unique_ptrIN9GMSx_absl13base_internal14ThreadIdentityEPFvPvEED1B8ue170006Ev
__ZNSt3__110unique_ptrIN9GMSx_absl5MutexENS_14default_deleteIS2_EEED1B8ue170006Ev
__ZNSt3__110unique_ptrIN9GMSx_util13StatusBuilder3RepENS_14default_deleteIS3_EEE5resetB8ue170006EPS3_
__ZNSt3__110unique_ptrINS_10shared_ptrIN7gmscore6vector16LabelableFeatureEEERNS_12__destruct_nEED2B8ue170006Ev
__ZNSt3__110unique_ptrINS_11__hash_nodeINS_17__hash_value_typeI12GMSFeatureIDNS_10shared_ptrIN7gmscore6vector11LabelSourceEEEEEPvEENS_22__hash_node_destructorINS_9allocatorISB_EEEEED1B8ue170006Ev
__ZNSt3__110unique_ptrINS_11__hash_nodeINS_17__hash_value_typeImN7gmscore8renderer26MetalRenderStateController15BufferAndOffsetEEEPvEENS_22__hash_node_destructorINS_9allocatorIS9_EEEEED1B8ue170006Ev
__ZNSt3__110unique_ptrINS_11__hash_nodeINS_17__hash_value_typeImNS_10shared_ptrIN7gmscore8renderer12MetalTextureEEEEEPvEENS_22__hash_node_destructorINS_9allocatorISA_EEEEED1B8ue170006Ev
__ZNSt3__110unique_ptrINS_11__tree_nodeIN7gmscore4base10reffed_ptrINS2_6vector6SpriteEEEPvEENS_22__tree_node_destructorINS_9allocatorIS9_EEEEED1B8ue170006Ev
__ZNSt3__110unique_ptrINS_11__tree_nodeIN7gmscore4base10reffed_ptrINS2_8renderer10BaseEntityEEEPvEENS_22__tree_node_destructorINS_9allocatorIS9_EEEEED1B8ue170006Ev
__ZNSt3__110unique_ptrINS_11__tree_nodeIN7gmscore4base10reffed_ptrINS2_8renderer12RenderTargetEEEPvEENS_22__tree_node_destructorINS_9allocatorIS9_EEEEED1B8ue170006Ev
__ZNSt3__110unique_ptrINS_11__tree_nodeIN7gmscore4base10reffed_ptrINS2_8renderer8BehaviorEEEPvEENS_22__tree_node_destructorINS_9allocatorIS9_EEEEED1B8ue170006Ev
__ZNSt3__110unique_ptrINS_11__tree_nodeIN7gmscore4base10reffed_ptrINS2_8renderer8Camera3DEEEPvEENS_22__tree_node_destructorINS_9allocatorIS9_EEEEED1B8ue170006Ev
__ZNSt3__110unique_ptrINS_11__tree_nodeINS_10shared_ptrIN7gmscore6vector11RenderLabelEEEPvEENS_22__tree_node_destructorINS_9allocatorIS8_EEEEED1B8ue170006Ev
__ZNSt3__110unique_ptrINS_11__tree_nodeINS_10shared_ptrIN7gmscore6vector16LabelableFeatureEEEPvEENS_22__tree_node_destructorINS_9allocatorIS8_EEEEED1B8ue170006Ev
__ZNSt3__110unique_ptrINS_11__tree_nodeINS_12__value_typeIN23GMSx_geo_imagery_viewer3api7PhotoIdENS_15__list_iteratorINS_4pairIS5_NS_10shared_ptrINS3_4core5PhotoEEEEEPvEEEESD_EENS_22__tree_node_destructorINS_9allocatorISG_EEEEED1B8ue170006Ev
__ZNSt3__110unique_ptrINS_11__tree_nodeINS_12__value_typeIN23GMSx_geo_imagery_viewer3api7PhotoIdEiEEPvEENS_22__tree_node_destructorINS_9allocatorIS8_EEEEED1B8ue170006Ev
__ZNSt3__110unique_ptrINS_11__tree_nodeINS_12__value_typeIN23GMSx_geo_imagery_viewer4core12TileCacheKeyENS_15__list_iteratorINS_4pairIS5_NS0_INS3_4pano4TileENS_14default_deleteIS9_EEEEEEPvEEEESE_EENS_22__tree_node_destructorINS_9allocatorISH_EEEEED1B8ue170006Ev
__ZNSt3__110unique_ptrINS_11__tree_nodeINS_12__value_typeIN9GMSx_absl11string_viewEN22GMSx_GoogleInitializer15InitializerDataEEEPvEENS_22__tree_node_destructorINS_9allocatorIS9_EEEEED1B8ue170006Ev
__ZNSt3__110unique_ptrINS_11__tree_nodeINS_12__value_typeIN9GMSx_absl4TimeENS_10shared_ptrIN9GMSx_util14SimulatedClock10WakeUpInfoEEEEEPvEENS_22__tree_node_destructorINS_9allocatorISC_EEEEED1B8ue170006Ev
__ZNSt3__110unique_ptrINS_11__tree_nodeINS_12__value_typeIPKvN7gmscore4base10reffed_ptrINS5_6vector21SameTextureGlyphBatchEEEEEPvEENS_22__tree_node_destructorINS_9allocatorISD_EEEEED1B8ue170006Ev
__ZNSt3__110unique_ptrINS_11__tree_nodeINS_12__value_typeIiN7gmscore8renderer15SortedRenderBinEEEPvEENS_22__tree_node_destructorINS_9allocatorIS8_EEEEED1B8ue170006Ev
__ZNSt3__110unique_ptrINS_11__tree_nodeINS_12__value_typeIjNS_10shared_ptrIN12GMSx_NSSInfoI5groupjjL_Z10getgrgid_rEE8CacheRecEEEEEPvEENS_22__tree_node_destructorINS_9allocatorISB_EEEEED1B8ue170006Ev
__ZNSt3__110unique_ptrINS_11__tree_nodeINS_12__value_typeIjNS_10shared_ptrIN12GMSx_NSSInfoI6passwdjjL_Z10getpwuid_rEE8CacheRecEEEEEPvEENS_22__tree_node_destructorINS_9allocatorISB_EEEEED1B8ue170006Ev
__ZNSt3__110unique_ptrINS_11__tree_nodeINS_12__value_typeIjNS_4pairIU8__strongP20GMSPolylineDrawStyleN7gmscore6vector29FeatureStyleWithConsumedStyleEEEEEPvEENS_22__tree_node_destructorINS_9allocatorISD_EEEEED1B8ue170006Ev
__ZNSt3__110unique_ptrINS_11__tree_nodeINS_12__value_typeImN7gmscore4base10reffed_ptrINS3_6vector17GMSMarkupInstanceEEEEEPvEENS_22__tree_node_destructorINS_9allocatorISB_EEEEED1B8ue170006Ev
__ZNSt3__110unique_ptrINS_11__tree_nodeINS_12__value_typeItN7gmscore4base10reffed_ptrINS3_6vector4text17TextureAtlasGlyphEEEEEPvEENS_22__tree_node_destructorINS_9allocatorISC_EEEEED1B8ue170006Ev
__ZNSt3__110unique_ptrINS_13unordered_setINS_12basic_stringIcNS_11char_traitsIcEENS_9allocatorIcEEEENS_4hashIS7_EENS_8equal_toIS7_EENS5_IS7_EEEENS_14default_deleteISD_EEED1B8ue170006Ev
__ZNSt3__110unique_ptrIvN9GMSx_absl14flags_internal15DynValueDeleterEE5resetB8ue170006EPv
__ZNSt3__111__find_implB8ue170006IPN7gmscore6vector18TextureAtlasRegionES4_S3_NS_10__identityEEET_S6_T0_RKT1_RT2_
__ZNSt3__111__find_implB8ue170006IPNS_12basic_stringIcNS_11char_traitsIcEENS_9allocatorIcEEEES7_N9GMSx_absl11string_viewENS_10__identityEEET_SB_T0_RKT1_RT2_
__ZNSt3__111__sift_downB8ue170006INS_17_ClassicAlgPolicyER25GMSx_FilenameFlagnameLessP24GMSx_CommandLineFlagInfoEEvT1_OT0_NS_15iterator_traitsIS6_E15difference_typeES6_
__ZNSt3__111__sift_downB8ue170006INS_17_ClassicAlgPolicyERN11GMSx_proto213GMSx_internal12MapKeySorter16MapKeyComparatorEPNS2_6MapKeyEEEvT1_OT0_NS_15iterator_traitsIS9_E15difference_typeES9_
__ZNSt3__111__sift_downB8ue170006INS_17_ClassicAlgPolicyERN11GMSx_proto213GMSx_internal17MapSorterLessThanIjEEPNS_4pairIjPKvEEEEvT1_OT0_NS_15iterator_traitsISC_E15difference_typeESC_
__ZNSt3__111__sift_downB8ue170006INS_17_ClassicAlgPolicyERN11GMSx_proto213GMSx_internal17MapSorterLessThanIxEEPNS_4pairIxPKvEEEEvT1_OT0_NS_15iterator_traitsISC_E15difference_typeESC_
__ZNSt3__111__sift_downB8ue170006INS_17_ClassicAlgPolicyERN11GMSx_proto213GMSx_internal17MapSorterLessThanIyEEPNS_4pairIyPKvEEEEvT1_OT0_NS_15iterator_traitsISC_E15difference_typeESC_
__ZNSt3__111__sift_downB8ue170006INS_17_ClassicAlgPolicyERN11GMSx_proto213GMSx_internal20MapSorterPtrLessThanINS_12basic_stringIcNS_11char_traitsIcEENS_9allocatorIcEEEEEEPPKvEEvT1_OT0_NS_15iterator_traitsISG_E15difference_typeESG_
__ZNSt3__111__sift_downB8ue170006INS_17_ClassicAlgPolicyERN23GMSx_geo_imagery_viewer5swipe16AreaConnectivity19CompareIdIndexPairsEPNS_4pairIPKNS_12basic_stringIcNS_11char_traitsIcEENS_9allocatorIcEEEEiEEEEvT1_OT0_NS_15iterator_traitsISI_E15difference_typeESI_
__ZNSt3__111__sift_downB8ue170006INS_17_ClassicAlgPolicyERN8GMSx_gtl7OrderByIMN23GMSx_geo_imagery_viewer7overlay15IconManagerImpl10PickedIconEdNS2_4LessEEEPS7_EEvT1_OT0_NS_15iterator_traitsISD_E15difference_typeESD_
__ZNSt3__111__sift_downB8ue170006INS_17_ClassicAlgPolicyERNS_6__lessIvvEEPN9GMSx_absl11string_viewEEEvT1_OT0_NS_15iterator_traitsIS8_E15difference_typeES8_
__ZNSt3__111__sift_downB8ue170006INS_17_ClassicAlgPolicyERNS_6__lessIvvEEPNS_12basic_stringIcNS_11char_traitsIcEENS_9allocatorIcEEEEEEvT1_OT0_NS_15iterator_traitsISC_E15difference_typeESC_
__ZNSt3__111__sift_downB8ue170006INS_17_ClassicAlgPolicyERNS_8functionIFbRKN7gmscore4base10reffed_ptrINS3_8renderer10BaseEntityEEESA_EEEPS8_EEvT1_OT0_NS_15iterator_traitsISF_E15difference_typeESF_
__ZNSt3__111__sift_downB8ue170006INS_17_ClassicAlgPolicyERPFbPKN11GMSx_proto215FieldDescriptorES5_EPS5_EEvT1_OT0_NS_15iterator_traitsISA_E15difference_typeESA_
__ZNSt3__111__sift_downB8ue170006INS_17_ClassicAlgPolicyERPFbPN16GMSx_HuffmanCode6SymbolES4_EPS4_EEvT1_OT0_NS_15iterator_traitsIS9_E15difference_typeES9_
__ZNSt3__111__sift_downB8ue170006INS_17_ClassicAlgPolicyERPFbRKN7gmscore4base10reffed_ptrINS2_6vector4text20RenderableGlyphGroupEEESA_EPS8_EEvT1_OT0_NS_15iterator_traitsISF_E15difference_typeESF_
__ZNSt3__111__sift_downB8un170006INS_17_ClassicAlgPolicyERN12GMSx_mapcore7labeler18LabelPtrComparatorEPPNS3_14LabelCandidateEEEvT1_OT0_NS_15iterator_traitsIS9_E15difference_typeES9_
__ZNSt3__111__sift_downB8un170006INS_17_ClassicAlgPolicyERN8GMSx_gtl7OrderByIMN11util_intops6HandleIN12GMSx_mapcore7labeler27LabelCandidateBundleId_tag_EyEEKFyvENS2_4LessEEEPS9_EEvT1_OT0_NS_15iterator_traitsISG_E15difference_typeESG_
__ZNSt3__111make_uniqueB8ue170006IN11GMSx_proto221DynamicMessageFactoryEJEEENS_11__unique_ifIT_E15__unique_singleEDpOT0_
__ZNSt3__111make_uniqueB8ue170006IN7gmscore6vector24MetalMutableTextureAtlasEJU8__strongPU19objcproto9MTLDevice11objc_objectNS3_6FormatEiiiiRiPKNS2_25TextureAtlasLayoutFactoryEfPKcEEENS_11__unique_ifIT_E15__unique_singleEDpOT0_
__ZNSt3__111make_uniqueB8ue170006IN7gmscore6vector28MetalMutableTextureAtlasPoolEJRU8__strongPU19objcproto9MTLDevice11objc_objectNS2_24MetalMutableTextureAtlas6FormatERKiSB_SB_SB_SB_SB_NS_10unique_ptrINS2_35TextureAtlasLayoutGuillotineFactoryENS_14default_deleteISD_EEEERKfRA19_KcEEENS_11__unique_ifIT_E15__unique_singleEDpOT0_
__ZNSt3__111make_uniqueB8ue170006IN7gmscore8renderer12MetalTextureEJRU8__strongPU19objcproto9MTLDevice11objc_objectRU8__strongP20MTLTextureDescriptorRA27_KcEEENS_11__unique_ifIT_E15__unique_singleEDpOT0_
__ZNSt3__111make_uniqueB8un170006IN12GMSx_mapcore7labeler18LineLabelCandidateEJPKNS2_14LabelerOptionsEN11util_intops6HandleINS2_21LabelCandidateId_tag_ExEERKNS8_INS2_18PlacedLabelId_tag_EyEENS2_12RenderOpInfoERKNS_6vectorIN13GMSx_filament4math7details5TVec3IdEENS_9allocatorISL_EEEENS3_7OptionsEEEENS_11__unique_ifIT_E15__unique_singleEDpOT0_
__ZNSt3__111make_uniqueB8un170006IN12GMSx_mapcore7labeler18LineLabelCandidateEJRPKNS2_14LabelerOptionsERN11util_intops6HandleINS2_21LabelCandidateId_tag_ExEERNS9_INS2_18PlacedLabelId_tag_EyEENS2_12RenderOpInfoENS_6vectorIN13GMSx_filament4math7details5TVec3IdEENS_9allocatorISM_EEEEEEENS_11__unique_ifIT_E15__unique_singleEDpOT0_
__ZNSt3__112__hash_tableI12GMSFeatureIDN7gmsbase5model19GMSIndoorIDHashFuncENS3_20GMSIndoorIDEqualFuncENS_9allocatorIS1_EEED2Ev
__ZNSt3__112__hash_tableI12GMSFeatureIDN7gmsbase5model20GMSFeatureIDHashFuncENS3_21GMSFeatureIDEqualFuncENS_9allocatorIS1_EEED2Ev
__ZNSt3__112__hash_tableIN7gmscore5model7Point2DENS_4hashIS3_EENS_8equal_toIS3_EENS_9allocatorIS3_EEE5eraseENS_21__hash_const_iteratorIPNS_11__hash_nodeIS3_PvEEEE
__ZNSt3__112__hash_tableIN7gmscore5model7Point2DENS_4hashIS3_EENS_8equal_toIS3_EENS_9allocatorIS3_EEE6removeENS_21__hash_const_iteratorIPNS_11__hash_nodeIS3_PvEEEE
__ZNSt3__112__hash_tableIN7gmscore5model7Point2DENS_4hashIS3_EENS_8equal_toIS3_EENS_9allocatorIS3_EEED2Ev
__ZNSt3__112__hash_tableINS_12basic_stringIcNS_11char_traitsIcEENS_9allocatorIcEEEENS_4hashIS6_EENS_8equal_toIS6_EENS4_IS6_EEE17__deallocate_nodeEPNS_16__hash_node_baseIPNS_11__hash_nodeIS6_PvEEEE
__ZNSt3__112__hash_tableINS_12basic_stringIcNS_11char_traitsIcEENS_9allocatorIcEEEENS_4hashIS6_EENS_8equal_toIS6_EENS4_IS6_EEE20__node_insert_uniqueEPNS_11__hash_nodeIS6_PvEE
__ZNSt3__112__hash_tableINS_12basic_stringIcNS_11char_traitsIcEENS_9allocatorIcEEEENS_4hashIS6_EENS_8equal_toIS6_EENS4_IS6_EEE28__node_insert_unique_performB8ue170006EPNS_11__hash_nodeIS6_PvEE
__ZNSt3__112__hash_tableINS_12basic_stringIcNS_11char_traitsIcEENS_9allocatorIcEEEENS_4hashIS6_EENS_8equal_toIS6_EENS4_IS6_EEE28__node_insert_unique_prepareB8ue170006EmRS6_
__ZNSt3__112__hash_tableINS_12basic_stringIcNS_11char_traitsIcEENS_9allocatorIcEEEENS_4hashIS6_EENS_8equal_toIS6_EENS4_IS6_EEE5eraseENS_21__hash_const_iteratorIPNS_11__hash_nodeIS6_PvEEEE
__ZNSt3__112__hash_tableINS_12basic_stringIcNS_11char_traitsIcEENS_9allocatorIcEEEENS_4hashIS6_EENS_8equal_toIS6_EENS4_IS6_EEE6removeENS_21__hash_const_iteratorIPNS_11__hash_nodeIS6_PvEEEE
__ZNSt3__112__hash_tableINS_12basic_stringIcNS_11char_traitsIcEENS_9allocatorIcEEEENS_4hashIS6_EENS_8equal_toIS6_EENS4_IS6_EEED2Ev
__ZNSt3__112__hash_tableINS_17__hash_value_typeI12GMSFeatureIDNS_10shared_ptrIN7gmscore6vector11LabelSourceEEEEENS_22__unordered_map_hasherIS2_S8_N7gmsbase5model19GMSIndoorIDHashFuncENSB_20GMSIndoorIDEqualFuncELb1EEENS_21__unordered_map_equalIS2_S8_SD_SC_Lb1EEENS_9allocatorIS8_EEE17__deallocate_nodeEPNS_16__hash_node_baseIPNS_11__hash_nodeIS8_PvEEEE
__ZNSt3__112__hash_tableINS_17__hash_value_typeI12GMSFeatureIDNS_10shared_ptrIN7gmscore6vector11LabelSourceEEEEENS_22__unordered_map_hasherIS2_S8_N7gmsbase5model19GMSIndoorIDHashFuncENSB_20GMSIndoorIDEqualFuncELb1EEENS_21__unordered_map_equalIS2_S8_SD_SC_Lb1EEENS_9allocatorIS8_EEE6removeENS_21__hash_const_iteratorIPNS_11__hash_nodeIS8_PvEEEE
__ZNSt3__112__hash_tableINS_17__hash_value_typeI12GMSFeatureIDNS_10shared_ptrIN7gmscore6vector11LabelSourceEEEEENS_22__unordered_map_hasherIS2_S8_N7gmsbase5model19GMSIndoorIDHashFuncENSB_20GMSIndoorIDEqualFuncELb1EEENS_21__unordered_map_equalIS2_S8_SD_SC_Lb1EEENS_9allocatorIS8_EEED2Ev
__ZNSt3__112__hash_tableINS_17__hash_value_typeI12GMSFeatureIDPN7gmscore5utils8LRUCacheIS2_S2_N7gmsbase5model19GMSIndoorIDHashFuncENS7_20GMSIndoorIDEqualFuncENS7_28GMSFeatureIDMissingValueFuncELb0EE13LRUCacheEntryEEENS_22__unordered_map_hasherIS2_SE_S8_S9_Lb1EEENS_21__unordered_map_equalIS2_SE_S9_S8_Lb1EEENS_9allocatorISE_EEE5eraseENS_21__hash_const_iteratorIPNS_11__hash_nodeISE_PvEEEE
__ZNSt3__112__hash_tableINS_17__hash_value_typeI12GMSFeatureIDPN7gmscore5utils8LRUCacheIS2_S2_N7gmsbase5model19GMSIndoorIDHashFuncENS7_20GMSIndoorIDEqualFuncENS7_28GMSFeatureIDMissingValueFuncELb0EE13LRUCacheEntryEEENS_22__unordered_map_hasherIS2_SE_S8_S9_Lb1EEENS_21__unordered_map_equalIS2_SE_S9_S8_Lb1EEENS_9allocatorISE_EEE6removeENS_21__hash_const_iteratorIPNS_11__hash_nodeISE_PvEEEE
__ZNSt3__112__hash_tableINS_17__hash_value_typeI12GMSFeatureIDPN7gmscore5utils8LRUCacheIS2_S2_N7gmsbase5model19GMSIndoorIDHashFuncENS7_20GMSIndoorIDEqualFuncENS7_28GMSFeatureIDMissingValueFuncELb0EE13LRUCacheEntryEEENS_22__unordered_map_hasherIS2_SE_S8_S9_Lb1EEENS_21__unordered_map_equalIS2_SE_S9_S8_Lb1EEENS_9allocatorISE_EEED2Ev
__ZNSt3__112__hash_tableINS_17__hash_value_typeI12GMSFeatureIDPN7gmscore5utils8LRUCacheIS2_U8__strongP14GMSIndoorLevelN7gmsbase5model19GMSIndoorIDHashFuncENSA_20GMSIndoorIDEqualFuncENS4_28LRUCacheObjCMissingValueFuncIS6_EELb0EE13LRUCacheEntryEEENS_22__unordered_map_hasherIS2_SI_SB_SC_Lb1EEENS_21__unordered_map_equalIS2_SI_SC_SB_Lb1EEENS_9allocatorISI_EEE5eraseENS_21__hash_const_iteratorIPNS_11__hash_nodeISI_PvEEEE
__ZNSt3__112__hash_tableINS_17__hash_value_typeI12GMSFeatureIDPN7gmscore5utils8LRUCacheIS2_U8__strongP14GMSIndoorLevelN7gmsbase5model19GMSIndoorIDHashFuncENSA_20GMSIndoorIDEqualFuncENS4_28LRUCacheObjCMissingValueFuncIS6_EELb0EE13LRUCacheEntryEEENS_22__unordered_map_hasherIS2_SI_SB_SC_Lb1EEENS_21__unordered_map_equalIS2_SI_SC_SB_Lb1EEENS_9allocatorISI_EEE6removeENS_21__hash_const_iteratorIPNS_11__hash_nodeISI_PvEEEE
__ZNSt3__112__hash_tableINS_17__hash_value_typeI12GMSFeatureIDPN7gmscore5utils8LRUCacheIS2_U8__strongP14GMSIndoorLevelN7gmsbase5model19GMSIndoorIDHashFuncENSA_20GMSIndoorIDEqualFuncENS4_28LRUCacheObjCMissingValueFuncIS6_EELb0EE13LRUCacheEntryEEENS_22__unordered_map_hasherIS2_SI_SB_SC_Lb1EEENS_21__unordered_map_equalIS2_SI_SC_SB_Lb1EEENS_9allocatorISI_EEED2Ev
__ZNSt3__112__hash_tableINS_17__hash_value_typeI12GMSFeatureIDPN7gmscore5utils8LRUCacheIS2_U8__strongP17GMSIndoorBuildingN7gmsbase5model20GMSFeatureIDHashFuncENSA_21GMSFeatureIDEqualFuncENS4_24LRUCacheMissingValueFuncIS8_EELb0EE13LRUCacheEntryEEENS_22__unordered_map_hasherIS2_SI_SB_SC_Lb1EEENS_21__unordered_map_equalIS2_SI_SC_SB_Lb1EEENS_9allocatorISI_EEE5eraseENS_21__hash_const_iteratorIPNS_11__hash_nodeISI_PvEEEE
__ZNSt3__112__hash_tableINS_17__hash_value_typeI12GMSFeatureIDPN7gmscore5utils8LRUCacheIS2_U8__strongP17GMSIndoorBuildingN7gmsbase5model20GMSFeatureIDHashFuncENSA_21GMSFeatureIDEqualFuncENS4_24LRUCacheMissingValueFuncIS8_EELb0EE13LRUCacheEntryEEENS_22__unordered_map_hasherIS2_SI_SB_SC_Lb1EEENS_21__unordered_map_equalIS2_SI_SC_SB_Lb1EEENS_9allocatorISI_EEE6removeENS_21__hash_const_iteratorIPNS_11__hash_nodeISI_PvEEEE
__ZNSt3__112__hash_tableINS_17__hash_value_typeI12GMSFeatureIDPN7gmscore5utils8LRUCacheIS2_U8__strongP17GMSIndoorBuildingN7gmsbase5model20GMSFeatureIDHashFuncENSA_21GMSFeatureIDEqualFuncENS4_24LRUCacheMissingValueFuncIS8_EELb0EE13LRUCacheEntryEEENS_22__unordered_map_hasherIS2_SI_SB_SC_Lb1EEENS_21__unordered_map_equalIS2_SI_SC_SB_Lb1EEENS_9allocatorISI_EEED2Ev
__ZNSt3__112__hash_tableINS_17__hash_value_typeI12GMSFeatureIDU8__strongP22GMSIndoorBuildingStateEENS_22__unordered_map_hasherIS2_S6_N7gmsbase5model19GMSIndoorIDHashFuncENS9_20GMSIndoorIDEqualFuncELb1EEENS_21__unordered_map_equalIS2_S6_SB_SA_Lb1EEENS_9allocatorIS6_EEE5eraseENS_21__hash_const_iteratorIPNS_11__hash_nodeIS6_PvEEEE
__ZNSt3__112__hash_tableINS_17__hash_value_typeI12GMSFeatureIDU8__strongP22GMSIndoorBuildingStateEENS_22__unordered_map_hasherIS2_S6_N7gmsbase5model19GMSIndoorIDHashFuncENS9_20GMSIndoorIDEqualFuncELb1EEENS_21__unordered_map_equalIS2_S6_SB_SA_Lb1EEENS_9allocatorIS6_EEE6removeENS_21__hash_const_iteratorIPNS_11__hash_nodeIS6_PvEEEE
__ZNSt3__112__hash_tableINS_17__hash_value_typeI12GMSFeatureIDU8__strongP22GMSIndoorBuildingStateEENS_22__unordered_map_hasherIS2_S6_N7gmsbase5model19GMSIndoorIDHashFuncENS9_20GMSIndoorIDEqualFuncELb1EEENS_21__unordered_map_equalIS2_S6_SB_SA_Lb1EEENS_9allocatorIS6_EEED2Ev
__ZNSt3__112__hash_tableINS_17__hash_value_typeI14SRLScopeTagSetU8__strongP22GMSx_SRLMemoizingScopeEENS_22__unordered_map_hasherIS2_S6_20SRLScopeTagSetHasherNS_8equal_toIS2_EELb1EEENS_21__unordered_map_equalIS2_S6_SA_S8_Lb1EEENS_9allocatorIS6_EEE5eraseENS_21__hash_const_iteratorIPNS_11__hash_nodeIS6_PvEEEE
__ZNSt3__112__hash_tableINS_17__hash_value_typeI14SRLScopeTagSetU8__strongP22GMSx_SRLMemoizingScopeEENS_22__unordered_map_hasherIS2_S6_20SRLScopeTagSetHasherNS_8equal_toIS2_EELb1EEENS_21__unordered_map_equalIS2_S6_SA_S8_Lb1EEENS_9allocatorIS6_EEE6removeENS_21__hash_const_iteratorIPNS_11__hash_nodeIS6_PvEEEE
__ZNSt3__112__hash_tableINS_17__hash_value_typeI14SRLScopeTagSetU8__strongP22GMSx_SRLMemoizingScopeEENS_22__unordered_map_hasherIS2_S6_20SRLScopeTagSetHasherNS_8equal_toIS2_EELb1EEENS_21__unordered_map_equalIS2_S6_SA_S8_Lb1EEENS_9allocatorIS6_EEED2Ev
__ZNSt3__112__hash_tableINS_17__hash_value_typeINS_12basic_stringIcNS_11char_traitsIcEENS_9allocatorIcEEEENS_10shared_ptrIN7gmscore6vector24MetalTextureAtlasElementEEEEENS_22__unordered_map_hasherIS7_SD_NS_4hashIS7_EENS_8equal_toIS7_EELb1EEENS_21__unordered_map_equalIS7_SD_SI_SG_Lb1EEENS5_ISD_EEE17__deallocate_nodeEPNS_16__hash_node_baseIPNS_11__hash_nodeISD_PvEEEE
__ZNSt3__112__hash_tableINS_17__hash_value_typeINS_12basic_stringIcNS_11char_traitsIcEENS_9allocatorIcEEEENS_10shared_ptrIN7gmscore6vector24MetalTextureAtlasElementEEEEENS_22__unordered_map_hasherIS7_SD_NS_4hashIS7_EENS_8equal_toIS7_EELb1EEENS_21__unordered_map_equalIS7_SD_SI_SG_Lb1EEENS5_ISD_EEE5clearEv
__ZNSt3__112__hash_tableINS_17__hash_value_typeINS_12basic_stringIcNS_11char_traitsIcEENS_9allocatorIcEEEENS_10shared_ptrIN7gmscore6vector24MetalTextureAtlasElementEEEEENS_22__unordered_map_hasherIS7_SD_NS_4hashIS7_EENS_8equal_toIS7_EELb1EEENS_21__unordered_map_equalIS7_SD_SI_SG_Lb1EEENS5_ISD_EEE5eraseENS_21__hash_const_iteratorIPNS_11__hash_nodeISD_PvEEEE
__ZNSt3__112__hash_tableINS_17__hash_value_typeINS_12basic_stringIcNS_11char_traitsIcEENS_9allocatorIcEEEENS_10shared_ptrIN7gmscore6vector24MetalTextureAtlasElementEEEEENS_22__unordered_map_hasherIS7_SD_NS_4hashIS7_EENS_8equal_toIS7_EELb1EEENS_21__unordered_map_equalIS7_SD_SI_SG_Lb1EEENS5_ISD_EEE6removeENS_21__hash_const_iteratorIPNS_11__hash_nodeISD_PvEEEE
__ZNSt3__112__hash_tableINS_17__hash_value_typeINS_12basic_stringIcNS_11char_traitsIcEENS_9allocatorIcEEEENS_10shared_ptrIN7gmscore6vector24MetalTextureAtlasElementEEEEENS_22__unordered_map_hasherIS7_SD_NS_4hashIS7_EENS_8equal_toIS7_EELb1EEENS_21__unordered_map_equalIS7_SD_SI_SG_Lb1EEENS5_ISD_EEED2Ev
__ZNSt3__112__hash_tableINS_17__hash_value_typeINS_12basic_stringIcNS_11char_traitsIcEENS_9allocatorIcEEEEPKN9GMSx_absl13time_internal4cctz9time_zone4ImplEEENS_22__unordered_map_hasherIS7_SF_NS_4hashIS7_EENS_8equal_toIS7_EELb1EEENS_21__unordered_map_equalIS7_SF_SK_SI_Lb1EEENS5_ISF_EEE17__deallocate_nodeEPNS_16__hash_node_baseIPNS_11__hash_nodeISF_PvEEEE
__ZNSt3__112__hash_tableINS_17__hash_value_typeINS_12basic_stringIcNS_11char_traitsIcEENS_9allocatorIcEEEEPKN9GMSx_absl13time_internal4cctz9time_zone4ImplEEENS_22__unordered_map_hasherIS7_SF_NS_4hashIS7_EENS_8equal_toIS7_EELb1EEENS_21__unordered_map_equalIS7_SF_SK_SI_Lb1EEENS5_ISF_EEE5clearEv
__ZNSt3__112__hash_tableINS_17__hash_value_typeINS_12basic_stringIcNS_11char_traitsIcEENS_9allocatorIcEEEEPN7gmscore5utils8LRUCacheIS7_NS8_4base10reffed_ptrINS8_8renderer12TextureStateEEENS_4hashIS7_EENS_8equal_toIS7_EENS9_24LRUCacheMissingValueFuncISF_EELb0EE13LRUCacheEntryEEENS_22__unordered_map_hasherIS7_SP_SH_SJ_Lb1EEENS_21__unordered_map_equalIS7_SP_SJ_SH_Lb1EEENS5_ISP_EEE17__deallocate_nodeEPNS_16__hash_node_baseIPNS_11__hash_nodeISP_PvEEEE
__ZNSt3__112__hash_tableINS_17__hash_value_typeINS_12basic_stringIcNS_11char_traitsIcEENS_9allocatorIcEEEEPN7gmscore5utils8LRUCacheIS7_NS8_4base10reffed_ptrINS8_8renderer12TextureStateEEENS_4hashIS7_EENS_8equal_toIS7_EENS9_24LRUCacheMissingValueFuncISF_EELb0EE13LRUCacheEntryEEENS_22__unordered_map_hasherIS7_SP_SH_SJ_Lb1EEENS_21__unordered_map_equalIS7_SP_SJ_SH_Lb1EEENS5_ISP_EEE5eraseENS_21__hash_const_iteratorIPNS_11__hash_nodeISP_PvEEEE
__ZNSt3__112__hash_tableINS_17__hash_value_typeINS_12basic_stringIcNS_11char_traitsIcEENS_9allocatorIcEEEEPN7gmscore5utils8LRUCacheIS7_NS8_4base10reffed_ptrINS8_8renderer12TextureStateEEENS_4hashIS7_EENS_8equal_toIS7_EENS9_24LRUCacheMissingValueFuncISF_EELb0EE13LRUCacheEntryEEENS_22__unordered_map_hasherIS7_SP_SH_SJ_Lb1EEENS_21__unordered_map_equalIS7_SP_SJ_SH_Lb1EEENS5_ISP_EEE6removeENS_21__hash_const_iteratorIPNS_11__hash_nodeISP_PvEEEE
__ZNSt3__112__hash_tableINS_17__hash_value_typeINS_12basic_stringIcNS_11char_traitsIcEENS_9allocatorIcEEEEPN7gmscore5utils8LRUCacheIS7_NS8_4base10reffed_ptrINS8_8renderer12TextureStateEEENS_4hashIS7_EENS_8equal_toIS7_EENS9_24LRUCacheMissingValueFuncISF_EELb0EE13LRUCacheEntryEEENS_22__unordered_map_hasherIS7_SP_SH_SJ_Lb1EEENS_21__unordered_map_equalIS7_SP_SJ_SH_Lb1EEENS5_ISP_EEED2Ev
__ZNSt3__112__hash_tableINS_17__hash_value_typeIP17_opaque_pthread_tNS_6vectorIU8__strongP22GMSx_SRLImplementationNS_9allocatorIS7_EEEEEENS_22__unordered_map_hasherIS3_SB_NS_4hashIS3_EENS_8equal_toIS3_EELb1EEENS_21__unordered_map_equalIS3_SB_SG_SE_Lb1EEENS8_ISB_EEE17__deallocate_nodeEPNS_16__hash_node_baseIPNS_11__hash_nodeISB_PvEEEE
__ZNSt3__112__hash_tableINS_17__hash_value_typeIP17_opaque_pthread_tNS_6vectorIU8__strongP22GMSx_SRLImplementationNS_9allocatorIS7_EEEEEENS_22__unordered_map_hasherIS3_SB_NS_4hashIS3_EENS_8equal_toIS3_EELb1EEENS_21__unordered_map_equalIS3_SB_SG_SE_Lb1EEENS8_ISB_EEED2Ev
__ZNSt3__112__hash_tableINS_17__hash_value_typeIPK23_SRLAPIRegistrationDataU8__strongP12NSMutableSetIP22GMSx_SRLImplementationEEENS_22__unordered_map_hasherIS4_SB_NS_4hashIS4_EENS_8equal_toIS4_EELb1EEENS_21__unordered_map_equalIS4_SB_SG_SE_Lb1EEENS_9allocatorISB_EEED2Ev
__ZNSt3__112__hash_tableINS_17__hash_value_typeIPK23_SRLAPIRegistrationDataU8__strongP22GMSx_SRLImplementationEENS_22__unordered_map_hasherIS4_S8_NS_4hashIS4_EENS_8equal_toIS4_EELb1EEENS_21__unordered_map_equalIS4_S8_SD_SB_Lb1EEENS_9allocatorIS8_EEE19__node_insert_multiEPNS_11__hash_nodeIS8_PvEE
__ZNSt3__112__hash_tableINS_17__hash_value_typeIPK23_SRLAPIRegistrationDataU8__strongP22GMSx_SRLImplementationEENS_22__unordered_map_hasherIS4_S8_NS_4hashIS4_EENS_8equal_toIS4_EELb1EEENS_21__unordered_map_equalIS4_S8_SD_SB_Lb1EEENS_9allocatorIS8_EEE27__node_insert_multi_performEPNS_11__hash_nodeIS8_PvEEPNS_16__hash_node_baseISN_EE
__ZNSt3__112__hash_tableINS_17__hash_value_typeIPK23_SRLAPIRegistrationDataU8__strongP22GMSx_SRLImplementationEENS_22__unordered_map_hasherIS4_S8_NS_4hashIS4_EENS_8equal_toIS4_EELb1EEENS_21__unordered_map_equalIS4_S8_SD_SB_Lb1EEENS_9allocatorIS8_EEE27__node_insert_multi_prepareEmRS8_
__ZNSt3__112__hash_tableINS_17__hash_value_typeIPK23_SRLAPIRegistrationDataU8__strongP22GMSx_SRLImplementationEENS_22__unordered_map_hasherIS4_S8_NS_4hashIS4_EENS_8equal_toIS4_EELb1EEENS_21__unordered_map_equalIS4_S8_SD_SB_Lb1EEENS_9allocatorIS8_EEED2Ev
__ZNSt3__112__hash_tableINS_17__hash_value_typeIPK34_SRLImplementationRegistrationDataU8__strongP11objc_objectEENS_22__unordered_map_hasherIS4_S8_NS_4hashIS4_EENS_8equal_toIS4_EELb1EEENS_21__unordered_map_equalIS4_S8_SD_SB_Lb1EEENS_9allocatorIS8_EEED2Ev
__ZNSt3__112__hash_tableINS_17__hash_value_typeIPK34_SRLImplementationRegistrationDataU8__strongP6NSLockEENS_22__unordered_map_hasherIS4_S8_NS_4hashIS4_EENS_8equal_toIS4_EELb1EEENS_21__unordered_map_equalIS4_S8_SD_SB_Lb1EEENS_9allocatorIS8_EEE5eraseENS_21__hash_const_iteratorIPNS_11__hash_nodeIS8_PvEEEE
__ZNSt3__112__hash_tableINS_17__hash_value_typeIPK34_SRLImplementationRegistrationDataU8__strongP6NSLockEENS_22__unordered_map_hasherIS4_S8_NS_4hashIS4_EENS_8equal_toIS4_EELb1EEENS_21__unordered_map_equalIS4_S8_SD_SB_Lb1EEENS_9allocatorIS8_EEE6removeENS_21__hash_const_iteratorIPNS_11__hash_nodeIS8_PvEEEE
__ZNSt3__112__hash_tableINS_17__hash_value_typeIPK34_SRLImplementationRegistrationDataU8__strongP6NSLockEENS_22__unordered_map_hasherIS4_S8_NS_4hashIS4_EENS_8equal_toIS4_EELb1EEENS_21__unordered_map_equalIS4_S8_SD_SB_Lb1EEENS_9allocatorIS8_EEED2Ev
__ZNSt3__112__hash_tableINS_17__hash_value_typeIPK34_SRLImplementationRegistrationDataU8__strongU13block_pointerFP11objc_objectvEEENS_22__unordered_map_hasherIS4_SA_NS_4hashIS4_EENS_8equal_toIS4_EELb1EEENS_21__unordered_map_equalIS4_SA_SF_SD_Lb1EEENS_9allocatorISA_EEE19__node_insert_multiEPNS_11__hash_nodeISA_PvEE
__ZNSt3__112__hash_tableINS_17__hash_value_typeIPK34_SRLImplementationRegistrationDataU8__strongU13block_pointerFP11objc_objectvEEENS_22__unordered_map_hasherIS4_SA_NS_4hashIS4_EENS_8equal_toIS4_EELb1EEENS_21__unordered_map_equalIS4_SA_SF_SD_Lb1EEENS_9allocatorISA_EEE27__node_insert_multi_performEPNS_11__hash_nodeISA_PvEEPNS_16__hash_node_baseISP_EE
__ZNSt3__112__hash_tableINS_17__hash_value_typeIPK34_SRLImplementationRegistrationDataU8__strongU13block_pointerFP11objc_objectvEEENS_22__unordered_map_hasherIS4_SA_NS_4hashIS4_EENS_8equal_toIS4_EELb1EEENS_21__unordered_map_equalIS4_SA_SF_SD_Lb1EEENS_9allocatorISA_EEE27__node_insert_multi_prepareEmRSA_
__ZNSt3__112__hash_tableINS_17__hash_value_typeIPK34_SRLImplementationRegistrationDataU8__strongU13block_pointerFP11objc_objectvEEENS_22__unordered_map_hasherIS4_SA_NS_4hashIS4_EENS_8equal_toIS4_EELb1EEENS_21__unordered_map_equalIS4_SA_SF_SD_Lb1EEENS_9allocatorISA_EEE28__node_insert_unique_performB8un170006EPNS_11__hash_nodeISA_PvEE
__ZNSt3__112__hash_tableINS_17__hash_value_typeIPK34_SRLImplementationRegistrationDataU8__strongU13block_pointerFP11objc_objectvEEENS_22__unordered_map_hasherIS4_SA_NS_4hashIS4_EENS_8equal_toIS4_EELb1EEENS_21__unordered_map_equalIS4_SA_SF_SD_Lb1EEENS_9allocatorISA_EEE28__node_insert_unique_prepareB8un170006EmRSA_
__ZNSt3__112__hash_tableINS_17__hash_value_typeIPK34_SRLImplementationRegistrationDataU8__strongU13block_pointerFP11objc_objectvEEENS_22__unordered_map_hasherIS4_SA_NS_4hashIS4_EENS_8equal_toIS4_EELb1EEENS_21__unordered_map_equalIS4_SA_SF_SD_Lb1EEENS_9allocatorISA_EEE6removeENS_21__hash_const_iteratorIPNS_11__hash_nodeISA_PvEEEE
__ZNSt3__112__hash_tableINS_17__hash_value_typeIPK34_SRLImplementationRegistrationDataU8__strongU13block_pointerFP11objc_objectvEEENS_22__unordered_map_hasherIS4_SA_NS_4hashIS4_EENS_8equal_toIS4_EELb1EEENS_21__unordered_map_equalIS4_SA_SF_SD_Lb1EEENS_9allocatorISA_EEED2Ev
__ZNSt3__112__hash_tableINS_17__hash_value_typeIPvNS_13unordered_setI12GMSFeatureIDN7gmsbase5model19GMSIndoorIDHashFuncENS6_20GMSIndoorIDEqualFuncENS_9allocatorIS4_EEEEEENS_22__unordered_map_hasherIS2_SC_NS_4hashIS2_EENS_8equal_toIS2_EELb1EEENS_21__unordered_map_equalIS2_SC_SH_SF_Lb1EEENS9_ISC_EEE17__deallocate_nodeEPNS_16__hash_node_baseIPNS_11__hash_nodeISC_S2_EEEE
__ZNSt3__112__hash_tableINS_17__hash_value_typeIPvNS_13unordered_setI12GMSFeatureIDN7gmsbase5model19GMSIndoorIDHashFuncENS6_20GMSIndoorIDEqualFuncENS_9allocatorIS4_EEEEEENS_22__unordered_map_hasherIS2_SC_NS_4hashIS2_EENS_8equal_toIS2_EELb1EEENS_21__unordered_map_equalIS2_SC_SH_SF_Lb1EEENS9_ISC_EEE5clearEv
__ZNSt3__112__hash_tableINS_17__hash_value_typeIPvNS_13unordered_setI12GMSFeatureIDN7gmsbase5model19GMSIndoorIDHashFuncENS6_20GMSIndoorIDEqualFuncENS_9allocatorIS4_EEEEEENS_22__unordered_map_hasherIS2_SC_NS_4hashIS2_EENS_8equal_toIS2_EELb1EEENS_21__unordered_map_equalIS2_SC_SH_SF_Lb1EEENS9_ISC_EEED2Ev
__ZNSt3__112__hash_tableINS_17__hash_value_typeIPvNS_13unordered_setI12GMSFeatureIDN7gmsbase5model20GMSFeatureIDHashFuncENS6_21GMSFeatureIDEqualFuncENS_9allocatorIS4_EEEEEENS_22__unordered_map_hasherIS2_SC_NS_4hashIS2_EENS_8equal_toIS2_EELb1EEENS_21__unordered_map_equalIS2_SC_SH_SF_Lb1EEENS9_ISC_EEE17__deallocate_nodeEPNS_16__hash_node_baseIPNS_11__hash_nodeISC_S2_EEEE
__ZNSt3__112__hash_tableINS_17__hash_value_typeIPvNS_13unordered_setI12GMSFeatureIDN7gmsbase5model20GMSFeatureIDHashFuncENS6_21GMSFeatureIDEqualFuncENS_9allocatorIS4_EEEEEENS_22__unordered_map_hasherIS2_SC_NS_4hashIS2_EENS_8equal_toIS2_EELb1EEENS_21__unordered_map_equalIS2_SC_SH_SF_Lb1EEENS9_ISC_EEE5clearEv
__ZNSt3__112__hash_tableINS_17__hash_value_typeIPvNS_13unordered_setI12GMSFeatureIDN7gmsbase5model20GMSFeatureIDHashFuncENS6_21GMSFeatureIDEqualFuncENS_9allocatorIS4_EEEEEENS_22__unordered_map_hasherIS2_SC_NS_4hashIS2_EENS_8equal_toIS2_EELb1EEENS_21__unordered_map_equalIS2_SC_SH_SF_Lb1EEENS9_ISC_EEED2Ev
__ZNSt3__112__hash_tableINS_17__hash_value_typeIPvNS_13unordered_setINS_12basic_stringIcNS_11char_traitsIcEENS_9allocatorIcEEEENS_4hashIS9_EENS_8equal_toIS9_EENS7_IS9_EEEEEENS_22__unordered_map_hasherIS2_SG_NSA_IS2_EENSC_IS2_EELb1EEENS_21__unordered_map_equalIS2_SG_SJ_SI_Lb1EEENS7_ISG_EEE17__deallocate_nodeEPNS_16__hash_node_baseIPNS_11__hash_nodeISG_S2_EEEE
__ZNSt3__112__hash_tableINS_17__hash_value_typeIPvNS_13unordered_setINS_12basic_stringIcNS_11char_traitsIcEENS_9allocatorIcEEEENS_4hashIS9_EENS_8equal_toIS9_EENS7_IS9_EEEEEENS_22__unordered_map_hasherIS2_SG_NSA_IS2_EENSC_IS2_EELb1EEENS_21__unordered_map_equalIS2_SG_SJ_SI_Lb1EEENS7_ISG_EEED2Ev
__ZNSt3__112__hash_tableINS_17__hash_value_typeIfNS_10unique_ptrIN7gmscore6vector24MetalMutableTextureAtlasENS_14default_deleteIS5_EEEEEENS_22__unordered_map_hasherIfS9_NS_4hashIfEENS_8equal_toIfEELb1EEENS_21__unordered_map_equalIfS9_SE_SC_Lb1EEENS_9allocatorIS9_EEE17__deallocate_nodeEPNS_16__hash_node_baseIPNS_11__hash_nodeIS9_PvEEEE
__ZNSt3__112__hash_tableINS_17__hash_value_typeIfNS_10unique_ptrIN7gmscore6vector24MetalMutableTextureAtlasENS_14default_deleteIS5_EEEEEENS_22__unordered_map_hasherIfS9_NS_4hashIfEENS_8equal_toIfEELb1EEENS_21__unordered_map_equalIfS9_SE_SC_Lb1EEENS_9allocatorIS9_EEED2Ev
__ZNSt3__112__hash_tableINS_17__hash_value_typeIiyEENS_22__unordered_map_hasherIiS2_NS_4hashIiEENS_8equal_toIiEELb1EEENS_21__unordered_map_equalIiS2_S7_S5_Lb1EEENS_9allocatorIS2_EEED2Ev
__ZNSt3__112__hash_tableINS_17__hash_value_typeImN7gmscore8renderer26MetalRenderStateController15BufferAndOffsetEEENS_22__unordered_map_hasherImS6_NS_4hashImEENS_8equal_toImEELb1EEENS_21__unordered_map_equalImS6_SB_S9_Lb1EEENS_9allocatorIS6_EEE17__deallocate_nodeEPNS_16__hash_node_baseIPNS_11__hash_nodeIS6_PvEEEE
__ZNSt3__112__hash_tableINS_17__hash_value_typeImN7gmscore8renderer26MetalRenderStateController15BufferAndOffsetEEENS_22__unordered_map_hasherImS6_NS_4hashImEENS_8equal_toImEELb1EEENS_21__unordered_map_equalImS6_SB_S9_Lb1EEENS_9allocatorIS6_EEED2Ev
__ZNSt3__112__hash_tableINS_17__hash_value_typeImNS_10shared_ptrIN7gmscore8renderer12MetalTextureEEEEENS_22__unordered_map_hasherImS7_NS_4hashImEENS_8equal_toImEELb1EEENS_21__unordered_map_equalImS7_SC_SA_Lb1EEENS_9allocatorIS7_EEE17__deallocate_nodeEPNS_16__hash_node_baseIPNS_11__hash_nodeIS7_PvEEEE
__ZNSt3__112__hash_tableINS_17__hash_value_typeImNS_10shared_ptrIN7gmscore8renderer12MetalTextureEEEEENS_22__unordered_map_hasherImS7_NS_4hashImEENS_8equal_toImEELb1EEENS_21__unordered_map_equalImS7_SC_SA_Lb1EEENS_9allocatorIS7_EEED2Ev
__ZNSt3__112__hash_tableINS_17__hash_value_typeItN7gmscore6vector9CapVertexEEENS_22__unordered_map_hasherItS5_NS_4hashItEENS_8equal_toItEELb1EEENS_21__unordered_map_equalItS5_SA_S8_Lb1EEENS_9allocatorIS5_EEED2Ev
__ZNSt3__112__hash_tableINS_17__hash_value_typeIymEENS_22__unordered_map_hasherIyS2_NS_4hashIyEENS_8equal_toIyEELb1EEENS_21__unordered_map_equalIyS2_S7_S5_Lb1EEENS_9allocatorIS2_EEED2Ev
__ZNSt3__112__hash_tableIPKN9GMSx_absl13cord_internal12GMSx_CordRepENS_4hashIS5_EENS_8equal_toIS5_EENS_9allocatorIS5_EEED2Ev
__ZNSt3__112__hash_tableIiNS_4hashIiEENS_8equal_toIiEENS_9allocatorIiEEED2Ev
__ZNSt3__112__rotate_gcdB8ue170006INS_17_ClassicAlgPolicyENS_11__wrap_iterIPPKN11GMSx_proto27MessageEEEEET0_S9_S9_S9_
__ZNSt3__112basic_stringIcNS_11char_traitsIcEENS_9allocatorIcEEE6appendB8ue170006ERKS5_
__ZNSt3__112basic_stringIcNS_11char_traitsIcEENS_9allocatorIcEEEC1B8ue170006EPKcm
__ZNSt3__112basic_stringIcNS_11char_traitsIcEENS_9allocatorIcEEEC1B8ue170006Emc
__ZNSt3__112basic_stringIcNS_11char_traitsIcEENS_9allocatorIcEEEC2B8ue170006ENS_24__uninitialized_size_tagEmRKS4_
__ZNSt3__112basic_stringIcNS_11char_traitsIcEENS_9allocatorIcEEEaSB8ue170006EOS5_
__ZNSt3__112basic_stringIcNS_11char_traitsIcEENS_9allocatorIcEEEaSB8un170006EOS5_
__ZNSt3__112basic_stringIcNS_11char_traitsIcEENS_9allocatorIcEEEpLB8ue170006ERKS5_
__ZNSt3__113__lower_boundB8ue170006INS_17_ClassicAlgPolicyENS_11__wrap_iterIPKNS_4pairIPKNS_12basic_stringIcNS_11char_traitsIcEENS_9allocatorIcEEEEiEEEESF_SC_NS_10__identityEN23GMSx_geo_imagery_viewer5swipe16AreaConnectivity19CompareIdIndexPairsEEET0_SL_T1_RKT2_RT4_RT3_
__ZNSt3__113__lower_boundB8ue170006INS_17_ClassicAlgPolicyENS_11__wrap_iterIPN11GMSx_proto225EncodedDescriptorDatabase15DescriptorIndex14ExtensionEntryEEES8_NS_4pairIN9GMSx_absl11string_viewEiEENS_10__identityENS5_16ExtensionCompareEEET0_SF_T1_RKT2_RT4_RT3_
__ZNSt3__113__lower_boundB8ue170006INS_17_ClassicAlgPolicyENS_11__wrap_iterIPN11GMSx_proto225EncodedDescriptorDatabase15DescriptorIndex14ExtensionEntryEEES8_NS_5tupleIJN9GMSx_absl11string_viewEiEEENS_10__identityENS5_16ExtensionCompareEEET0_SF_T1_RKT2_RT4_RT3_
__ZNSt3__113__lower_boundB8ue170006INS_17_ClassicAlgPolicyENS_11__wrap_iterIPN11GMSx_proto225EncodedDescriptorDatabase15DescriptorIndex9FileEntryEEES8_N9GMSx_absl11string_viewENS_10__identityENS5_11FileCompareEEET0_SD_T1_RKT2_RT4_RT3_
__ZNSt3__113__lower_boundB8ue170006INS_17_ClassicAlgPolicyENS_11__wrap_iterIPPKN11GMSx_proto27MessageEEES8_S6_NS_10__identityENS3_16DynamicMapSorter25MapEntryMessageComparatorEEET0_SC_T1_RKT2_RT4_RT3_
__ZNSt3__113__lower_boundB8ue170006INS_17_ClassicAlgPolicyENS_11__wrap_iterIPPKN11GMSx_proto27MessageEEES8_S6_NS_10__identityENS3_25MapEntryMessageComparatorEEET0_SB_T1_RKT2_RT4_RT3_
__ZNSt3__113__lower_boundB8ue170006INS_17_ClassicAlgPolicyEPPKcS4_N9GMSx_absl11string_viewENS_10__identityENS_4lessIS6_EEEET0_SA_T1_RKT2_RT4_RT3_
__ZNSt3__113__tree_removeB8ue170006IPNS_16__tree_node_baseIPvEEEEvT_S5_
__ZNSt3__113__upper_boundB8ue170006INS_17_ClassicAlgPolicyERN11GMSx_proto216DynamicMapSorter25MapEntryMessageComparatorENS_11__wrap_iterIPPKNS2_7MessageEEESB_S9_NS_10__identityEEET1_SD_T2_RKT3_OT0_OT4_
__ZNSt3__113__upper_boundB8ue170006INS_17_ClassicAlgPolicyERN11GMSx_proto225MapEntryMessageComparatorENS_11__wrap_iterIPPKNS2_7MessageEEESA_S8_NS_10__identityEEET1_SC_T2_RKT3_OT0_OT4_
__ZNSt3__113unordered_mapIP17_opaque_pthread_tNS_6vectorIU8__strongP22GMSx_SRLImplementationNS_9allocatorIS6_EEEENS_4hashIS2_EENS_8equal_toIS2_EENS7_INS_4pairIKS2_S9_EEEEED1B8ue170006Ev
__ZNSt3__113unordered_setIN7gmscore5model7Point2DENS_4hashIS3_EENS_8equal_toIS3_EENS_9allocatorIS3_EEEC2ERKSA_
__ZNSt3__114__fill_n_falseB8ue170006INS_6vectorIbNS_9allocatorIbEEEEEEvNS_14__bit_iteratorIT_Lb0ELi0EEENS6_9size_typeE
__ZNSt3__114__split_bufferI21GMSLazyMultiZoomStyleRNS_9allocatorIS1_EEED2Ev
__ZNSt3__114__split_bufferI22CLLocationCoordinate2DRNS_9allocatorIS1_EEED2Ev
__ZNSt3__114__split_bufferI24GMSx_CommandLineFlagInfoRNS_9allocatorIS1_EEED2Ev
__ZNSt3__114__split_bufferIN11GMSx_mathfu12VectorPackedIfLi3EEERNS_9allocatorIS3_EEED2Ev
__ZNSt3__114__split_bufferIN11GMSx_mathfu6VectorIdLi3EEERNS_9allocatorIS3_EEED2Ev
__ZNSt3__114__split_bufferIN11GMSx_proto213GMSx_internal17TailCallTableInfo14FieldEntryInfoERNS_9allocatorIS4_EEED2Ev
__ZNSt3__114__split_bufferIN11GMSx_proto213GMSx_internal17TailCallTableInfo14SkipEntryBlockERNS_9allocatorIS4_EEE17__destruct_at_endB8ue170006EPS4_
__ZNSt3__114__split_bufferIN11GMSx_proto213GMSx_internal17TailCallTableInfo14SkipEntryBlockERNS_9allocatorIS4_EEED2Ev
__ZNSt3__114__split_bufferIN11GMSx_proto214DescriptorPool18DeferredValidation13LifetimesInfoERNS_9allocatorIS4_EEED2Ev
__ZNSt3__114__split_bufferIN11GMSx_proto214DescriptorPool6Tables10CheckPointERNS_9allocatorIS4_EEED2Ev
__ZNSt3__114__split_bufferIN11GMSx_proto22io7Printer6Format4LineERNS_9allocatorIS5_EEE17__destruct_at_endB8ue170006EPS5_
__ZNSt3__114__split_bufferIN11GMSx_proto22io7Printer6Format4LineERNS_9allocatorIS5_EEED2Ev
__ZNSt3__114__split_bufferIN11GMSx_proto22io7Printer6Format5ChunkERNS_9allocatorIS5_EEED2Ev
__ZNSt3__114__split_bufferIN11GMSx_proto26MapKeyERNS_9allocatorIS2_EEED2Ev
__ZNSt3__114__split_bufferIN11GMSx_proto29GMSx_util18MessageDifferencer13SpecificFieldERNS_9allocatorIS4_EEED2Ev
__ZNSt3__114__split_bufferIN12GMSx_mapcore16MapLoadingStatusERNS_9allocatorIS2_EEED2Ev
__ZNSt3__114__split_bufferIN12GMSx_mapcore7labeler11RestrictionERNS_9allocatorIS3_EEED2Ev
__ZNSt3__114__split_bufferIN12GMSx_mapcore7labeler14StyleTransformERNS_9allocatorIS3_EEE5clearB8un170006Ev
__ZNSt3__114__split_bufferIN12GMSx_mapcore7labeler14StyleTransformERNS_9allocatorIS3_EEED2Ev
__ZNSt3__114__split_bufferIN12GMSx_mapcore7labeler17PlacedLabelUpdateERNS_9allocatorIS3_EEED2Ev
__ZNSt3__114__split_bufferIN12GMSx_mapcore7labeler17TileLabelOpBundleERNS_9allocatorIS3_EEE17__destruct_at_endB8un170006EPS3_
__ZNSt3__114__split_bufferIN12GMSx_mapcore7labeler17TileLabelOpBundleERNS_9allocatorIS3_EEED2Ev
__ZNSt3__114__split_bufferIN12GMSx_mapcore7labeler18NinepatchIconLayerERNS_9allocatorIS3_EEED2Ev
__ZNSt3__114__split_bufferIN12GMSx_mapcore7labeler18WorldLabelOpBundleERNS_9allocatorIS3_EEE17__destruct_at_endB8un170006EPS3_
__ZNSt3__114__split_bufferIN12GMSx_mapcore7labeler18WorldLabelOpBundleERNS_9allocatorIS3_EEED2Ev
__ZNSt3__114__split_bufferIN12GMSx_mapcore7labeler21CalloutMeasurementJob27CalloutMeasurementCandidateERNS_9allocatorIS4_EEED2Ev
__ZNSt3__114__split_bufferIN12GMSx_mapcore7labeler9IconLayerERNS_9allocatorIS3_EEED2Ev
__ZNSt3__114__split_bufferIN12GMSx_mapcore9RectangleIN13GMSx_filament4math7details5TVec2IfEEEERNS_9allocatorIS8_EEED2Ev
__ZNSt3__114__split_bufferIN12GMSx_mapcore9TileCoordERNS_9allocatorIS2_EEED2Ev
__ZNSt3__114__split_bufferIN13GMSx_filament4math7details5TVec3IdEERNS_9allocatorIS5_EEED2Ev
__ZNSt3__114__split_bufferIN13GMSx_filament4math7details5TVec3IiEERNS_9allocatorIS5_EEED2Ev
__ZNSt3__114__split_bufferIN22GMSx_maps_paint_client18RenderOpAnnotationERNS_9allocatorIS2_EEED2Ev
__ZNSt3__114__split_bufferIN22GMSx_maps_paint_client19AnnotationAttributeERNS_9allocatorIS2_EEED2Ev
__ZNSt3__114__split_bufferIN22GMSx_maps_paint_client9IconStyleERNS_9allocatorIS2_EEED2Ev
__ZNSt3__114__split_bufferIN23GMSx_geo_imagery_viewer12platform_ios14ServicesConfig12TileTemplateERNS_9allocatorIS4_EEE17__destruct_at_endB8ue170006EPS4_
__ZNSt3__114__split_bufferIN23GMSx_geo_imagery_viewer12platform_ios14ServicesConfig12TileTemplateERNS_9allocatorIS4_EEED2Ev
__ZNSt3__114__split_bufferIN23GMSx_geo_imagery_viewer4math5RangeIdLi2EEERNS_9allocatorIS4_EEED2Ev
__ZNSt3__114__split_bufferIN23GMSx_geo_imagery_viewer5swipe11PhotoVertexERNS_9allocatorIS3_EEED2Ev
__ZNSt3__114__split_bufferIN23GMSx_geo_imagery_viewer7overlay13NodeCandidateERNS_9allocatorIS3_EEED2Ev
__ZNSt3__114__split_bufferIN23GMSx_geo_imagery_viewer7overlay15IconManagerImpl8IconDataERNS_9allocatorIS4_EEED2Ev
__ZNSt3__114__split_bufferIN23GMSx_geo_imagery_viewer7overlay16RoadLabelManager17PreparedRoadLabelERNS_9allocatorIS4_EEED2Ev
__ZNSt3__114__split_bufferIN27GMSx_program_image_remapper19GMSx_classification7SectionERNS_9allocatorIS3_EEED2Ev
__ZNSt3__114__split_bufferIN7gmscore4base10reffed_ptrINS1_6vector12FeatureGroupEEERNS_9allocatorIS6_EEED2Ev
__ZNSt3__114__split_bufferIN7gmscore4base10reffed_ptrINS1_6vector12MutableStateEEERNS_9allocatorIS6_EEED2Ev
__ZNSt3__114__split_bufferIN7gmscore4base10reffed_ptrINS1_6vector16GLBaseLabelBatchEEERNS_9allocatorIS6_EEED2Ev
__ZNSt3__114__split_bufferIN7gmscore4base10reffed_ptrINS1_6vector17GMSMarkupInstanceEEERNS_9allocatorIS6_EEED2Ev
__ZNSt3__114__split_bufferIN7gmscore4base10reffed_ptrINS1_6vector18TextureAtlasLayoutEEERNS_9allocatorIS6_EEED2Ev
__ZNSt3__114__split_bufferIN7gmscore4base10reffed_ptrINS1_6vector19BuildingGroupSubsetEEERNS_9allocatorIS6_EEED2Ev
__ZNSt3__114__split_bufferIN7gmscore4base10reffed_ptrINS1_6vector19MutableTextureAtlasEEERNS_9allocatorIS6_EEED2Ev
__ZNSt3__114__split_bufferIN7gmscore4base10reffed_ptrINS1_6vector19MyLocationIndicatorEEERNS_9allocatorIS6_EEED2Ev
__ZNSt3__114__split_bufferIN7gmscore4base10reffed_ptrINS1_6vector19TextureAtlasElementEEERNS_9allocatorIS6_EEED2Ev
__ZNSt3__114__split_bufferIN7gmscore4base10reffed_ptrINS1_6vector24GMSGeneratedTextureAtlasEEERNS_9allocatorIS6_EEED2Ev
__ZNSt3__114__split_bufferIN7gmscore4base10reffed_ptrINS1_6vector28GMSTexturedStrokeShaderStateEEERNS_9allocatorIS6_EEED2Ev
__ZNSt3__114__split_bufferIN7gmscore4base10reffed_ptrINS1_6vector4text13MetalGlyphSetEEERNS_9allocatorIS7_EEED2Ev
__ZNSt3__114__split_bufferIN7gmscore4base10reffed_ptrINS1_6vector4text17TextureAtlasGlyphEEERNS_9allocatorIS7_EEED2Ev
__ZNSt3__114__split_bufferIN7gmscore4base10reffed_ptrINS1_6vector4text20RenderableGlyphGroupEEERNS_9allocatorIS7_EEED2Ev
__ZNSt3__114__split_bufferIN7gmscore4base10reffed_ptrINS1_6vector4text8BaseTextEEERNS_9allocatorIS7_EEED2Ev
__ZNSt3__114__split_bufferIN7gmscore4base10reffed_ptrINS1_6vector4text8GlyphSetEEERNS_9allocatorIS7_EEED2Ev
__ZNSt3__114__split_bufferIN7gmscore4base10reffed_ptrINS1_6vector6SpriteEEERNS_9allocatorIS6_EEED2Ev
__ZNSt3__114__split_bufferIN7gmscore4base10reffed_ptrINS1_8renderer10BaseEntityEEERNS_9allocatorIS6_EEED2Ev
__ZNSt3__114__split_bufferIN7gmscore4base10reffed_ptrINS1_8renderer10VertexDataEEERNS_9allocatorIS6_EEED2Ev
__ZNSt3__114__split_bufferIN7gmscore4base10reffed_ptrINS1_8renderer12PolygonStateEEERNS_9allocatorIS6_EEED2Ev
__ZNSt3__114__split_bufferIN7gmscore4base10reffed_ptrINS1_8renderer16AlphaShaderStateEEERNS_9allocatorIS6_EEED2Ev
__ZNSt3__114__split_bufferIN7gmscore4base10reffed_ptrINS1_8renderer17VBOWithAttributesEEERNS_9allocatorIS6_EEED2Ev
__ZNSt3__114__split_bufferIN7gmscore4base10reffed_ptrINS1_8renderer17VertexArrayObjectEEERNS_9allocatorIS6_EEED2Ev
__ZNSt3__114__split_bufferIN7gmscore4base10reffed_ptrINS1_8renderer21SafeVBOWithAttributesINS1_6vector22GMSLineStampAttributesEEEEERNS_9allocatorIS9_EEED2Ev
__ZNSt3__114__split_bufferIN7gmscore4base10reffed_ptrINS1_8renderer21SafeVBOWithAttributesINS1_6vector24GMSLineConsumeAttributesEEEEERNS_9allocatorIS9_EEED2Ev
__ZNSt3__114__split_bufferIN7gmscore4base10reffed_ptrINS1_8renderer21SafeVBOWithAttributesINS1_6vector24GMSLineStippleAttributesEEEEERNS_9allocatorIS9_EEED2Ev
__ZNSt3__114__split_bufferIN7gmscore4base10reffed_ptrINS1_8renderer21SafeVBOWithAttributesINS1_6vector30GMSLineColorAndWidthAttributesEEEEERNS_9allocatorIS9_EEED2Ev
__ZNSt3__114__split_bufferIN7gmscore4base10reffed_ptrINS1_8renderer27DistanceConsumedShaderStateEEERNS_9allocatorIS6_EEED2Ev
__ZNSt3__114__split_bufferIN7gmscore4base10reffed_ptrINS1_8renderer8BehaviorEEERNS_9allocatorIS6_EEED2Ev
__ZNSt3__114__split_bufferIN7gmscore4base16scoped_cftyperefIP9CGContextEERNS_9allocatorIS6_EEED2Ev
__ZNSt3__114__split_bufferIN7gmscore5model10LabelGroupERNS_9allocatorIS3_EEE17__destruct_at_endB8ue170006EPS3_
__ZNSt3__114__split_bufferIN7gmscore5model10LabelGroupERNS_9allocatorIS3_EEED2Ev
__ZNSt3__114__split_bufferIN7gmscore5model10Polyline2DERNS_9allocatorIS3_EEE5clearB8ue170006Ev
__ZNSt3__114__split_bufferIN7gmscore5model10Polyline2DERNS_9allocatorIS3_EEED2Ev
__ZNSt3__114__split_bufferIN7gmscore5model10Triangle2DERNS_9allocatorIS3_EEED2Ev
__ZNSt3__114__split_bufferIN7gmscore5model11Rectangle2DERNS_9allocatorIS3_EEED2Ev
__ZNSt3__114__split_bufferIN7gmscore5model11Rectangle2fERNS_9allocatorIS3_EEED2Ev
__ZNSt3__114__split_bufferIN7gmscore5model12LabelElementERNS_9allocatorIS3_EEE5clearB8ue170006Ev
__ZNSt3__114__split_bufferIN7gmscore5model12LabelElementERNS_9allocatorIS3_EEED2Ev
__ZNSt3__114__split_bufferIN7gmscore5model14GLUTessellator8Vector3dERNS_9allocatorIS4_EEED2Ev
__ZNSt3__114__split_bufferIN7gmscore5model14PolylineSpan2DERNS_9allocatorIS3_EEED2Ev
__ZNSt3__114__split_bufferIN7gmscore5model16AbsolutePositionERNS_9allocatorIS3_EEED2Ev
__ZNSt3__114__split_bufferIN7gmscore5model6StrokeERNS_9allocatorIS3_EEE17__destruct_at_endB8ue170006EPS3_
__ZNSt3__114__split_bufferIN7gmscore5model6StrokeERNS_9allocatorIS3_EEED2Ev
__ZNSt3__114__split_bufferIN7gmscore5model7Point2DERNS_9allocatorIS3_EEED2Ev
__ZNSt3__114__split_bufferIN7gmscore5model7Point3DERNS_9allocatorIS3_EEED2Ev
__ZNSt3__114__split_bufferIN7gmscore5model9AlignmentERNS_9allocatorIS3_EEED2Ev
__ZNSt3__114__split_bufferIN7gmscore5model9Clipper2D10ClipResultERNS_9allocatorIS4_EEED2Ev
__ZNSt3__114__split_bufferIN7gmscore5model9Frustum2DERNS_9allocatorIS3_EEED2Ev
__ZNSt3__114__split_bufferIN7gmscore6vector13GLStrokeLayer17LineAttributeInfoERNS_9allocatorIS4_EEE5clearB8ue170006Ev
__ZNSt3__114__split_bufferIN7gmscore6vector13GLStrokeLayer17LineAttributeInfoERNS_9allocatorIS4_EEED2Ev
__ZNSt3__114__split_bufferIN7gmscore6vector13GLStrokeLayer22LineAllStyleAttributesERNS_9allocatorIS4_EEED2Ev
__ZNSt3__114__split_bufferIN7gmscore6vector13LabelProvider19LabelCandidateBatchERNS_9allocatorIS4_EEED2Ev
__ZNSt3__114__split_bufferIN7gmscore6vector13NinePatchInfo6RegionERNS_9allocatorIS4_EEED2Ev
__ZNSt3__114__split_bufferIN7gmscore6vector13NinePatchInfoERNS_9allocatorIS3_EEE17__destruct_at_endB8ue170006EPS3_
__ZNSt3__114__split_bufferIN7gmscore6vector13NinePatchInfoERNS_9allocatorIS3_EEED2Ev
__ZNSt3__114__split_bufferIN7gmscore6vector14AnimatedValuesERNS_9allocatorIS3_EEE5clearB8ue170006Ev
__ZNSt3__114__split_bufferIN7gmscore6vector14AnimatedValuesERNS_9allocatorIS3_EEED2Ev
__ZNSt3__114__split_bufferIN7gmscore6vector14MarkupPolylineERNS_9allocatorIS3_EEE17__destruct_at_endB8ue170006EPS3_
__ZNSt3__114__split_bufferIN7gmscore6vector14MarkupPolylineERNS_9allocatorIS3_EEED2Ev
__ZNSt3__114__split_bufferIN7gmscore6vector17GMSMarkupBehavior17InstanceOperationERNS_9allocatorIS4_EEED2Ev
__ZNSt3__114__split_bufferIN7gmscore6vector17PlaceholderUpdateERNS_9allocatorIS3_EEED2Ev
__ZNSt3__114__split_bufferIN7gmscore6vector17PolylineVertexSetERNS_9allocatorIS3_EEED2Ev
__ZNSt3__114__split_bufferIN7gmscore6vector18PolylineSimplifier10ActionDataERNS_9allocatorIS4_EEED2Ev
__ZNSt3__114__split_bufferIN7gmscore6vector18PolylineSimplifier14SimplifyResultERNS_9allocatorIS4_EEE17__destruct_at_endB8ue170006EPS4_
__ZNSt3__114__split_bufferIN7gmscore6vector18PolylineSimplifier14SimplifyResultERNS_9allocatorIS4_EEED2Ev
__ZNSt3__114__split_bufferIN7gmscore6vector18PolylineSimplifier9PointDataERNS_9allocatorIS4_EEED2Ev
__ZNSt3__114__split_bufferIN7gmscore6vector18PolylineSimplifierERNS_9allocatorIS3_EEE17__destruct_at_endB8ue170006EPS3_
__ZNSt3__114__split_bufferIN7gmscore6vector18PolylineSimplifierERNS_9allocatorIS3_EEED2Ev
__ZNSt3__114__split_bufferIN7gmscore6vector22TexturedDistanceVertexERNS_9allocatorIS3_EEED2Ev
__ZNSt3__114__split_bufferIN7gmscore6vector23ClientVectorOpsBehavior16PendingOperationERNS_9allocatorIS4_EEED2Ev
__ZNSt3__114__split_bufferIN7gmscore6vector28GMSGeneratedTextureAtlasInfoERNS_9allocatorIS3_EEE17__destruct_at_endB8ue170006EPS3_
__ZNSt3__114__split_bufferIN7gmscore6vector28GMSGeneratedTextureAtlasInfoERNS_9allocatorIS3_EEED2Ev
__ZNSt3__114__split_bufferIN7gmscore6vector37LayeredSpritePerLayerFragmentUniformsERNS_9allocatorIS3_EEED2Ev
__ZNSt3__114__split_bufferIN7gmscore6vector4text13GlyphPositionERNS_9allocatorIS4_EEED2Ev
__ZNSt3__114__split_bufferIN7gmscore6vector4text9GlyphQuadERNS_9allocatorIS4_EEED2Ev
__ZNSt3__114__split_bufferIN7gmscore6vector6VertexERNS_9allocatorIS3_EEED2Ev
__ZNSt3__114__split_bufferIN7gmscore6vector9AreaGroup10AreaSubsetERNS_9allocatorIS4_EEE17__destruct_at_endB8ue170006EPS4_
__ZNSt3__114__split_bufferIN7gmscore6vector9AreaGroup10AreaSubsetERNS_9allocatorIS4_EEED2Ev
__ZNSt3__114__split_bufferIN7gmscore6vector9ColorSpanERNS_9allocatorIS3_EEED2Ev
__ZNSt3__114__split_bufferIN7gmscore8renderer14EntityRenderer9PendingOpERNS_9allocatorIS4_EEED2Ev
__ZNSt3__114__split_bufferIN7gmscore8renderer21ColoredTexturedVertexERNS_9allocatorIS3_EEED2Ev
__ZNSt3__114__split_bufferIN7gmscore8renderer22MetalBufferRenderState19BufferObjectBindingERNS_9allocatorIS4_EEED2Ev
__ZNSt3__114__split_bufferIN7gmscore8renderer23MetalTextureRenderState14TextureBindingERNS_9allocatorIS4_EEED2Ev
__ZNSt3__114__split_bufferIN8GMSx_imp15SimpleHistogram6BucketERNS_9allocatorIS3_EEED2Ev
__ZNSt3__114__split_bufferIN9GMSx_absl13flat_hash_mapIjN12GMSx_mapcore5style7StyleIdENS1_13hash_internal4HashIjEENS_8equal_toIjEENS_9allocatorINS_4pairIKjS5_EEEEEERNSB_ISG_EEE5clearB8un170006Ev
__ZNSt3__114__split_bufferIN9GMSx_absl13flat_hash_mapIjN12GMSx_mapcore5style7StyleIdENS1_13hash_internal4HashIjEENS_8equal_toIjEENS_9allocatorINS_4pairIKjS5_EEEEEERNSB_ISG_EEED2Ev
__ZNSt3__114__split_bufferIN9GMSx_absl13time_internal4cctz10TransitionERNS_9allocatorIS4_EEED2Ev
__ZNSt3__114__split_bufferIN9GMSx_absl13time_internal4cctz14TransitionTypeERNS_9allocatorIS4_EEED2Ev
__ZNSt3__114__split_bufferIN9GMSx_absl16UnrecognizedFlagERNS_9allocatorIS2_EEE17__destruct_at_endB8ue170006EPS2_
__ZNSt3__114__split_bufferIN9GMSx_absl16UnrecognizedFlagERNS_9allocatorIS2_EEED2Ev
__ZNSt3__114__split_bufferIN9GMSx_absl21GMSx_strings_internal18ViableSubstitutionERNS_9allocatorIS3_EEED2Ev
__ZNSt3__114__split_bufferINS_10shared_ptrIN22GMSx_maps_paint_client13LabelRenderOpEEERNS_9allocatorIS4_EEED2Ev
__ZNSt3__114__split_bufferINS_10shared_ptrIN22GMSx_maps_paint_client21LineLabelCandidateSetEEERNS_9allocatorIS4_EEED2Ev
__ZNSt3__114__split_bufferINS_10shared_ptrIN7gmscore5model12Collidable2DEEERNS_9allocatorIS5_EEED2Ev
__ZNSt3__114__split_bufferINS_10shared_ptrIN7gmscore5model8Region2fEEERNS_9allocatorIS5_EEED2Ev
__ZNSt3__114__split_bufferINS_10shared_ptrIN7gmscore6vector11LabelSourceEEERNS_9allocatorIS5_EEED2Ev
__ZNSt3__114__split_bufferINS_10shared_ptrIN7gmscore6vector11RenderLabelEEERNS_9allocatorIS5_EEED2Ev
__ZNSt3__114__split_bufferINS_10shared_ptrIN7gmscore6vector11StrokeLayerEEERNS_9allocatorIS5_EEED2Ev
__ZNSt3__114__split_bufferINS_10shared_ptrIN7gmscore6vector13LabelChangeOpEEERNS_9allocatorIS5_EEED2Ev
__ZNSt3__114__split_bufferINS_10shared_ptrIN7gmscore6vector13LabelProviderEEERNS_9allocatorIS5_EEED2Ev
__ZNSt3__114__split_bufferINS_10shared_ptrIN7gmscore6vector16LabelableFeatureEEERNS_9allocatorIS5_EEED2Ev
__ZNSt3__114__split_bufferINS_10shared_ptrIN7gmscore6vector16LabelingBehavior8ListenerEEERNS_9allocatorIS6_EEED2Ev
__ZNSt3__114__split_bufferINS_10shared_ptrIN7gmscore6vector18RenderLabelElementEEERNS_9allocatorIS5_EEED2Ev
__ZNSt3__114__split_bufferINS_10shared_ptrIN7gmscore6vector19POILabelableFeatureEEERNS_9allocatorIS5_EEED2Ev
__ZNSt3__114__split_bufferINS_10shared_ptrIN7gmscore6vector20ClientVectorOpsGroupEEERNS_9allocatorIS5_EEED2Ev
__ZNSt3__114__split_bufferINS_10shared_ptrIN7gmscore6vector21MetalLineUniformStateEEERNS_9allocatorIS5_EEED2Ev
__ZNSt3__114__split_bufferINS_10shared_ptrIN7gmscore6vector24LabelableFeatureSelectorEEERNS_9allocatorIS5_EEED2Ev
__ZNSt3__114__split_bufferINS_10shared_ptrIN7gmscore6vector24MetalTextureAtlasElementEEERNS_9allocatorIS5_EEED2Ev
__ZNSt3__114__split_bufferINS_10shared_ptrIN7gmscore6vector27MetalBreadcrumbUniformStateEEERNS_9allocatorIS5_EEED2Ev
__ZNSt3__114__split_bufferINS_10shared_ptrIN7gmscore8renderer12MetalTextureEEERNS_9allocatorIS5_EEED2Ev
__ZNSt3__114__split_bufferINS_10shared_ptrIN7gmscore8renderer28MetalDepthStencilRenderStateEEERNS_9allocatorIS5_EEED2Ev
__ZNSt3__114__split_bufferINS_10shared_ptrIN9GMSx_util14SimulatedClock10WakeUpInfoEEERNS_9allocatorIS5_EEED2Ev
__ZNSt3__114__split_bufferINS_10unique_ptrIKN11GMSx_proto219FileDescriptorProtoENS_14default_deleteIS4_EEEERNS_9allocatorIS7_EEE17__destruct_at_endB8ue170006EPS7_
__ZNSt3__114__split_bufferINS_10unique_ptrIKN11GMSx_proto219FileDescriptorProtoENS_14default_deleteIS4_EEEERNS_9allocatorIS7_EEED2Ev
__ZNSt3__114__split_bufferINS_10unique_ptrIKN12GMSx_mapcore10CollidableIN13GMSx_filament4math7details5TVec2IiEEEENS_14default_deleteISA_EEEERNS_9allocatorISD_EEED2Ev
__ZNSt3__114__split_bufferINS_10unique_ptrIN11GMSx_proto210TextFormat13ParseInfoTreeENS_14default_deleteIS4_EEEERNS_9allocatorIS7_EEE17__destruct_at_endB8ue170006EPS7_
__ZNSt3__114__split_bufferINS_10unique_ptrIN11GMSx_proto210TextFormat13ParseInfoTreeENS_14default_deleteIS4_EEEERNS_9allocatorIS7_EEED2Ev
__ZNSt3__114__split_bufferINS_10unique_ptrIN11GMSx_proto29GMSx_util18MessageDifferencer14IgnoreCriteriaENS_14default_deleteIS5_EEEERNS_9allocatorIS8_EEED2Ev
__ZNSt3__114__split_bufferINS_10unique_ptrIN12GMSx_mapcore7labeler14LabelCandidateENS_14default_deleteIS4_EEEERNS_9allocatorIS7_EEED2Ev
__ZNSt3__114__split_bufferINS_10unique_ptrIN12GMSx_mapcore7labeler19PointLabelCandidateENS_14default_deleteIS4_EEEERNS_9allocatorIS7_EEED2Ev
__ZNSt3__114__split_bufferINS_10unique_ptrIN12GMSx_mapcore7labeler9LabelNodeENS_14default_deleteIS4_EEEERNS_9allocatorIS7_EEED2Ev
__ZNSt3__114__split_bufferINS_10unique_ptrIN23GMSx_geo_imagery_viewer4pano12TexturedMeshENS_14default_deleteIS4_EEEERNS_9allocatorIS7_EEED2Ev
__ZNSt3__114__split_bufferINS_10unique_ptrIN7gmscore6vector18PlacedLabelElementENS_14default_deleteIS4_EEEERNS_9allocatorIS7_EEED2Ev
__ZNSt3__114__split_bufferINS_10unique_ptrIN7gmscore6vector24MetalMutableTextureAtlasENS_14default_deleteIS4_EEEERNS_9allocatorIS7_EEED2Ev
__ZNSt3__114__split_bufferINS_10unique_ptrIN7gmscore8renderer11Animation3DENS_14default_deleteIS4_EEEERNS_9allocatorIS7_EEED2Ev
__ZNSt3__114__split_bufferINS_10unique_ptrIN8GMSx_imp15MeasurementDataENS_14default_deleteIS3_EEEERNS_9allocatorIS6_EEED2Ev
__ZNSt3__114__split_bufferINS_10unique_ptrIN9GMSx_absl14flags_internal18FlagStateInterfaceENS_14default_deleteIS4_EEEERNS_9allocatorIS7_EEED2Ev
__ZNSt3__114__split_bufferINS_10unique_ptrIiN11GMSx_proto214DescriptorPool6Tables11MiscDeleterEEERNS_9allocatorIS6_EEE17__destruct_at_endB8ue170006EPS6_
__ZNSt3__114__split_bufferINS_10unique_ptrIiN11GMSx_proto214DescriptorPool6Tables11MiscDeleterEEERNS_9allocatorIS6_EEED2Ev
__ZNSt3__114__split_bufferINS_12basic_stringIcNS_11char_traitsIcEENS_9allocatorIcEEEERNS4_IS6_EEE17__destruct_at_endB8ue170006EPS6_
__ZNSt3__114__split_bufferINS_12basic_stringIcNS_11char_traitsIcEENS_9allocatorIcEEEERNS4_IS6_EEE17__destruct_at_endB8un170006EPS6_
__ZNSt3__114__split_bufferINS_12basic_stringIcNS_11char_traitsIcEENS_9allocatorIcEEEERNS4_IS6_EEE18__construct_at_endEmRKS6_
__ZNSt3__114__split_bufferINS_12basic_stringIcNS_11char_traitsIcEENS_9allocatorIcEEEERNS4_IS6_EEE9push_backB8ue170006ERKS6_
__ZNSt3__114__split_bufferINS_12basic_stringIcNS_11char_traitsIcEENS_9allocatorIcEEEERNS4_IS6_EEED2Ev
__ZNSt3__114__split_bufferINS_3mapIijNS_4lessIiEENS_9allocatorINS_4pairIKijEEEEEERNS4_IS9_EEE5clearB8ue170006Ev
__ZNSt3__114__split_bufferINS_3mapIijNS_4lessIiEENS_9allocatorINS_4pairIKijEEEEEERNS4_IS9_EEED2Ev
__ZNSt3__114__split_bufferINS_4pairIN9GMSx_absl11string_viewEiEERNS_9allocatorIS4_EEED2Ev
__ZNSt3__114__split_bufferINS_4pairIN9GMSx_absl11string_viewEmEERNS_9allocatorIS4_EEED2Ev
__ZNSt3__114__split_bufferINS_4pairINS1_ImmEENS_12basic_stringIcNS_11char_traitsIcEENS_9allocatorIcEEEEEERNS6_IS9_EEE17__destruct_at_endB8ue170006EPS9_
__ZNSt3__114__split_bufferINS_4pairINS1_ImmEENS_12basic_stringIcNS_11char_traitsIcEENS_9allocatorIcEEEEEERNS6_IS9_EEED2Ev
__ZNSt3__114__split_bufferINS_4pairINS_10shared_ptrIN7gmscore6vector11LabelSourceEEENS2_INS3_5model12Collidable2DEEEEERNS_9allocatorISA_EEE17__destruct_at_endB8ue170006EPSA_
__ZNSt3__114__split_bufferINS_4pairINS_10shared_ptrIN7gmscore6vector11LabelSourceEEENS2_INS3_5model12Collidable2DEEEEERNS_9allocatorISA_EEED2Ev
__ZNSt3__114__split_bufferINS_4pairINS_12basic_stringIcNS_11char_traitsIcEENS_9allocatorIcEEEES7_EERNS5_IS8_EEE17__destruct_at_endB8ue170006EPS8_
__ZNSt3__114__split_bufferINS_4pairINS_12basic_stringIcNS_11char_traitsIcEENS_9allocatorIcEEEES7_EERNS5_IS8_EEED2Ev
__ZNSt3__114__split_bufferINS_4pairIPK8__CTFontNS_6vectorItNS_9allocatorItEEEEEERNS6_IS9_EEE17__destruct_at_endB8ue170006EPS9_
__ZNSt3__114__split_bufferINS_4pairIPK8__CTFontNS_6vectorItNS_9allocatorItEEEEEERNS6_IS9_EEED2Ev
__ZNSt3__114__split_bufferINS_4pairIU8__strongP15GMSx_GPBMessageyEERNS_9allocatorIS5_EEED2Ev
__ZNSt3__114__split_bufferINS_5tupleIJPFv14FailureContextEPviEEERNS_9allocatorIS6_EEED2Ev
__ZNSt3__114__split_bufferINS_6vectorI10GMSPoint2DNS_9allocatorIS2_EEEERNS3_IS5_EEE17__destruct_at_endB8ue170006EPS5_
__ZNSt3__114__split_bufferINS_6vectorI10GMSPoint2DNS_9allocatorIS2_EEEERNS3_IS5_EEED2Ev
__ZNSt3__114__split_bufferINS_6vectorIN7gmscore4base10reffed_ptrINS2_6vector6SpriteEEENS_9allocatorIS7_EEEERNS8_ISA_EEE5clearB8ue170006Ev
__ZNSt3__114__split_bufferINS_6vectorIN7gmscore4base10reffed_ptrINS2_6vector6SpriteEEENS_9allocatorIS7_EEEERNS8_ISA_EEED2Ev
__ZNSt3__114__split_bufferINS_6vectorIN7gmscore4base10reffed_ptrINS2_8renderer21SafeVBOWithAttributesINS2_6vector22GMSLineStampAttributesEEEEENS_9allocatorISA_EEEERNSB_ISD_EEE5clearB8ue170006Ev
__ZNSt3__114__split_bufferINS_6vectorIN7gmscore4base10reffed_ptrINS2_8renderer21SafeVBOWithAttributesINS2_6vector22GMSLineStampAttributesEEEEENS_9allocatorISA_EEEERNSB_ISD_EEED2Ev
__ZNSt3__114__split_bufferINS_6vectorIN7gmscore4base10reffed_ptrINS2_8renderer21SafeVBOWithAttributesINS2_6vector24GMSLineConsumeAttributesEEEEENS_9allocatorISA_EEEERNSB_ISD_EEE5clearB8ue170006Ev
__ZNSt3__114__split_bufferINS_6vectorIN7gmscore4base10reffed_ptrINS2_8renderer21SafeVBOWithAttributesINS2_6vector24GMSLineConsumeAttributesEEEEENS_9allocatorISA_EEEERNSB_ISD_EEED2Ev
__ZNSt3__114__split_bufferINS_6vectorIN7gmscore4base10reffed_ptrINS2_8renderer21SafeVBOWithAttributesINS2_6vector24GMSLineStippleAttributesEEEEENS_9allocatorISA_EEEERNSB_ISD_EEE5clearB8ue170006Ev
__ZNSt3__114__split_bufferINS_6vectorIN7gmscore4base10reffed_ptrINS2_8renderer21SafeVBOWithAttributesINS2_6vector24GMSLineStippleAttributesEEEEENS_9allocatorISA_EEEERNSB_ISD_EEED2Ev
__ZNSt3__114__split_bufferINS_6vectorIN7gmscore4base10reffed_ptrINS2_8renderer21SafeVBOWithAttributesINS2_6vector30GMSLineColorAndWidthAttributesEEEEENS_9allocatorISA_EEEERNSB_ISD_EEE5clearB8ue170006Ev
__ZNSt3__114__split_bufferINS_6vectorIN7gmscore4base10reffed_ptrINS2_8renderer21SafeVBOWithAttributesINS2_6vector30GMSLineColorAndWidthAttributesEEEEENS_9allocatorISA_EEEERNSB_ISD_EEED2Ev
__ZNSt3__114__split_bufferINS_6vectorIN7gmscore5model10Polyline2DENS_9allocatorIS4_EEEERNS5_IS7_EEE5clearB8ue170006Ev
__ZNSt3__114__split_bufferINS_6vectorIN7gmscore5model10Polyline2DENS_9allocatorIS4_EEEERNS5_IS7_EEED2Ev
__ZNSt3__114__split_bufferINS_6vectorIN7gmscore5model7Point2DENS_9allocatorIS4_EEEERNS5_IS7_EEE17__destruct_at_endB8ue170006EPS7_
__ZNSt3__114__split_bufferINS_6vectorIN7gmscore5model7Point2DENS_9allocatorIS4_EEEERNS5_IS7_EEED2Ev
__ZNSt3__114__split_bufferINS_6vectorIN7gmscore6vector13GLStrokeLayer22LineAllStyleAttributesENS_9allocatorIS5_EEEERNS6_IS8_EEE17__destruct_at_endB8ue170006EPS8_
__ZNSt3__114__split_bufferINS_6vectorIN7gmscore6vector13GLStrokeLayer22LineAllStyleAttributesENS_9allocatorIS5_EEEERNS6_IS8_EEED2Ev
__ZNSt3__114__split_bufferINS_6vectorIN7gmscore6vector9ColorSpanENS_9allocatorIS4_EEEERNS5_IS7_EEE17__destruct_at_endB8ue170006EPS7_
__ZNSt3__114__split_bufferINS_6vectorIN7gmscore6vector9ColorSpanENS_9allocatorIS4_EEEERNS5_IS7_EEED2Ev
__ZNSt3__114__split_bufferINS_6vectorINS_10shared_ptrIN7gmscore6vector16LabelableFeatureEEENS_9allocatorIS6_EEEERNS7_IS9_EEE5clearB8ue170006Ev
__ZNSt3__114__split_bufferINS_6vectorINS_10shared_ptrIN7gmscore6vector16LabelableFeatureEEENS_9allocatorIS6_EEEERNS7_IS9_EEED2Ev
__ZNSt3__114__split_bufferINS_6vectorINS_10shared_ptrIN7gmscore6vector18RenderLabelElementEEENS_9allocatorIS6_EEEERNS7_IS9_EEE5clearB8ue170006Ev
__ZNSt3__114__split_bufferINS_6vectorINS_10shared_ptrIN7gmscore6vector18RenderLabelElementEEENS_9allocatorIS6_EEEERNS7_IS9_EEED2Ev
__ZNSt3__114__split_bufferINS_6vectorINS_3mapIijNS_4lessIiEENS_9allocatorINS_4pairIKijEEEEEENS5_ISA_EEEERNS5_ISC_EEE5clearB8ue170006Ev
__ZNSt3__114__split_bufferINS_6vectorINS_3mapIijNS_4lessIiEENS_9allocatorINS_4pairIKijEEEEEENS5_ISA_EEEERNS5_ISC_EEED2Ev
__ZNSt3__114__split_bufferINS_6vectorIPKN11GMSx_proto215FieldDescriptorENS_9allocatorIS5_EEEERNS6_IS8_EEE17__destruct_at_endB8ue170006EPS8_
__ZNSt3__114__split_bufferINS_6vectorIPKN11GMSx_proto215FieldDescriptorENS_9allocatorIS5_EEEERNS6_IS8_EEED2Ev
__ZNSt3__114__split_bufferINS_6vectorIPKvNS_9allocatorIS3_EEEERNS4_IS6_EEE17__destruct_at_endB8ue170006EPS6_
__ZNSt3__114__split_bufferINS_6vectorIPKvNS_9allocatorIS3_EEEERNS4_IS6_EEED2Ev
__ZNSt3__114__split_bufferINS_6vectorIfNS_9allocatorIfEEEERNS2_IS4_EEE17__destruct_at_endB8ue170006EPS4_
__ZNSt3__114__split_bufferINS_6vectorIfNS_9allocatorIfEEEERNS2_IS4_EEED2Ev
__ZNSt3__114__split_bufferINS_6vectorIiNS_9allocatorIiEEEERNS2_IS4_EEE17__destruct_at_endB8ue170006EPS4_
__ZNSt3__114__split_bufferINS_6vectorIiNS_9allocatorIiEEEERNS2_IS4_EEED2Ev
__ZNSt3__114__split_bufferINS_7variantIJNS_8weak_ptrIN8GMSx_imp13GMSx_internal10FutureImpl17FutureImplWrapperEEENS5_12CombineChildENS5_11NestedChildENS5_13KeptForgetterENS3_9InvocableIFvRNS4_12ResultHolderEEEENS3_8HoldableEEEERNS_9allocatorISH_EEE5clearB8un170006Ev
__ZNSt3__114__split_bufferINS_7variantIJNS_8weak_ptrIN8GMSx_imp13GMSx_internal10FutureImpl17FutureImplWrapperEEENS5_12CombineChildENS5_11NestedChildENS5_13KeptForgetterENS3_9InvocableIFvRNS4_12ResultHolderEEEENS3_8HoldableEEEERNS_9allocatorISH_EEED2Ev
__ZNSt3__114__split_bufferINS_8functionIFNS_8optionalIN11GMSx_proto22io7Printer16AnnotationRecordEEEN9GMSx_absl11string_viewEEEERNS_9allocatorISB_EEE5clearB8ue170006Ev
__ZNSt3__114__split_bufferINS_8functionIFNS_8optionalIN11GMSx_proto22io7Printer16AnnotationRecordEEEN9GMSx_absl11string_viewEEEERNS_9allocatorISB_EEED2Ev
__ZNSt3__114__split_bufferINS_8functionIFNS_8optionalIN11GMSx_proto22io7Printer9ValueImplILb0EEEEEN9GMSx_absl11string_viewEEEERNS_9allocatorISC_EEE5clearB8ue170006Ev
__ZNSt3__114__split_bufferINS_8functionIFNS_8optionalIN11GMSx_proto22io7Printer9ValueImplILb0EEEEEN9GMSx_absl11string_viewEEEERNS_9allocatorISC_EEED2Ev
__ZNSt3__114__split_bufferINS_8functionIFvvEEERNS_9allocatorIS3_EEE5clearB8ue170006Ev
__ZNSt3__114__split_bufferINS_8functionIFvvEEERNS_9allocatorIS3_EEED2Ev
__ZNSt3__114__split_bufferIP26GMSEntityTapClassStatusSetNS_9allocatorIS2_EEE10push_frontEOS2_
__ZNSt3__114__split_bufferIP26GMSEntityTapClassStatusSetNS_9allocatorIS2_EEE9push_backEOS2_
__ZNSt3__114__split_bufferIP26GMSEntityTapClassStatusSetNS_9allocatorIS2_EEED2Ev
__ZNSt3__114__split_bufferIP26GMSEntityTapClassStatusSetRNS_9allocatorIS2_EEE10push_frontERKS2_
__ZNSt3__114__split_bufferIP26GMSEntityTapClassStatusSetRNS_9allocatorIS2_EEE9push_backEOS2_
__ZNSt3__114__split_bufferIP26GMSEntityTapClassStatusSetRNS_9allocatorIS2_EEED2Ev
__ZNSt3__114__split_bufferIPN7gmscore5model7Point2DENS_9allocatorIS4_EEE10push_frontEOS4_
__ZNSt3__114__split_bufferIPN7gmscore5model7Point2DENS_9allocatorIS4_EEE10push_frontERKS4_
__ZNSt3__114__split_bufferIPN7gmscore5model7Point2DENS_9allocatorIS4_EEE9push_backEOS4_
__ZNSt3__114__split_bufferIPN7gmscore5model7Point2DENS_9allocatorIS4_EEED2Ev
__ZNSt3__114__split_bufferIPN7gmscore5model7Point2DERNS_9allocatorIS4_EEE10push_frontERKS4_
__ZNSt3__114__split_bufferIPN7gmscore5model7Point2DERNS_9allocatorIS4_EEE9push_backEOS4_
__ZNSt3__114__split_bufferIPN7gmscore5model7Point2DERNS_9allocatorIS4_EEED2Ev
__ZNSt3__114__split_bufferIPN9GMSx_absl12crc_internal12CrcCordState9PrefixCrcENS_9allocatorIS5_EEE10push_frontEOS5_
__ZNSt3__114__split_bufferIPN9GMSx_absl12crc_internal12CrcCordState9PrefixCrcENS_9allocatorIS5_EEE9push_backEOS5_
__ZNSt3__114__split_bufferIPN9GMSx_absl12crc_internal12CrcCordState9PrefixCrcENS_9allocatorIS5_EEED2Ev
__ZNSt3__114__split_bufferIPN9GMSx_absl12crc_internal12CrcCordState9PrefixCrcERNS_9allocatorIS5_EEE10push_frontERKS5_
__ZNSt3__114__split_bufferIPN9GMSx_absl12crc_internal12CrcCordState9PrefixCrcERNS_9allocatorIS5_EEE9push_backEOS5_
__ZNSt3__114__split_bufferIPN9GMSx_absl12crc_internal12CrcCordState9PrefixCrcERNS_9allocatorIS5_EEED2Ev
__ZNSt3__114__split_bufferIPPKN11GMSx_proto27MessageENS_9allocatorIS5_EEE10push_frontEOS5_
__ZNSt3__114__split_bufferIPPKN11GMSx_proto27MessageENS_9allocatorIS5_EEE9push_backEOS5_
__ZNSt3__114__split_bufferIPPKN11GMSx_proto27MessageENS_9allocatorIS5_EEED2Ev
__ZNSt3__114__split_bufferIPPKN11GMSx_proto27MessageERNS_9allocatorIS5_EEE10push_frontERKS5_
__ZNSt3__114__split_bufferIPPKN11GMSx_proto27MessageERNS_9allocatorIS5_EEE9push_backEOS5_
__ZNSt3__114__split_bufferIPPKN11GMSx_proto27MessageERNS_9allocatorIS5_EEED2Ev
__ZNSt3__114__split_bufferIPPKN9GMSx_absl13time_internal4cctz9time_zone4ImplENS_9allocatorIS8_EEE10push_frontEOS8_
__ZNSt3__114__split_bufferIPPKN9GMSx_absl13time_internal4cctz9time_zone4ImplENS_9allocatorIS8_EEE9push_backEOS8_
__ZNSt3__114__split_bufferIPPKN9GMSx_absl13time_internal4cctz9time_zone4ImplERNS_9allocatorIS8_EEE10push_frontERKS8_
__ZNSt3__114__split_bufferIPPKN9GMSx_absl13time_internal4cctz9time_zone4ImplERNS_9allocatorIS8_EEE9push_backEOS8_
__ZNSt3__114__split_bufferIPPKN9GMSx_absl13time_internal4cctz9time_zone4ImplERNS_9allocatorIS8_EEED2Ev
__ZNSt3__114__split_bufferIPPN11GMSx_proto27MessageENS_9allocatorIS4_EEE10push_frontEOS4_
__ZNSt3__114__split_bufferIPPN11GMSx_proto27MessageENS_9allocatorIS4_EEE9push_backEOS4_
__ZNSt3__114__split_bufferIPPN11GMSx_proto27MessageENS_9allocatorIS4_EEED2Ev
__ZNSt3__114__split_bufferIPPN11GMSx_proto27MessageERNS_9allocatorIS4_EEE10push_frontERKS4_
__ZNSt3__114__split_bufferIPPN11GMSx_proto27MessageERNS_9allocatorIS4_EEE9push_backEOS4_
__ZNSt3__114__split_bufferIPPN11GMSx_proto27MessageERNS_9allocatorIS4_EEED2Ev
__ZNSt3__114__split_bufferIU8__strongP11GMSBuildingRNS_9allocatorIS3_EEED2Ev
__ZNSt3__114__split_bufferIU8__strongP13GMSModelStyleRNS_9allocatorIS3_EEED2Ev
__ZNSt3__114__split_bufferIU8__strongP14GMSStrokeStyleRNS_9allocatorIS3_EEED2Ev
__ZNSt3__114__split_bufferIU8__strongP15GMSPointFeatureRNS_9allocatorIS3_EEED2Ev
__ZNSt3__114__split_bufferIU8__strongP17GMSMultiZoomStyleRNS_9allocatorIS3_EEED2Ev
__ZNSt3__114__split_bufferIU8__strongP17GMSStripifiedMeshRNS_9allocatorIS3_EEED2Ev
__ZNSt3__114__split_bufferIU8__strongP20GMSModelFeatureStyleRNS_9allocatorIS3_EEED2Ev
__ZNSt3__114__split_bufferIU8__strongP22GMSOffscreenEntityViewRNS_9allocatorIS3_EEED2Ev
__ZNSt3__114__split_bufferIU8__strongP22GMSx_SRLImplementationRNS_9allocatorIS3_EEED2Ev
__ZNSt3__114__split_bufferIU8__strongP6UIViewRNS_9allocatorIS3_EEED2Ev
__ZNSt3__114__split_bufferIU8__strongP7GMSAreaRNS_9allocatorIS3_EEED2Ev
__ZNSt3__114__split_bufferIU8__strongP7GMSLineRNS_9allocatorIS3_EEED2Ev
__ZNSt3__114__split_bufferIU8__strongP9GMSMarkerRNS_9allocatorIS3_EEED2Ev
__ZNSt3__114__split_bufferIU8__strongPU26objcproto15GMSModelFeature11objc_objectRNS_9allocatorIS3_EEED2Ev
__ZNSt3__114__split_bufferIU8__strongPU34objcproto23GMSEntityTappableUIItem11objc_objectRNS_9allocatorIS3_EEED2Ev
__ZNSt3__114__split_bufferIlRNS_9allocatorIlEEE9push_backEOl
__ZNSt3__114__split_bufferIlRNS_9allocatorIlEEED2Ev
__ZNSt3__114__unwrap_rangeB8un170006IN8GMSx_gtl25internal_associative_view13AssociateViewIN11util_intops6HandleIN12GMSx_mapcore7labeler27LabelCandidateBundleId_tag_EyEES9_NS1_22AlsoSupportsLookupWithIJEEEE8iteratorESD_EENS_4pairIT0_SF_EET_SH_
__ZNSt3__114basic_ifstreamIcNS_11char_traitsIcEEEC1EPKcj
__ZNSt3__114basic_ifstreamIcNS_11char_traitsIcEEEC1ERKNS_12basic_stringIcS2_NS_9allocatorIcEEEEj
__ZNSt3__115allocate_sharedB8ue170006IN20GMSRocketIconService6HolderENS_9allocatorIS2_EEJPS1_RU8__strongP7UIImageRNS_12basic_stringIcNS_11char_traitsIcEENS3_IcEEEEEvEENS_10shared_ptrIT_EERKT0_DpOT1_
__ZNSt3__115allocate_sharedB8ue170006IN23GMSx_geo_imagery_viewer4pano11MeshManagerENS_9allocatorIS3_EEJRNS_10shared_ptrINS2_8MetadataEEERKiRiRbEvEENS6_IT_EERKT0_DpOT1_
__ZNSt3__115allocate_sharedB8ue170006IN7gmscore5model15CollidableSet2DENS_9allocatorIS3_EEJbEvEENS_10shared_ptrIT_EERKT0_DpOT1_
__ZNSt3__115allocate_sharedB8ue170006IN7gmscore6vector11LabelSourceENS_9allocatorIS3_EEJRA23_KcEvEENS_10shared_ptrIT_EERKT0_DpOT1_
__ZNSt3__115allocate_sharedB8ue170006IN7gmscore6vector18CalloutSharedStateENS_9allocatorIS3_EEJEvEENS_10shared_ptrIT_EERKT0_DpOT1_
__ZNSt3__115allocate_sharedB8ue170006IN7gmscore6vector19PlacedLabelRendererENS_9allocatorIS3_EEJPNS1_8renderer14EntityRendererERU8__strongPU29objcproto18GMSEntityResources11objc_objectRU8__strongP24GMSServerResourceManagerRNS1_4base10reffed_ptrINS2_6CameraEEERU8__strongP8NSThreadNS_10shared_ptrINS2_13CTLineBuilderEEEEvEENSQ_IT_EERKT0_DpOT1_
__ZNSt3__115allocate_sharedB8ue170006IN7gmscore6vector19PlacedLabelSnapshotENS_9allocatorIS3_EEJRNS_10shared_ptrIS3_EEN9GMSx_absl13flat_hash_setIyNS9_13hash_internal4HashIyEENS_8equal_toIyEENS4_IyEEEERNSA_IN12GMSx_mapcore7labeler11PlacedLabelENS2_15PlacedLabelHashENS2_16PlacedLabelEqualENS4_ISK_EEEERKNS9_13flat_hash_mapIyNS_10unique_ptrINS2_11PlacedLabelENS_14default_deleteISS_EEEESD_SF_NS4_INS_4pairIKySV_EEEEEERKNSQ_IPvNS6_INS2_11RenderLabelEEENS9_18container_internal6HashEqIS13_vE4HashENS18_2EqENS4_INSW_IKS13_S15_EEEEEENSJ_20LabelScalingBehaviorEEvEENS6_IT_EERKT0_DpOT1_
__ZNSt3__115allocate_sharedB8ue170006IN7gmscore6vector19SharedLabelerFacadeENS_9allocatorIS3_EEJRU8__strongPU29objcproto18GMSEntityResources11objc_objectRU8__strongP24GMSServerResourceManagerRNS1_4base10reffed_ptrINS2_6CameraEEEPNS2_21MetalIconTextureCacheERU8__strongP20GMSStyleTableServiceRNS_10shared_ptrINS2_13CTLineBuilderEEERU8__strongP27GMSTileCounterfactualLoggerN12GMSx_mapcore7labeler14LabelerOptionsEEvEENSP_IT_EERKT0_DpOT1_
__ZNSt3__115allocate_sharedB8ue170006IN7gmscore6vector20LabelBoxUniformStateENS_9allocatorIS3_EEJEvEENS_10shared_ptrIT_EERKT0_DpOT1_
__ZNSt3__115allocate_sharedB8ue170006IN7gmscore6vector20MetalLineStyleBufferENS_9allocatorIS3_EEJU8__strongPU19objcproto9MTLDevice11objc_objectRNS3_9StyleTypeERbSB_RNS_10shared_ptrINS2_16MetalDashTextureEEERmmRNS2_23MetalStrokeTextureCacheERKNS_12basic_stringIcNS_11char_traitsIcEENS4_IcEEEEEvEENSC_IT_EERKT0_DpOT1_
__ZNSt3__115allocate_sharedB8ue170006IN7gmscore6vector21MetalLineUniformStateENS_9allocatorIS3_EEJRbEvEENS_10shared_ptrIT_EERKT0_DpOT1_
__ZNSt3__115allocate_sharedB8ue170006IN7gmscore6vector21MetalLineVertexBufferENS_9allocatorIS3_EEJRU8__strongPU19objcproto9MTLDevice11objc_objectRmRbRfSC_RA14_KcEvEENS_10shared_ptrIT_EERKT0_DpOT1_
__ZNSt3__115allocate_sharedB8ue170006IN7gmscore6vector24MetalTextureAtlasElementENS_9allocatorIS3_EEJRNS2_24MetalMutableTextureAtlasERNS_10shared_ptrINS1_8renderer12MetalTextureEEERiRNS2_18TextureAtlasRegionESD_SD_RKNS_12basic_stringIcNS_11char_traitsIcEENS4_IcEEEERfEvEENS8_IT_EERKT0_DpOT1_
__ZNSt3__115allocate_sharedB8ue170006IN7gmscore6vector25LayeredSpriteUniformStateENS_9allocatorIS3_EEJRmEvEENS_10shared_ptrIT_EERKT0_DpOT1_
__ZNSt3__115allocate_sharedB8ue170006IN7gmscore6vector25MetalBuildingUniformStateENS_9allocatorIS3_EEJEvEENS_10shared_ptrIT_EERKT0_DpOT1_
__ZNSt3__115allocate_sharedB8ue170006IN7gmscore8renderer12MetalTextureENS_9allocatorIS3_EEJRU8__strongPU19objcproto9MTLDevice11objc_object14MTLPixelFormatRiSB_bRA15_KcEvEENS_10shared_ptrIT_EERKT0_DpOT1_
__ZNSt3__115allocate_sharedB8ue170006IN7gmscore8renderer12MetalTextureENS_9allocatorIS3_EEJRU8__strongPU19objcproto9MTLDevice11objc_objectR14MTLPixelFormatRiSC_RbRKNS_12basic_stringIcNS_11char_traitsIcEENS4_IcEEEEEvEENS_10shared_ptrIT_EERKT0_DpOT1_
__ZNSt3__115allocate_sharedB8ue170006IN7gmscore8renderer12MetalTextureENS_9allocatorIS3_EEJRU8__strongPU19objcproto9MTLDevice11objc_objectR14MTLPixelFormatRiSC_SC_bRKNS_12basic_stringIcNS_11char_traitsIcEENS4_IcEEEEEvEENS_10shared_ptrIT_EERKT0_DpOT1_
__ZNSt3__115allocate_sharedB8ue170006IN7gmscore8renderer18MetalPooledTextureENS_9allocatorIS3_EEJRNS_10shared_ptrINS2_12MetalTextureEEEPNS2_16MetalTexturePoolEEvEENS6_IT_EERKT0_DpOT1_
__ZNSt3__115allocate_sharedB8ue170006IN7gmscore8renderer22MetalBufferRenderStateENS_9allocatorIS3_EEJNS_10shared_ptrINS2_22MetalTypedBufferObjectINS2_12SimpleVertexEEEEENS2_17VertexBufferIndexEEvEENS6_IT_EERKT0_DpOT1_
__ZNSt3__115allocate_sharedB8ue170006IN7gmscore8renderer22MetalBufferRenderStateENS_9allocatorIS3_EEJRKNS_10shared_ptrINS2_22MetalTypedBufferObjectINS1_6vector15BasicTextVertexEEEEENS2_17VertexBufferIndexEEvEENS6_IT_EERKT0_DpOT1_
__ZNSt3__115allocate_sharedB8ue170006IN7gmscore8renderer22MetalBufferRenderStateENS_9allocatorIS3_EEJRKNS_10shared_ptrINS2_22MetalTypedBufferObjectINS2_14TexturedVertexEEEEENS2_17VertexBufferIndexEEvEENS6_IT_EERKT0_DpOT1_
__ZNSt3__115allocate_sharedB8ue170006IN7gmscore8renderer22MetalBufferRenderStateENS_9allocatorIS3_EEJRKNS_10shared_ptrINS2_22MetalTypedBufferObjectINS2_24AlphaArrayTexturedVertexEEEEENS2_17VertexBufferIndexEEvEENS6_IT_EERKT0_DpOT1_
__ZNSt3__115allocate_sharedB8ue170006IN7gmscore8renderer22MetalBufferRenderStateENS_9allocatorIS3_EEJRKNS_6vectorINS3_19BufferObjectBindingENS4_IS7_EEEESB_EvEENS_10shared_ptrIT_EERKT0_DpOT1_
__ZNSt3__115allocate_sharedB8ue170006IN7gmscore8renderer22MetalBufferRenderStateENS_9allocatorIS3_EEJRNS_10shared_ptrINS2_22MetalTypedBufferObjectINS1_6vector15BasicTextVertexEEEEENS2_17VertexBufferIndexEEvEENS6_IT_EERKT0_DpOT1_
__ZNSt3__115allocate_sharedB8ue170006IN7gmscore8renderer22MetalBufferRenderStateENS_9allocatorIS3_EEJRNS_10shared_ptrINS2_22MetalTypedBufferObjectINS2_12SimpleVertexEEEEENS2_17VertexBufferIndexEEvEENS6_IT_EERKT0_DpOT1_
__ZNSt3__115allocate_sharedB8ue170006IN7gmscore8renderer22MetalBufferRenderStateENS_9allocatorIS3_EEJRNS_10shared_ptrINS2_22MetalTypedBufferObjectINS2_14TexturedVertexEEEEENS2_17VertexBufferIndexEEvEENS6_IT_EERKT0_DpOT1_
__ZNSt3__115allocate_sharedB8ue170006IN7gmscore8renderer22MetalBufferRenderStateENS_9allocatorIS3_EEJRNS_10shared_ptrINS2_22MetalTypedBufferObjectINS2_14TexturedVertexEEEEEiNS1_6vector30LayeredSpriteVertexBufferIndexEEvEENS6_IT_EERKT0_DpOT1_
__ZNSt3__115allocate_sharedB8ue170006IN7gmscore8renderer22MetalBufferRenderStateENS_9allocatorIS3_EEJRNS_10shared_ptrINS2_22MetalTypedBufferObjectINS2_24AlphaArrayTexturedVertexEEEEENS2_17VertexBufferIndexEEvEENS6_IT_EERKT0_DpOT1_
__ZNSt3__115allocate_sharedB8ue170006IN7gmscore8renderer22MetalBufferRenderStateENS_9allocatorIS3_EEJRNS_6vectorINS3_19BufferObjectBindingENS4_IS7_EEEESA_EvEENS_10shared_ptrIT_EERKT0_DpOT1_
__ZNSt3__115allocate_sharedB8ue170006IN7gmscore8renderer22MetalTypedBufferObjectINS1_6vector10AreaVertexEEENS_9allocatorIS6_EEJRU8__strongPU19objcproto9MTLDevice11objc_objectRiRA24_KcEvEENS_10shared_ptrIT_EERKT0_DpOT1_
__ZNSt3__115allocate_sharedB8ue170006IN7gmscore8renderer22MetalTypedBufferObjectINS1_6vector10PointStyleEEENS_9allocatorIS6_EEJRU8__strongPU19objcproto9MTLDevice11objc_objectRiRA13_KcEvEENS_10shared_ptrIT_EERKT0_DpOT1_
__ZNSt3__115allocate_sharedB8ue170006IN7gmscore8renderer22MetalTypedBufferObjectINS1_6vector11PointVertexEEENS_9allocatorIS6_EEJRU8__strongPU19objcproto9MTLDevice11objc_objectRiRA15_KcEvEENS_10shared_ptrIT_EERKT0_DpOT1_
__ZNSt3__115allocate_sharedB8ue170006IN7gmscore8renderer22MetalTypedBufferObjectINS1_6vector14BreadcrumbQuadEEENS_9allocatorIS6_EEJRU8__strongPU19objcproto9MTLDevice11objc_objectRmRA17_KcEvEENS_10shared_ptrIT_EERKT0_DpOT1_
__ZNSt3__115allocate_sharedB8ue170006IN7gmscore8renderer22MetalTypedBufferObjectINS1_6vector15BasicTextVertexEEENS_9allocatorIS6_EEJRU8__strongPU19objcproto9MTLDevice11objc_objectRmRA17_KcEvEENS_10shared_ptrIT_EERKT0_DpOT1_
__ZNSt3__115allocate_sharedB8ue170006IN7gmscore8renderer22MetalTypedBufferObjectINS1_6vector15BasicTextVertexEEENS_9allocatorIS6_EEJU8__strongPU19objcproto9MTLDevice11objc_objectRmRA20_KcEvEENS_10shared_ptrIT_EERKT0_DpOT1_
__ZNSt3__115allocate_sharedB8ue170006IN7gmscore8renderer22MetalTypedBufferObjectINS1_6vector15BreadcrumbStyleEEENS_9allocatorIS6_EEJRU8__strongPU19objcproto9MTLDevice11objc_objectPS5_iRA17_KcEvEENS_10shared_ptrIT_EERKT0_DpOT1_
__ZNSt3__115allocate_sharedB8ue170006IN7gmscore8renderer22MetalTypedBufferObjectINS1_6vector16BreadcrumbVertexEEENS_9allocatorIS6_EEJRU8__strongPU19objcproto9MTLDevice11objc_objectPKS5_mRA20_KcEvEENS_10shared_ptrIT_EERKT0_DpOT1_
__ZNSt3__115allocate_sharedB8ue170006IN7gmscore8renderer22MetalTypedBufferObjectINS1_6vector16ColoredAreaStyleEEENS_9allocatorIS6_EEJRU8__strongPU19objcproto9MTLDevice11objc_objectRmRA20_KcEvEENS_10shared_ptrIT_EERKT0_DpOT1_
__ZNSt3__115allocate_sharedB8ue170006IN7gmscore8renderer22MetalTypedBufferObjectINS1_6vector16StyledTextVertexEEENS_9allocatorIS6_EEJU8__strongPU19objcproto9MTLDevice11objc_objectRmRA21_KcEvEENS_10shared_ptrIT_EERKT0_DpOT1_
__ZNSt3__115allocate_sharedB8ue170006IN7gmscore8renderer22MetalTypedBufferObjectINS1_6vector17TexturedAreaStyleEEENS_9allocatorIS6_EEJRU8__strongPU19objcproto9MTLDevice11objc_objectRmRA21_KcEvEENS_10shared_ptrIT_EERKT0_DpOT1_
__ZNSt3__115allocate_sharedB8ue170006IN7gmscore8renderer22MetalTypedBufferObjectINS1_6vector21NinePatchSpriteRegionEEENS_9allocatorIS6_EEJU8__strongPU19objcproto9MTLDevice11objc_objectRmRA25_KcEvEENS_10shared_ptrIT_EERKT0_DpOT1_
__ZNSt3__115allocate_sharedB8ue170006IN7gmscore8renderer22MetalTypedBufferObjectINS2_12SimpleVertexEEENS_9allocatorIS5_EEJRU8__strongPU19objcproto9MTLDevice11objc_objectPKS4_mRA17_KcEvEENS_10shared_ptrIT_EERKT0_DpOT1_
__ZNSt3__115allocate_sharedB8ue170006IN7gmscore8renderer22MetalTypedBufferObjectINS2_12SimpleVertexEEENS_9allocatorIS5_EEJRU8__strongPU19objcproto9MTLDevice11objc_objectRPKS4_mRA16_KcEvEENS_10shared_ptrIT_EERKT0_DpOT1_
__ZNSt3__115allocate_sharedB8ue170006IN7gmscore8renderer22MetalTypedBufferObjectINS2_12SimpleVertexEEENS_9allocatorIS5_EEJRU8__strongPU19objcproto9MTLDevice11objc_objectiRA23_KcEvEENS_10shared_ptrIT_EERKT0_DpOT1_
__ZNSt3__115allocate_sharedB8ue170006IN7gmscore8renderer22MetalTypedBufferObjectINS2_13ColoredVertexEEENS_9allocatorIS5_EEJU8__strongPU19objcproto9MTLDevice11objc_objectRKmRKNS_12basic_stringIcNS_11char_traitsIcEENS6_IcEEEEEvEENS_10shared_ptrIT_EERKT0_DpOT1_
__ZNSt3__115allocate_sharedB8ue170006IN7gmscore8renderer22MetalTypedBufferObjectINS2_14TexturedVertexEEENS_9allocatorIS5_EEJRU8__strongPU19objcproto9MTLDevice11objc_objectPKS4_mRA19_KcEvEENS_10shared_ptrIT_EERKT0_DpOT1_
__ZNSt3__115allocate_sharedB8ue170006IN7gmscore8renderer22MetalTypedBufferObjectINS2_14TexturedVertexEEENS_9allocatorIS5_EEJRU8__strongPU19objcproto9MTLDevice11objc_objectPKS4_mRA27_KcEvEENS_10shared_ptrIT_EERKT0_DpOT1_
__ZNSt3__115allocate_sharedB8ue170006IN7gmscore8renderer22MetalTypedBufferObjectINS2_14TexturedVertexEEENS_9allocatorIS5_EEJU8__strongPU19objcproto9MTLDevice11objc_objectPKS4_mRA18_KcEvEENS_10shared_ptrIT_EERKT0_DpOT1_
__ZNSt3__115allocate_sharedB8ue170006IN7gmscore8renderer22MetalTypedBufferObjectINS2_14TexturedVertexEEENS_9allocatorIS5_EEJU8__strongPU19objcproto9MTLDevice11objc_objectPS4_mRA17_KcEvEENS_10shared_ptrIT_EERKT0_DpOT1_
__ZNSt3__115allocate_sharedB8ue170006IN7gmscore8renderer22MetalTypedBufferObjectINS2_24AlphaArrayTexturedVertexEEENS_9allocatorIS5_EEJRU8__strongPU19objcproto9MTLDevice11objc_objectmRA21_KcEvEENS_10shared_ptrIT_EERKT0_DpOT1_
__ZNSt3__115allocate_sharedB8ue170006IN7gmscore8renderer22MetalTypedBufferObjectIjEENS_9allocatorIS4_EEJRU8__strongPU19objcproto9MTLDevice11objc_objectPjmRA22_KcEvEENS_10shared_ptrIT_EERKT0_DpOT1_
__ZNSt3__115allocate_sharedB8ue170006IN7gmscore8renderer22MetalTypedBufferObjectItEENS_9allocatorIS4_EEJRU8__strongPU19objcproto9MTLDevice11objc_objectPtmRA15_KcEvEENS_10shared_ptrIT_EERKT0_DpOT1_
__ZNSt3__115allocate_sharedB8ue170006IN7gmscore8renderer22MetalTypedBufferObjectItEENS_9allocatorIS4_EEJRU8__strongPU19objcproto9MTLDevice11objc_objectRiRA14_KcEvEENS_10shared_ptrIT_EERKT0_DpOT1_
__ZNSt3__115allocate_sharedB8ue170006IN7gmscore8renderer22MetalTypedBufferObjectItEENS_9allocatorIS4_EEJRU8__strongPU19objcproto9MTLDevice11objc_objectRiRA23_KcEvEENS_10shared_ptrIT_EERKT0_DpOT1_
__ZNSt3__115allocate_sharedB8ue170006IN7gmscore8renderer22MetalTypedBufferObjectItEENS_9allocatorIS4_EEJRU8__strongPU19objcproto9MTLDevice11objc_objectRmRA13_KcEvEENS_10shared_ptrIT_EERKT0_DpOT1_
__ZNSt3__115allocate_sharedB8ue170006IN7gmscore8renderer22MetalTypedBufferObjectItEENS_9allocatorIS4_EEJU8__strongPU19objcproto9MTLDevice11objc_objectRmRA18_KcEvEENS_10shared_ptrIT_EERKT0_DpOT1_
__ZNSt3__115allocate_sharedB8ue170006IN7gmscore8renderer23MetalTextureRenderStateENS_9allocatorIS3_EEJNS_10shared_ptrINS2_12MetalTextureEEEEvEENS6_IT_EERKT0_DpOT1_
__ZNSt3__115allocate_sharedB8ue170006IN7gmscore8renderer23MetalTextureRenderStateENS_9allocatorIS3_EEJNS_10shared_ptrINS2_12MetalTextureEEENS1_6vector22BreadcrumbTextureIndexEEvEENS6_IT_EERKT0_DpOT1_
__ZNSt3__115allocate_sharedB8ue170006IN7gmscore8renderer23MetalTextureRenderStateENS_9allocatorIS3_EEJRKNS_10shared_ptrINS2_12MetalTextureEEEEvEENS6_IT_EERKT0_DpOT1_
__ZNSt3__115allocate_sharedB8ue170006IN7gmscore8renderer23MetalTextureRenderStateENS_9allocatorIS3_EEJRKNS_10shared_ptrINS2_12MetalTextureEEENS1_6vector25LayeredSpriteTextureIndexEEvEENS6_IT_EERKT0_DpOT1_
__ZNSt3__115allocate_sharedB8ue170006IN7gmscore8renderer23MetalTextureRenderStateENS_9allocatorIS3_EEJRNS_10shared_ptrINS2_12MetalTextureEEEEvEENS6_IT_EERKT0_DpOT1_
__ZNSt3__115allocate_sharedB8ue170006IN7gmscore8renderer23MetalTextureRenderStateENS_9allocatorIS3_EEJRNS_6vectorINS3_14TextureBindingENS4_IS7_EEEESA_EvEENS_10shared_ptrIT_EERKT0_DpOT1_
__ZNSt3__115allocate_sharedB8ue170006IN7gmscore8renderer24MetalPipelineRenderStateENS_9allocatorIS3_EEJRU8__strongPU33objcproto22MTLRenderPipelineState11objc_objectEvEENS_10shared_ptrIT_EERKT0_DpOT1_
__ZNSt3__115allocate_sharedB8ue170006IN7gmscore8renderer28MetalDepthStencilRenderStateENS_9allocatorIS3_EEJRU8__strongPU31objcproto20MTLDepthStencilState11objc_objectRfSA_SA_RjSB_R16MTLDepthClipModeEvEENS_10shared_ptrIT_EERKT0_DpOT1_
__ZNSt3__115allocate_sharedB8un170006IN22GMSx_maps_paint_client13LabelRenderOpENS_9allocatorIS2_EEJRKS2_EvEENS_10shared_ptrIT_EERKT0_DpOT1_
__ZNSt3__115allocate_sharedB8un170006IN22GMSx_maps_paint_client13LabelRenderOpENS_9allocatorIS2_EEJS2_EvEENS_10shared_ptrIT_EERKT0_DpOT1_
__ZNSt3__115allocate_sharedB8un170006IN22GMSx_maps_paint_client21LineLabelCandidateSetENS_9allocatorIS2_EEJS2_EvEENS_10shared_ptrIT_EERKT0_DpOT1_
__ZNSt3__115basic_stringbufIcNS_11char_traitsIcEENS_9allocatorIcEEE15__init_buf_ptrsB8ue170006Ev
__ZNSt3__115basic_stringbufIcNS_11char_traitsIcEENS_9allocatorIcEEEC2B8ue170006ERKNS_12basic_stringIcS2_S4_EEj
__ZNSt3__115insert_iteratorINS_3setI12GMSFeatureIDN7gmsbase5model19GMSIndoorIDLessFuncENS_9allocatorIS2_EEEEEaSB8ue170006ERKS2_
__ZNSt3__115insert_iteratorINS_3setINS_10shared_ptrIN7gmscore6vector16LabelableFeatureEEENS_4lessIS6_EENS_9allocatorIS6_EEEEEaSB8ue170006ERKS6_
__ZNSt3__115insert_iteratorINS_3setINS_12basic_stringIcNS_11char_traitsIcEENS_9allocatorIcEEEENS_4lessIS7_EENS5_IS7_EEEEEaSB8ue170006ERKS7_
__ZNSt3__116__deque_iteratorIN9GMSx_absl12crc_internal12CrcCordState9PrefixCrcEPKS4_RS5_PKS6_lLl256EEpLB8ue170006El
__ZNSt3__116__deque_iteratorIN9GMSx_absl12crc_internal12CrcCordState9PrefixCrcEPS4_RS4_PS5_lLl256EEpLB8ue170006El
__ZNSt3__116__insertion_sortB8ue170006INS_17_ClassicAlgPolicyER25GMSx_FilenameFlagnameLessP24GMSx_CommandLineFlagInfoEEvT1_S6_T0_
__ZNSt3__116__insertion_sortB8ue170006INS_17_ClassicAlgPolicyERN11GMSx_proto213GMSx_internal12MapKeySorter16MapKeyComparatorEPNS2_6MapKeyEEEvT1_S9_T0_
__ZNSt3__116__insertion_sortB8ue170006INS_17_ClassicAlgPolicyERN11GMSx_proto213GMSx_internal17MapSorterLessThanIjEEPNS_4pairIjPKvEEEEvT1_SC_T0_
__ZNSt3__116__insertion_sortB8ue170006INS_17_ClassicAlgPolicyERN11GMSx_proto213GMSx_internal17MapSorterLessThanIxEEPNS_4pairIxPKvEEEEvT1_SC_T0_
__ZNSt3__116__insertion_sortB8ue170006INS_17_ClassicAlgPolicyERN11GMSx_proto213GMSx_internal17MapSorterLessThanIyEEPNS_4pairIyPKvEEEEvT1_SC_T0_
__ZNSt3__116__insertion_sortB8ue170006INS_17_ClassicAlgPolicyERN11GMSx_proto213GMSx_internal20MapSorterPtrLessThanINS_12basic_stringIcNS_11char_traitsIcEENS_9allocatorIcEEEEEEPPKvEEvT1_SG_T0_
__ZNSt3__116__insertion_sortB8ue170006INS_17_ClassicAlgPolicyERN11GMSx_proto216DynamicMapSorter25MapEntryMessageComparatorENS_11__wrap_iterIPPKNS2_7MessageEEEEEvT1_SC_T0_
__ZNSt3__116__insertion_sortB8ue170006INS_17_ClassicAlgPolicyERN11GMSx_proto225MapEntryMessageComparatorENS_11__wrap_iterIPPKNS2_7MessageEEEEEvT1_SB_T0_
__ZNSt3__116__insertion_sortB8ue170006INS_17_ClassicAlgPolicyERN23GMSx_geo_imagery_viewer5swipe16AreaConnectivity19CompareIdIndexPairsEPNS_4pairIPKNS_12basic_stringIcNS_11char_traitsIcEENS_9allocatorIcEEEEiEEEEvT1_SI_T0_
__ZNSt3__116__insertion_sortB8ue170006INS_17_ClassicAlgPolicyERN8GMSx_gtl7OrderByIMN23GMSx_geo_imagery_viewer7overlay15IconManagerImpl10PickedIconEdNS2_4LessEEEPS7_EEvT1_SD_T0_
__ZNSt3__116__insertion_sortB8ue170006INS_17_ClassicAlgPolicyERNS_6__lessIvvEEPN9GMSx_absl11string_viewEEEvT1_S8_T0_
__ZNSt3__116__insertion_sortB8ue170006INS_17_ClassicAlgPolicyERNS_6__lessIvvEEPNS_12basic_stringIcNS_11char_traitsIcEENS_9allocatorIcEEEEEEvT1_SC_T0_
__ZNSt3__116__insertion_sortB8ue170006INS_17_ClassicAlgPolicyERNS_8functionIFbRKN7gmscore4base10reffed_ptrINS3_8renderer10BaseEntityEEESA_EEEPS8_EEvT1_SF_T0_
__ZNSt3__116__insertion_sortB8ue170006INS_17_ClassicAlgPolicyERPFbPKN11GMSx_proto215FieldDescriptorES5_EPS5_EEvT1_SA_T0_
__ZNSt3__116__insertion_sortB8ue170006INS_17_ClassicAlgPolicyERPFbRKN7gmscore4base10reffed_ptrINS2_6vector4text20RenderableGlyphGroupEEESA_EPS8_EEvT1_SF_T0_
__ZNSt3__116__insertion_sortB8ue170006INS_17_ClassicAlgPolicyERPFbRKNS_10shared_ptrIN7gmscore6vector16LabelableFeatureEEES8_ENS_11__wrap_iterIPS6_EEEEvT1_SF_T0_
__ZNSt3__116__insertion_sortB8un170006INS_17_ClassicAlgPolicyERN12GMSx_mapcore7labeler18LabelPtrComparatorEPPNS3_14LabelCandidateEEEvT1_S9_T0_
__ZNSt3__116__insertion_sortB8un170006INS_17_ClassicAlgPolicyERN8GMSx_gtl7OrderByIMN11util_intops6HandleIN12GMSx_mapcore7labeler27LabelCandidateBundleId_tag_EyEEKFyvENS2_4LessEEEPS9_EEvT1_SG_T0_
__ZNSt3__116__pad_and_outputB8ue170006IcNS_11char_traitsIcEEEENS_19ostreambuf_iteratorIT_T0_EES6_PKS4_S8_S8_RNS_8ios_baseES4_
__ZNSt3__116__pad_and_outputB8un170006IcNS_11char_traitsIcEEEENS_19ostreambuf_iteratorIT_T0_EES6_PKS4_S8_S8_RNS_8ios_baseES4_
__ZNSt3__116__rotate_forwardB8ue170006INS_17_ClassicAlgPolicyENS_11__wrap_iterIPNS_10shared_ptrIN7gmscore6vector16LabelableFeatureEEEEEEET0_SA_SA_SA_
__ZNSt3__116__rotate_forwardB8ue170006INS_17_ClassicAlgPolicyENS_11__wrap_iterIPNS_4pairIN27GMSx_program_image_remapper19GMSx_classification7SectionENS5_16MemoryImportanceEEEEEEET0_SB_SB_SB_
__ZNSt3__116__rotate_forwardB8ue170006INS_17_ClassicAlgPolicyENS_11__wrap_iterIPNS_4pairIiPKN11GMSx_proto212UnknownFieldEEEEEEET0_SB_SB_SB_
__ZNSt3__116__set_differenceB8ue170006INS_17_ClassicAlgPolicyENS_6__lessIvvEERNS_21__tree_const_iteratorINS_10shared_ptrIN7gmscore6vector16LabelableFeatureEEEPNS_11__tree_nodeIS9_PvEElEESF_SF_SF_RNS_15insert_iteratorIN9GMSx_absl13flat_hash_setIS9_NSH_18container_internal6HashEqIPS8_vE4HashENSM_2EqENS_9allocatorIS9_EEEEEEEENS_4pairIu14__remove_cvrefIT1_Eu14__remove_cvrefIT5_EEEOSV_OT2_OT3_OT4_OSX_OT0_
__ZNSt3__116__set_differenceB8ue170006INS_17_ClassicAlgPolicyENS_6__lessIvvEERNS_21__tree_const_iteratorINS_10shared_ptrIN7gmscore6vector16LabelableFeatureEEEPNS_11__tree_nodeIS9_PvEElEESF_SF_SF_RNS_15insert_iteratorINS_3setIS9_NS_4lessIS9_EENS_9allocatorIS9_EEEEEEEENS_4pairIu14__remove_cvrefIT1_Eu14__remove_cvrefIT5_EEEOSQ_OT2_OT3_OT4_OSS_OT0_
__ZNSt3__116__set_differenceB8ue170006INS_17_ClassicAlgPolicyERN7gmsbase5model19GMSIndoorIDLessFuncERNS_21__tree_const_iteratorI12GMSFeatureIDPNS_11__tree_nodeIS7_PvEElEESD_SD_SD_RNS_15insert_iteratorINS_3setIS7_S4_NS_9allocatorIS7_EEEEEEEENS_4pairIu14__remove_cvrefIT1_Eu14__remove_cvrefIT5_EEEOSM_OT2_OT3_OT4_OSO_OT0_
__ZNSt3__116__variant_detail12__visitation6__base12__dispatcherIJLm0EEE10__dispatchB8ue170006IOZNS0_6__dtorINS0_8__traitsIJN12GMSx_riegeli8ByteFill9ZeroBlockENS9_10SmallBlockENS9_10LargeBlockEEEELNS0_6_TraitE1EE9__destroyB8ue170006EvEUlRT_E_JRNS0_6__baseILSE_1EJSA_SB_SC_EEEEEEDcSG_DpT0_
__ZNSt3__116__variant_detail12__visitation6__base12__dispatcherIJLm0EEE10__dispatchB8ue170006IOZNS0_6__dtorINS0_8__traitsIJN9GMSx_absl11string_viewENS_8functionIFbvEEEEEELNS0_6_TraitE1EE9__destroyB8ue170006EvEUlRT_E_JRNS0_6__baseILSE_1EJS9_SC_EEEEEEDcSG_DpT0_
__ZNSt3__116__variant_detail12__visitation6__base12__dispatcherIJLm0EEE10__dispatchB8ue170006IOZNS0_6__dtorINS0_8__traitsIJNS_12basic_stringIcNS_11char_traitsIcEENS_9allocatorIcEEEENS_8functionIFbvEEEEEELNS0_6_TraitE1EE9__destroyB8ue170006EvEUlRT_E_JRNS0_6__baseILSI_1EJSD_SG_EEEEEEDcSK_DpT0_
__ZNSt3__116__variant_detail12__visitation6__base12__dispatcherIJLm0EEE10__dispatchB8ue170006IOZNS0_6__dtorINS0_8__traitsIJNS_12basic_stringIcNS_11char_traitsIcEENS_9allocatorIcEEEEPKN9GMSx_util10ErrorSpaceEEEELNS0_6_TraitE1EE9__destroyB8ue170006EvEUlRT_E_JRNS0_6__baseILSJ_1EJSD_SH_EEEEEEDcSL_DpT0_
__ZNSt3__116__variant_detail12__visitation6__base12__dispatcherIJLm0EEE10__dispatchB8ue170006IOZNS0_6__dtorINS0_8__traitsIJU8__strongP20GMSModelFeatureStyleiEEELNS0_6_TraitE1EE9__destroyB8ue170006EvEUlRT_E_JRNS0_6__baseILSC_1EJSA_iEEEEEEDcSE_DpT0_
__ZNSt3__116__variant_detail12__visitation6__base12__dispatcherIJLm0EEE10__dispatchB8un170006IOZNS0_6__dtorINS0_8__traitsIJNS_8weak_ptrIN8GMSx_imp13GMSx_internal10FutureImpl17FutureImplWrapperEEENSB_12CombineChildENSB_11NestedChildENSB_13KeptForgetterENS9_9InvocableIFvRNSA_12ResultHolderEEEENS9_8HoldableEEEELNS0_6_TraitE1EE9__destroyB8un170006EvEUlRT_E_JRNS0_6__baseILSO_1EJSD_SE_SF_SG_SL_SM_EEEEEEDcSQ_DpT0_
__ZNSt3__116__variant_detail12__visitation6__base12__dispatcherIJLm1EEE10__dispatchB8ue170006IOZNS0_6__dtorINS0_8__traitsIJN12GMSx_riegeli8ByteFill9ZeroBlockENS9_10SmallBlockENS9_10LargeBlockEEEELNS0_6_TraitE1EE9__destroyB8ue170006EvEUlRT_E_JRNS0_6__baseILSE_1EJSA_SB_SC_EEEEEEDcSG_DpT0_
__ZNSt3__116__variant_detail12__visitation6__base12__dispatcherIJLm1EEE10__dispatchB8ue170006IOZNS0_6__dtorINS0_8__traitsIJN9GMSx_absl11string_viewENS_8functionIFbvEEEEEELNS0_6_TraitE1EE9__destroyB8ue170006EvEUlRT_E_JRNS0_6__baseILSE_1EJS9_SC_EEEEEEDcSG_DpT0_
__ZNSt3__116__variant_detail12__visitation6__base12__dispatcherIJLm1EEE10__dispatchB8ue170006IOZNS0_6__dtorINS0_8__traitsIJNS_12basic_stringIcNS_11char_traitsIcEENS_9allocatorIcEEEENS_8functionIFbvEEEEEELNS0_6_TraitE1EE9__destroyB8ue170006EvEUlRT_E_JRNS0_6__baseILSI_1EJSD_SG_EEEEEEDcSK_DpT0_
__ZNSt3__116__variant_detail12__visitation6__base12__dispatcherIJLm1EEE10__dispatchB8ue170006IOZNS0_6__dtorINS0_8__traitsIJNS_12basic_stringIcNS_11char_traitsIcEENS_9allocatorIcEEEEPKN9GMSx_util10ErrorSpaceEEEELNS0_6_TraitE1EE9__destroyB8ue170006EvEUlRT_E_JRNS0_6__baseILSJ_1EJSD_SH_EEEEEEDcSL_DpT0_
__ZNSt3__116__variant_detail12__visitation6__base12__dispatcherIJLm1EEE10__dispatchB8ue170006IOZNS0_6__dtorINS0_8__traitsIJU8__strongP20GMSModelFeatureStyleiEEELNS0_6_TraitE1EE9__destroyB8ue170006EvEUlRT_E_JRNS0_6__baseILSC_1EJSA_iEEEEEEDcSE_DpT0_
__ZNSt3__116__variant_detail12__visitation6__base12__dispatcherIJLm1EEE10__dispatchB8un170006IOZNS0_6__dtorINS0_8__traitsIJNS_8weak_ptrIN8GMSx_imp13GMSx_internal10FutureImpl17FutureImplWrapperEEENSB_12CombineChildENSB_11NestedChildENSB_13KeptForgetterENS9_9InvocableIFvRNSA_12ResultHolderEEEENS9_8HoldableEEEELNS0_6_TraitE1EE9__destroyB8un170006EvEUlRT_E_JRNS0_6__baseILSO_1EJSD_SE_SF_SG_SL_SM_EEEEEEDcSQ_DpT0_
__ZNSt3__116__variant_detail12__visitation6__base12__dispatcherIJLm2EEE10__dispatchB8ue170006IOZNS0_6__dtorINS0_8__traitsIJN12GMSx_riegeli8ByteFill9ZeroBlockENS9_10SmallBlockENS9_10LargeBlockEEEELNS0_6_TraitE1EE9__destroyB8ue170006EvEUlRT_E_JRNS0_6__baseILSE_1EJSA_SB_SC_EEEEEEDcSG_DpT0_
__ZNSt3__116__variant_detail12__visitation6__base12__dispatcherIJLm2EEE10__dispatchB8un170006IOZNS0_6__dtorINS0_8__traitsIJNS_8weak_ptrIN8GMSx_imp13GMSx_internal10FutureImpl17FutureImplWrapperEEENSB_12CombineChildENSB_11NestedChildENSB_13KeptForgetterENS9_9InvocableIFvRNSA_12ResultHolderEEEENS9_8HoldableEEEELNS0_6_TraitE1EE9__destroyB8un170006EvEUlRT_E_JRNS0_6__baseILSO_1EJSD_SE_SF_SG_SL_SM_EEEEEEDcSQ_DpT0_
__ZNSt3__116__variant_detail12__visitation6__base12__dispatcherIJLm3EEE10__dispatchB8un170006IOZNS0_6__dtorINS0_8__traitsIJNS_8weak_ptrIN8GMSx_imp13GMSx_internal10FutureImpl17FutureImplWrapperEEENSB_12CombineChildENSB_11NestedChildENSB_13KeptForgetterENS9_9InvocableIFvRNSA_12ResultHolderEEEENS9_8HoldableEEEELNS0_6_TraitE1EE9__destroyB8un170006EvEUlRT_E_JRNS0_6__baseILSO_1EJSD_SE_SF_SG_SL_SM_EEEEEEDcSQ_DpT0_
__ZNSt3__116__variant_detail12__visitation6__base12__dispatcherIJLm4EEE10__dispatchB8un170006IOZNS0_6__dtorINS0_8__traitsIJNS_8weak_ptrIN8GMSx_imp13GMSx_internal10FutureImpl17FutureImplWrapperEEENSB_12CombineChildENSB_11NestedChildENSB_13KeptForgetterENS9_9InvocableIFvRNSA_12ResultHolderEEEENS9_8HoldableEEEELNS0_6_TraitE1EE9__destroyB8un170006EvEUlRT_E_JRNS0_6__baseILSO_1EJSD_SE_SF_SG_SL_SM_EEEEEEDcSQ_DpT0_
__ZNSt3__116__variant_detail12__visitation6__base12__dispatcherIJLm5EEE10__dispatchB8un170006IOZNS0_6__dtorINS0_8__traitsIJNS_8weak_ptrIN8GMSx_imp13GMSx_internal10FutureImpl17FutureImplWrapperEEENSB_12CombineChildENSB_11NestedChildENSB_13KeptForgetterENS9_9InvocableIFvRNSA_12ResultHolderEEEENS9_8HoldableEEEELNS0_6_TraitE1EE9__destroyB8un170006EvEUlRT_E_JRNS0_6__baseILSO_1EJSD_SE_SF_SG_SL_SM_EEEEEEDcSQ_DpT0_
__ZNSt3__117__call_once_proxyB8ue170006INS_5tupleIJRFvvEEEEEEvPv
__ZNSt3__117__floyd_sift_downB8ue170006INS_17_ClassicAlgPolicyER25GMSx_FilenameFlagnameLessP24GMSx_CommandLineFlagInfoEET1_S6_OT0_NS_15iterator_traitsIS6_E15difference_typeE
__ZNSt3__117__floyd_sift_downB8ue170006INS_17_ClassicAlgPolicyERN11GMSx_proto213GMSx_internal12MapKeySorter16MapKeyComparatorEPNS2_6MapKeyEEET1_S9_OT0_NS_15iterator_traitsIS9_E15difference_typeE
__ZNSt3__117__floyd_sift_downB8ue170006INS_17_ClassicAlgPolicyERN11GMSx_proto213GMSx_internal17MapSorterLessThanIjEEPNS_4pairIjPKvEEEET1_SC_OT0_NS_15iterator_traitsISC_E15difference_typeE
__ZNSt3__117__floyd_sift_downB8ue170006INS_17_ClassicAlgPolicyERN11GMSx_proto213GMSx_internal17MapSorterLessThanIxEEPNS_4pairIxPKvEEEET1_SC_OT0_NS_15iterator_traitsISC_E15difference_typeE
__ZNSt3__117__floyd_sift_downB8ue170006INS_17_ClassicAlgPolicyERN11GMSx_proto213GMSx_internal17MapSorterLessThanIyEEPNS_4pairIyPKvEEEET1_SC_OT0_NS_15iterator_traitsISC_E15difference_typeE
__ZNSt3__117__floyd_sift_downB8ue170006INS_17_ClassicAlgPolicyERN11GMSx_proto213GMSx_internal20MapSorterPtrLessThanINS_12basic_stringIcNS_11char_traitsIcEENS_9allocatorIcEEEEEEPPKvEET1_SG_OT0_NS_15iterator_traitsISG_E15difference_typeE
__ZNSt3__117__floyd_sift_downB8ue170006INS_17_ClassicAlgPolicyERN23GMSx_geo_imagery_viewer5swipe16AreaConnectivity19CompareIdIndexPairsEPNS_4pairIPKNS_12basic_stringIcNS_11char_traitsIcEENS_9allocatorIcEEEEiEEEET1_SI_OT0_NS_15iterator_traitsISI_E15difference_typeE
__ZNSt3__117__floyd_sift_downB8ue170006INS_17_ClassicAlgPolicyERNS_6__lessIvvEENS_11__wrap_iterIPN23GMSx_geo_imagery_viewer7overlay13NodeCandidateEEEEET1_SB_OT0_NS_15iterator_traitsISB_E15difference_typeE
__ZNSt3__117__floyd_sift_downB8ue170006INS_17_ClassicAlgPolicyERNS_6__lessIvvEEPN9GMSx_absl11string_viewEEET1_S8_OT0_NS_15iterator_traitsIS8_E15difference_typeE
__ZNSt3__117__floyd_sift_downB8ue170006INS_17_ClassicAlgPolicyERNS_6__lessIvvEEPNS_12basic_stringIcNS_11char_traitsIcEENS_9allocatorIcEEEEEET1_SC_OT0_NS_15iterator_traitsISC_E15difference_typeE
__ZNSt3__117__floyd_sift_downB8ue170006INS_17_ClassicAlgPolicyERNS_8functionIFbRKN7gmscore4base10reffed_ptrINS3_8renderer10BaseEntityEEESA_EEEPS8_EET1_SF_OT0_NS_15iterator_traitsISF_E15difference_typeE
__ZNSt3__117__floyd_sift_downB8ue170006INS_17_ClassicAlgPolicyERPFbPKN11GMSx_proto215FieldDescriptorES5_EPS5_EET1_SA_OT0_NS_15iterator_traitsISA_E15difference_typeE
__ZNSt3__117__floyd_sift_downB8ue170006INS_17_ClassicAlgPolicyERPFbRKN7gmscore4base10reffed_ptrINS2_6vector4text20RenderableGlyphGroupEEESA_EPS8_EET1_SF_OT0_NS_15iterator_traitsISF_E15difference_typeE
__ZNSt3__117__floyd_sift_downB8un170006INS_17_ClassicAlgPolicyERN12GMSx_mapcore7labeler18LabelPtrComparatorEPPNS3_14LabelCandidateEEET1_S9_OT0_NS_15iterator_traitsIS9_E15difference_typeE
__ZNSt3__117__floyd_sift_downB8un170006INS_17_ClassicAlgPolicyERN8GMSx_gtl7OrderByIMN11util_intops6HandleIN12GMSx_mapcore7labeler27LabelCandidateBundleId_tag_EyEEKFyvENS2_4LessEEEPS9_EET1_SG_OT0_NS_15iterator_traitsISG_E15difference_typeE
__ZNSt3__117bad_function_callD0Ev
__ZNSt3__117bad_function_callD1Ev
__ZNSt3__118__for_each_segmentB8ue170006INS_16__deque_iteratorIN7gmscore5model7Point2DEPKS4_RS5_PKS6_lLl512EEENS_11__copy_loopINS_17_ClassicAlgPolicyEE12_CopySegmentISA_NS1_IS4_PS4_RS4_PSF_lLl512EEEEEEEvT_SK_T0_
__ZNSt3__118__for_each_segmentB8ue170006INS_16__deque_iteratorIN7gmscore5model7Point2DEPKS4_RS5_PKS6_lLl512EEENS_11__copy_loopINS_17_ClassicAlgPolicyEE12_CopySegmentISA_NS_20back_insert_iteratorINS_6vectorIS4_NS_9allocatorIS4_EEEEEEEEEEvT_SM_T0_
__ZNSt3__118__for_each_segmentB8ue170006INS_16__deque_iteratorIN7gmscore5model7Point2DEPS4_RS4_PS5_lLl512EEENS_11__move_loopINS_17_ClassicAlgPolicyEE12_MoveSegmentIS8_S8_EEEEvT_SE_T0_
__ZNSt3__118__for_each_segmentB8ue170006INS_16__deque_iteratorIN9GMSx_absl12crc_internal12CrcCordState9PrefixCrcEPKS5_RS6_PKS7_lLl256EEENS_11__copy_loopINS_17_ClassicAlgPolicyEE12_CopySegmentISB_NS1_IS5_PS5_RS5_PSG_lLl256EEEEEEEvT_SL_T0_
__ZNSt3__118basic_stringstreamIcNS_11char_traitsIcEENS_9allocatorIcEEEC1B8ue170006ERKNS_12basic_stringIcS2_S4_EEj
__ZNSt3__118basic_stringstreamIcNS_11char_traitsIcEENS_9allocatorIcEEEC1B8ue170006Ev
__ZNSt3__119__allocate_at_leastB8ue170006INS_9allocatorI10GMSPoint2DEEEENS_19__allocation_resultINS_16allocator_traitsIT_E7pointerEEERS6_m
__ZNSt3__119__allocate_at_leastB8ue170006INS_9allocatorI12GMSFeatureIDEEEENS_19__allocation_resultINS_16allocator_traitsIT_E7pointerEEERS6_m
__ZNSt3__119__allocate_at_leastB8ue170006INS_9allocatorI13GMSCoordinateEEEENS_19__allocation_resultINS_16allocator_traitsIT_E7pointerEEERS6_m
__ZNSt3__119__allocate_at_leastB8ue170006INS_9allocatorI13GMSx_S2CellIdEEEENS_19__allocation_resultINS_16allocator_traitsIT_E7pointerEEERS6_m
__ZNSt3__119__allocate_at_leastB8ue170006INS_9allocatorI20CalloutArrowPositionEEEENS_19__allocation_resultINS_16allocator_traitsIT_E7pointerEEERS6_m
__ZNSt3__119__allocate_at_leastB8ue170006INS_9allocatorI21GMSLazyMultiZoomStyleEEEENS_19__allocation_resultINS_16allocator_traitsIT_E7pointerEEERS6_m
__ZNSt3__119__allocate_at_leastB8ue170006INS_9allocatorI22CLLocationCoordinate2DEEEENS_19__allocation_resultINS_16allocator_traitsIT_E7pointerEEERS6_m
__ZNSt3__119__allocate_at_leastB8ue170006INS_9allocatorI24GMSx_CommandLineFlagInfoEEEENS_19__allocation_resultINS_16allocator_traitsIT_E7pointerEEERS6_m
__ZNSt3__119__allocate_at_leastB8ue170006INS_9allocatorI6CGRectEEEENS_19__allocation_resultINS_16allocator_traitsIT_E7pointerEEERS6_m
__ZNSt3__119__allocate_at_leastB8ue170006INS_9allocatorI7CGPointEEEENS_19__allocation_resultINS_16allocator_traitsIT_E7pointerEEERS6_m
__ZNSt3__119__allocate_at_leastB8ue170006INS_9allocatorI9GMSPassIDEEEENS_19__allocation_resultINS_16allocator_traitsIT_E7pointerEEERS6_m
__ZNSt3__119__allocate_at_leastB8ue170006INS_9allocatorIDv2_fEEEENS_19__allocation_resultINS_16allocator_traitsIT_E7pointerEEERS6_m
__ZNSt3__119__allocate_at_leastB8ue170006INS_9allocatorIDv4_hEEEENS_19__allocation_resultINS_16allocator_traitsIT_E7pointerEEERS6_m
__ZNSt3__119__allocate_at_leastB8ue170006INS_9allocatorIN11GMSx_mathfu12VectorPackedIfLi3EEEEEEENS_19__allocation_resultINS_16allocator_traitsIT_E7pointerEEERS8_m
__ZNSt3__119__allocate_at_leastB8ue170006INS_9allocatorIN11GMSx_mathfu6MatrixIdLi4ELi4EEEEEEENS_19__allocation_resultINS_16allocator_traitsIT_E7pointerEEERS8_m
__ZNSt3__119__allocate_at_leastB8ue170006INS_9allocatorIN11GMSx_mathfu6VectorIdLi3EEEEEEENS_19__allocation_resultINS_16allocator_traitsIT_E7pointerEEERS8_m
__ZNSt3__119__allocate_at_leastB8ue170006INS_9allocatorIN11GMSx_mathfu6VectorIfLi3EEEEEEENS_19__allocation_resultINS_16allocator_traitsIT_E7pointerEEERS8_m
__ZNSt3__119__allocate_at_leastB8ue170006INS_9allocatorIN11GMSx_proto210TextFormat18ParseLocationRangeEEEEENS_19__allocation_resultINS_16allocator_traitsIT_E7pointerEEERS8_m
__ZNSt3__119__allocate_at_leastB8ue170006INS_9allocatorIN11GMSx_proto213GMSx_internal17TailCallTableInfo11SkipEntry16EEEEENS_19__allocation_resultINS_16allocator_traitsIT_E7pointerEEERS9_m
__ZNSt3__119__allocate_at_leastB8ue170006INS_9allocatorIN11GMSx_proto213GMSx_internal17TailCallTableInfo12FieldOptionsEEEEENS_19__allocation_resultINS_16allocator_traitsIT_E7pointerEEERS9_m
__ZNSt3__119__allocate_at_leastB8ue170006INS_9allocatorIN11GMSx_proto213GMSx_internal17TailCallTableInfo13FastFieldInfoEEEEENS_19__allocation_resultINS_16allocator_traitsIT_E7pointerEEERS9_m
__ZNSt3__119__allocate_at_leastB8ue170006INS_9allocatorIN11GMSx_proto213GMSx_internal17TailCallTableInfo14FieldEntryInfoEEEEENS_19__allocation_resultINS_16allocator_traitsIT_E7pointerEEERS9_m
__ZNSt3__119__allocate_at_leastB8ue170006INS_9allocatorIN11GMSx_proto213GMSx_internal17TailCallTableInfo14SkipEntryBlockEEEEENS_19__allocation_resultINS_16allocator_traitsIT_E7pointerEEERS9_m
__ZNSt3__119__allocate_at_leastB8ue170006INS_9allocatorIN11GMSx_proto213GMSx_internal17TailCallTableInfo8AuxEntryEEEEENS_19__allocation_resultINS_16allocator_traitsIT_E7pointerEEERS9_m
__ZNSt3__119__allocate_at_leastB8ue170006INS_9allocatorIN11GMSx_proto214DescriptorPool18DeferredValidation13LifetimesInfoEEEEENS_19__allocation_resultINS_16allocator_traitsIT_E7pointerEEERS9_m
__ZNSt3__119__allocate_at_leastB8ue170006INS_9allocatorIN11GMSx_proto214DescriptorPool6Tables10CheckPointEEEEENS_19__allocation_resultINS_16allocator_traitsIT_E7pointerEEERS9_m
__ZNSt3__119__allocate_at_leastB8ue170006INS_9allocatorIN11GMSx_proto225EncodedDescriptorDatabase15DescriptorIndex11SymbolEntryEEEEENS_19__allocation_resultINS_16allocator_traitsIT_E7pointerEEERS9_m
__ZNSt3__119__allocate_at_leastB8ue170006INS_9allocatorIN11GMSx_proto225EncodedDescriptorDatabase15DescriptorIndex12EncodedEntryEEEEENS_19__allocation_resultINS_16allocator_traitsIT_E7pointerEEERS9_m
__ZNSt3__119__allocate_at_leastB8ue170006INS_9allocatorIN11GMSx_proto225EncodedDescriptorDatabase15DescriptorIndex14ExtensionEntryEEEEENS_19__allocation_resultINS_16allocator_traitsIT_E7pointerEEERS9_m
__ZNSt3__119__allocate_at_leastB8ue170006INS_9allocatorIN11GMSx_proto225EncodedDescriptorDatabase15DescriptorIndex9FileEntryEEEEENS_19__allocation_resultINS_16allocator_traitsIT_E7pointerEEERS9_m
__ZNSt3__119__allocate_at_leastB8ue170006INS_9allocatorIN11GMSx_proto227FieldOptions_EditionDefaultEEEEENS_19__allocation_resultINS_16allocator_traitsIT_E7pointerEEERS7_m
__ZNSt3__119__allocate_at_leastB8ue170006INS_9allocatorIN11GMSx_proto22io7Printer6Format4LineEEEEENS_19__allocation_resultINS_16allocator_traitsIT_E7pointerEEERSA_m
__ZNSt3__119__allocate_at_leastB8ue170006INS_9allocatorIN11GMSx_proto22io7Printer6Format5ChunkEEEEENS_19__allocation_resultINS_16allocator_traitsIT_E7pointerEEERSA_m
__ZNSt3__119__allocate_at_leastB8ue170006INS_9allocatorIN11GMSx_proto26MapKeyEEEEENS_19__allocation_resultINS_16allocator_traitsIT_E7pointerEEERS7_m
__ZNSt3__119__allocate_at_leastB8ue170006INS_9allocatorIN11GMSx_proto26SymbolEEEEENS_19__allocation_resultINS_16allocator_traitsIT_E7pointerEEERS7_m
__ZNSt3__119__allocate_at_leastB8ue170006INS_9allocatorIN11GMSx_proto29GMSx_util18MessageDifferencer13SpecificFieldEEEEENS_19__allocation_resultINS_16allocator_traitsIT_E7pointerEEERS9_m
__ZNSt3__119__allocate_at_leastB8ue170006INS_9allocatorIN12GMSx_mapcore7labeler17PlacedLabelUpdateEEEEENS_19__allocation_resultINS_16allocator_traitsIT_E7pointerEEERS8_m
__ZNSt3__119__allocate_at_leastB8ue170006INS_9allocatorIN12GMSx_strings12HostPortPairEEEEENS_19__allocation_resultINS_16allocator_traitsIT_E7pointerEEERS7_m
__ZNSt3__119__allocate_at_leastB8ue170006INS_9allocatorIN20GMSx_ShardedLRUCacheIN7gmscore6vector13CTLineBuilder12FontCacheKeyENS3_4base16scoped_cftyperefIPK8__CTFontEEN9GMSx_absl13hash_internal4HashIS6_EE19GMSx_SimpleLRUCacheIS6_SC_SG_NS_8equal_toIS6_EEN9GMSx_util5cache15CycleClockTimerEEE5ShardEEEEENS_19__allocation_resultINS_16allocator_traitsIT_E7pointerEEERST_m
__ZNSt3__119__allocate_at_leastB8ue170006INS_9allocatorIN20GMSx_ShardedLRUCacheIN7gmscore6vector13CTLineBuilder12LineCacheKeyENS3_4base16scoped_cftyperefIPK8__CTLineEEN9GMSx_absl13hash_internal4HashIS6_EE19GMSx_SimpleLRUCacheIS6_SC_SG_NS_8equal_toIS6_EEN9GMSx_util5cache15CycleClockTimerEEE5ShardEEEEENS_19__allocation_resultINS_16allocator_traitsIT_E7pointerEEERST_m
__ZNSt3__119__allocate_at_leastB8ue170006INS_9allocatorIN22GMSx_maps_paint_client18RenderOpAnnotationEEEEENS_19__allocation_resultINS_16allocator_traitsIT_E7pointerEEERS7_m
__ZNSt3__119__allocate_at_leastB8ue170006INS_9allocatorIN23GMSx_geo_imagery_viewer12platform_ios14ServicesConfig12TileTemplateEEEEENS_19__allocation_resultINS_16allocator_traitsIT_E7pointerEEERS9_m
__ZNSt3__119__allocate_at_leastB8ue170006INS_9allocatorIN23GMSx_geo_imagery_viewer3api10IconHandleEEEEENS_19__allocation_resultINS_16allocator_traitsIT_E7pointerEEERS8_m
__ZNSt3__119__allocate_at_leastB8ue170006INS_9allocatorIN23GMSx_geo_imagery_viewer4math5RangeIdLi2EEEEEEENS_19__allocation_resultINS_16allocator_traitsIT_E7pointerEEERS9_m
__ZNSt3__119__allocate_at_leastB8ue170006INS_9allocatorIN23GMSx_geo_imagery_viewer5swipe11PhotoVertexEEEEENS_19__allocation_resultINS_16allocator_traitsIT_E7pointerEEERS8_m
__ZNSt3__119__allocate_at_leastB8ue170006INS_9allocatorIN23GMSx_geo_imagery_viewer7impress5PlaneEEEEENS_19__allocation_resultINS_16allocator_traitsIT_E7pointerEEERS8_m
__ZNSt3__119__allocate_at_leastB8ue170006INS_9allocatorIN23GMSx_geo_imagery_viewer7overlay13NodeCandidateEEEEENS_19__allocation_resultINS_16allocator_traitsIT_E7pointerEEERS8_m
__ZNSt3__119__allocate_at_leastB8ue170006INS_9allocatorIN23GMSx_geo_imagery_viewer7overlay15IconManagerImpl10PickedIconEEEEENS_19__allocation_resultINS_16allocator_traitsIT_E7pointerEEERS9_m
__ZNSt3__119__allocate_at_leastB8ue170006INS_9allocatorIN23GMSx_geo_imagery_viewer7overlay15IconManagerImpl8IconDataEEEEENS_19__allocation_resultINS_16allocator_traitsIT_E7pointerEEERS9_m
__ZNSt3__119__allocate_at_leastB8ue170006INS_9allocatorIN23GMSx_geo_imagery_viewer7overlay16RoadLabelManager17PreparedRoadLabelEEEEENS_19__allocation_resultINS_16allocator_traitsIT_E7pointerEEERS9_m
__ZNSt3__119__allocate_at_leastB8ue170006INS_9allocatorIN27GMSx_program_image_remapper19GMSx_classification7SectionEEEEENS_19__allocation_resultINS_16allocator_traitsIT_E7pointerEEERS8_m
__ZNSt3__119__allocate_at_leastB8ue170006INS_9allocatorIN4base15GMSx_scheduling14QueuedFunctionEEEEENS_19__allocation_resultINS_16allocator_traitsIT_E7pointerEEERS8_m
__ZNSt3__119__allocate_at_leastB8ue170006INS_9allocatorIN4simd8float4x4EEEEENS_19__allocation_resultINS_16allocator_traitsIT_E7pointerEEERS7_m
__ZNSt3__119__allocate_at_leastB8ue170006INS_9allocatorIN7gmscore4base10reffed_ptrINS2_6vector12FeatureGroupEEEEEEENS_19__allocation_resultINS_16allocator_traitsIT_E7pointerEEERSB_m
__ZNSt3__119__allocate_at_leastB8ue170006INS_9allocatorIN7gmscore4base10reffed_ptrINS2_6vector12MutableStateEEEEEEENS_19__allocation_resultINS_16allocator_traitsIT_E7pointerEEERSB_m
__ZNSt3__119__allocate_at_leastB8ue170006INS_9allocatorIN7gmscore4base10reffed_ptrINS2_6vector16GLBaseLabelBatchEEEEEEENS_19__allocation_resultINS_16allocator_traitsIT_E7pointerEEERSB_m
__ZNSt3__119__allocate_at_leastB8ue170006INS_9allocatorIN7gmscore4base10reffed_ptrINS2_6vector17GMSMarkupInstanceEEEEEEENS_19__allocation_resultINS_16allocator_traitsIT_E7pointerEEERSB_m
__ZNSt3__119__allocate_at_leastB8ue170006INS_9allocatorIN7gmscore4base10reffed_ptrINS2_6vector18TextureAtlasLayoutEEEEEEENS_19__allocation_resultINS_16allocator_traitsIT_E7pointerEEERSB_m
__ZNSt3__119__allocate_at_leastB8ue170006INS_9allocatorIN7gmscore4base10reffed_ptrINS2_6vector19BuildingGroupSubsetEEEEEEENS_19__allocation_resultINS_16allocator_traitsIT_E7pointerEEERSB_m
__ZNSt3__119__allocate_at_leastB8ue170006INS_9allocatorIN7gmscore4base10reffed_ptrINS2_6vector19MutableTextureAtlasEEEEEEENS_19__allocation_resultINS_16allocator_traitsIT_E7pointerEEERSB_m
__ZNSt3__119__allocate_at_leastB8ue170006INS_9allocatorIN7gmscore4base10reffed_ptrINS2_6vector19MyLocationIndicatorEEEEEEENS_19__allocation_resultINS_16allocator_traitsIT_E7pointerEEERSB_m
__ZNSt3__119__allocate_at_leastB8ue170006INS_9allocatorIN7gmscore4base10reffed_ptrINS2_6vector19TextureAtlasElementEEEEEEENS_19__allocation_resultINS_16allocator_traitsIT_E7pointerEEERSB_m
__ZNSt3__119__allocate_at_leastB8ue170006INS_9allocatorIN7gmscore4base10reffed_ptrINS2_6vector24GMSGeneratedTextureAtlasEEEEEEENS_19__allocation_resultINS_16allocator_traitsIT_E7pointerEEERSB_m
__ZNSt3__119__allocate_at_leastB8ue170006INS_9allocatorIN7gmscore4base10reffed_ptrINS2_6vector28GMSTexturedStrokeShaderStateEEEEEEENS_19__allocation_resultINS_16allocator_traitsIT_E7pointerEEERSB_m
__ZNSt3__119__allocate_at_leastB8ue170006INS_9allocatorIN7gmscore4base10reffed_ptrINS2_6vector4text13MetalGlyphSetEEEEEEENS_19__allocation_resultINS_16allocator_traitsIT_E7pointerEEERSC_m
__ZNSt3__119__allocate_at_leastB8ue170006INS_9allocatorIN7gmscore4base10reffed_ptrINS2_6vector4text17TextureAtlasGlyphEEEEEEENS_19__allocation_resultINS_16allocator_traitsIT_E7pointerEEERSC_m
__ZNSt3__119__allocate_at_leastB8ue170006INS_9allocatorIN7gmscore4base10reffed_ptrINS2_6vector4text20RenderableGlyphGroupEEEEEEENS_19__allocation_resultINS_16allocator_traitsIT_E7pointerEEERSC_m
__ZNSt3__119__allocate_at_leastB8ue170006INS_9allocatorIN7gmscore4base10reffed_ptrINS2_6vector4text8BaseTextEEEEEEENS_19__allocation_resultINS_16allocator_traitsIT_E7pointerEEERSC_m
__ZNSt3__119__allocate_at_leastB8ue170006INS_9allocatorIN7gmscore4base10reffed_ptrINS2_6vector4text8GlyphSetEEEEEEENS_19__allocation_resultINS_16allocator_traitsIT_E7pointerEEERSC_m
__ZNSt3__119__allocate_at_leastB8ue170006INS_9allocatorIN7gmscore4base10reffed_ptrINS2_6vector6SpriteEEEEEEENS_19__allocation_resultINS_16allocator_traitsIT_E7pointerEEERSB_m
__ZNSt3__119__allocate_at_leastB8ue170006INS_9allocatorIN7gmscore4base10reffed_ptrINS2_8renderer10BaseEntityEEEEEEENS_19__allocation_resultINS_16allocator_traitsIT_E7pointerEEERSB_m
__ZNSt3__119__allocate_at_leastB8ue170006INS_9allocatorIN7gmscore4base10reffed_ptrINS2_8renderer10VertexDataEEEEEEENS_19__allocation_resultINS_16allocator_traitsIT_E7pointerEEERSB_m
__ZNSt3__119__allocate_at_leastB8ue170006INS_9allocatorIN7gmscore4base10reffed_ptrINS2_8renderer12PolygonStateEEEEEEENS_19__allocation_resultINS_16allocator_traitsIT_E7pointerEEERSB_m
__ZNSt3__119__allocate_at_leastB8ue170006INS_9allocatorIN7gmscore4base10reffed_ptrINS2_8renderer16AlphaShaderStateEEEEEEENS_19__allocation_resultINS_16allocator_traitsIT_E7pointerEEERSB_m
__ZNSt3__119__allocate_at_leastB8ue170006INS_9allocatorIN7gmscore4base10reffed_ptrINS2_8renderer17VBOWithAttributesEEEEEEENS_19__allocation_resultINS_16allocator_traitsIT_E7pointerEEERSB_m
__ZNSt3__119__allocate_at_leastB8ue170006INS_9allocatorIN7gmscore4base10reffed_ptrINS2_8renderer17VertexArrayObjectEEEEEEENS_19__allocation_resultINS_16allocator_traitsIT_E7pointerEEERSB_m
__ZNSt3__119__allocate_at_leastB8ue170006INS_9allocatorIN7gmscore4base10reffed_ptrINS2_8renderer21SafeVBOWithAttributesINS2_6vector22GMSLineStampAttributesEEEEEEEEENS_19__allocation_resultINS_16allocator_traitsIT_E7pointerEEERSE_m
__ZNSt3__119__allocate_at_leastB8ue170006INS_9allocatorIN7gmscore4base10reffed_ptrINS2_8renderer21SafeVBOWithAttributesINS2_6vector24GMSLineConsumeAttributesEEEEEEEEENS_19__allocation_resultINS_16allocator_traitsIT_E7pointerEEERSE_m
__ZNSt3__119__allocate_at_leastB8ue170006INS_9allocatorIN7gmscore4base10reffed_ptrINS2_8renderer21SafeVBOWithAttributesINS2_6vector24GMSLineStippleAttributesEEEEEEEEENS_19__allocation_resultINS_16allocator_traitsIT_E7pointerEEERSE_m
__ZNSt3__119__allocate_at_leastB8ue170006INS_9allocatorIN7gmscore4base10reffed_ptrINS2_8renderer21SafeVBOWithAttributesINS2_6vector30GMSLineColorAndWidthAttributesEEEEEEEEENS_19__allocation_resultINS_16allocator_traitsIT_E7pointerEEERSE_m
__ZNSt3__119__allocate_at_leastB8ue170006INS_9allocatorIN7gmscore4base10reffed_ptrINS2_8renderer27DistanceConsumedShaderStateEEEEEEENS_19__allocation_resultINS_16allocator_traitsIT_E7pointerEEERSB_m
__ZNSt3__119__allocate_at_leastB8ue170006INS_9allocatorIN7gmscore4base10reffed_ptrINS2_8renderer8BehaviorEEEEEEENS_19__allocation_resultINS_16allocator_traitsIT_E7pointerEEERSB_m
__ZNSt3__119__allocate_at_leastB8ue170006INS_9allocatorIN7gmscore4base16scoped_cftyperefIP9CGContextEEEEEENS_19__allocation_resultINS_16allocator_traitsIT_E7pointerEEERSB_m
__ZNSt3__119__allocate_at_leastB8ue170006INS_9allocatorIN7gmscore4math8Vector2fEEEEENS_19__allocation_resultINS_16allocator_traitsIT_E7pointerEEERS8_m
__ZNSt3__119__allocate_at_leastB8ue170006INS_9allocatorIN7gmscore5model10LabelGroupEEEEENS_19__allocation_resultINS_16allocator_traitsIT_E7pointerEEERS8_m
__ZNSt3__119__allocate_at_leastB8ue170006INS_9allocatorIN7gmscore5model10Polyline2DEEEEENS_19__allocation_resultINS_16allocator_traitsIT_E7pointerEEERS8_m
__ZNSt3__119__allocate_at_leastB8ue170006INS_9allocatorIN7gmscore5model10Triangle2DEEEEENS_19__allocation_resultINS_16allocator_traitsIT_E7pointerEEERS8_m
__ZNSt3__119__allocate_at_leastB8ue170006INS_9allocatorIN7gmscore5model11Rectangle2DEEEEENS_19__allocation_resultINS_16allocator_traitsIT_E7pointerEEERS8_m
__ZNSt3__119__allocate_at_leastB8ue170006INS_9allocatorIN7gmscore5model11Rectangle2fEEEEENS_19__allocation_resultINS_16allocator_traitsIT_E7pointerEEERS8_m
__ZNSt3__119__allocate_at_leastB8ue170006INS_9allocatorIN7gmscore5model12LabelElementEEEEENS_19__allocation_resultINS_16allocator_traitsIT_E7pointerEEERS8_m
__ZNSt3__119__allocate_at_leastB8ue170006INS_9allocatorIN7gmscore5model14GLUTessellator8Vector3dEEEEENS_19__allocation_resultINS_16allocator_traitsIT_E7pointerEEERS9_m
__ZNSt3__119__allocate_at_leastB8ue170006INS_9allocatorIN7gmscore5model14Point2DSegmentEEEEENS_19__allocation_resultINS_16allocator_traitsIT_E7pointerEEERS8_m
__ZNSt3__119__allocate_at_leastB8ue170006INS_9allocatorIN7gmscore5model14PolylineSpan2DEEEEENS_19__allocation_resultINS_16allocator_traitsIT_E7pointerEEERS8_m
__ZNSt3__119__allocate_at_leastB8ue170006INS_9allocatorIN7gmscore5model15stripified_mesh12NormalVectorEEEEENS_19__allocation_resultINS_16allocator_traitsIT_E7pointerEEERS9_m
__ZNSt3__119__allocate_at_leastB8ue170006INS_9allocatorIN7gmscore5model16AbsolutePositionEEEEENS_19__allocation_resultINS_16allocator_traitsIT_E7pointerEEERS8_m
__ZNSt3__119__allocate_at_leastB8ue170006INS_9allocatorIN7gmscore5model6StrokeEEEEENS_19__allocation_resultINS_16allocator_traitsIT_E7pointerEEERS8_m
__ZNSt3__119__allocate_at_leastB8ue170006INS_9allocatorIN7gmscore5model7Point2DEEEEENS_19__allocation_resultINS_16allocator_traitsIT_E7pointerEEERS8_m
__ZNSt3__119__allocate_at_leastB8ue170006INS_9allocatorIN7gmscore5model7Point3DEEEEENS_19__allocation_resultINS_16allocator_traitsIT_E7pointerEEERS8_m
__ZNSt3__119__allocate_at_leastB8ue170006INS_9allocatorIN7gmscore5model9AlignmentEEEEENS_19__allocation_resultINS_16allocator_traitsIT_E7pointerEEERS8_m
__ZNSt3__119__allocate_at_leastB8ue170006INS_9allocatorIN7gmscore5model9Clipper2D10ClipResultEEEEENS_19__allocation_resultINS_16allocator_traitsIT_E7pointerEEERS9_m
__ZNSt3__119__allocate_at_leastB8ue170006INS_9allocatorIN7gmscore5model9Frustum2DEEEEENS_19__allocation_resultINS_16allocator_traitsIT_E7pointerEEERS8_m
__ZNSt3__119__allocate_at_leastB8ue170006INS_9allocatorIN7gmscore6vector12ColoredPointEEEEENS_19__allocation_resultINS_16allocator_traitsIT_E7pointerEEERS8_m
__ZNSt3__119__allocate_at_leastB8ue170006INS_9allocatorIN7gmscore6vector13GLStrokeLayer17LineAttributeInfoEEEEENS_19__allocation_resultINS_16allocator_traitsIT_E7pointerEEERS9_m
__ZNSt3__119__allocate_at_leastB8ue170006INS_9allocatorIN7gmscore6vector13GLStrokeLayer22LineAllStyleAttributesEEEEENS_19__allocation_resultINS_16allocator_traitsIT_E7pointerEEERS9_m
__ZNSt3__119__allocate_at_leastB8ue170006INS_9allocatorIN7gmscore6vector13LabelProvider19LabelCandidateBatchEEEEENS_19__allocation_resultINS_16allocator_traitsIT_E7pointerEEERS9_m
__ZNSt3__119__allocate_at_leastB8ue170006INS_9allocatorIN7gmscore6vector13NinePatchInfo6RegionEEEEENS_19__allocation_resultINS_16allocator_traitsIT_E7pointerEEERS9_m
__ZNSt3__119__allocate_at_leastB8ue170006INS_9allocatorIN7gmscore6vector13NinePatchInfoEEEEENS_19__allocation_resultINS_16allocator_traitsIT_E7pointerEEERS8_m
__ZNSt3__119__allocate_at_leastB8ue170006INS_9allocatorIN7gmscore6vector14AnimatedValues13AnimatedValueEEEEENS_19__allocation_resultINS_16allocator_traitsIT_E7pointerEEERS9_m
__ZNSt3__119__allocate_at_leastB8ue170006INS_9allocatorIN7gmscore6vector14AnimatedValuesEEEEENS_19__allocation_resultINS_16allocator_traitsIT_E7pointerEEERS8_m
__ZNSt3__119__allocate_at_leastB8ue170006INS_9allocatorIN7gmscore6vector14ColorPairPointEEEEENS_19__allocation_resultINS_16allocator_traitsIT_E7pointerEEERS8_m
__ZNSt3__119__allocate_at_leastB8ue170006INS_9allocatorIN7gmscore6vector14MarkupPolylineEEEEENS_19__allocation_resultINS_16allocator_traitsIT_E7pointerEEERS8_m
__ZNSt3__119__allocate_at_leastB8ue170006INS_9allocatorIN7gmscore6vector16ColoredTextStyleEEEEENS_19__allocation_resultINS_16allocator_traitsIT_E7pointerEEERS8_m
__ZNSt3__119__allocate_at_leastB8ue170006INS_9allocatorIN7gmscore6vector17GMSMarkupBehavior17InstanceOperationEEEEENS_19__allocation_resultINS_16allocator_traitsIT_E7pointerEEERS9_m
__ZNSt3__119__allocate_at_leastB8ue170006INS_9allocatorIN7gmscore6vector17PlaceholderUpdateEEEEENS_19__allocation_resultINS_16allocator_traitsIT_E7pointerEEERS8_m
__ZNSt3__119__allocate_at_leastB8ue170006INS_9allocatorIN7gmscore6vector17PolylineVertexSetEEEEENS_19__allocation_resultINS_16allocator_traitsIT_E7pointerEEERS8_m
__ZNSt3__119__allocate_at_leastB8ue170006INS_9allocatorIN7gmscore6vector18PolylineSimplifier10ActionDataEEEEENS_19__allocation_resultINS_16allocator_traitsIT_E7pointerEEERS9_m
__ZNSt3__119__allocate_at_leastB8ue170006INS_9allocatorIN7gmscore6vector18PolylineSimplifier14SimplifyResultEEEEENS_19__allocation_resultINS_16allocator_traitsIT_E7pointerEEERS9_m
__ZNSt3__119__allocate_at_leastB8ue170006INS_9allocatorIN7gmscore6vector18PolylineSimplifier9PointDataEEEEENS_19__allocation_resultINS_16allocator_traitsIT_E7pointerEEERS9_m
__ZNSt3__119__allocate_at_leastB8ue170006INS_9allocatorIN7gmscore6vector18PolylineSimplifierEEEEENS_19__allocation_resultINS_16allocator_traitsIT_E7pointerEEERS8_m
__ZNSt3__119__allocate_at_leastB8ue170006INS_9allocatorIN7gmscore6vector18TextureAtlasRegionEEEEENS_19__allocation_resultINS_16allocator_traitsIT_E7pointerEEERS8_m
__ZNSt3__119__allocate_at_leastB8ue170006INS_9allocatorIN7gmscore6vector22GMSLineStampAttributesEEEEENS_19__allocation_resultINS_16allocator_traitsIT_E7pointerEEERS8_m
__ZNSt3__119__allocate_at_leastB8ue170006INS_9allocatorIN7gmscore6vector22TexturedDistanceVertexEEEEENS_19__allocation_resultINS_16allocator_traitsIT_E7pointerEEERS8_m
__ZNSt3__119__allocate_at_leastB8ue170006INS_9allocatorIN7gmscore6vector23ClientVectorOpsBehavior16PendingOperationEEEEENS_19__allocation_resultINS_16allocator_traitsIT_E7pointerEEERS9_m
__ZNSt3__119__allocate_at_leastB8ue170006INS_9allocatorIN7gmscore6vector24GMSLineConsumeAttributesEEEEENS_19__allocation_resultINS_16allocator_traitsIT_E7pointerEEERS8_m
__ZNSt3__119__allocate_at_leastB8ue170006INS_9allocatorIN7gmscore6vector24GMSLineStippleAttributesEEEEENS_19__allocation_resultINS_16allocator_traitsIT_E7pointerEEERS8_m
__ZNSt3__119__allocate_at_leastB8ue170006INS_9allocatorIN7gmscore6vector28GMSGeneratedTextureAtlasInfoEEEEENS_19__allocation_resultINS_16allocator_traitsIT_E7pointerEEERS8_m
__ZNSt3__119__allocate_at_leastB8ue170006INS_9allocatorIN7gmscore6vector30GMSLineColorAndWidthAttributesEEEEENS_19__allocation_resultINS_16allocator_traitsIT_E7pointerEEERS8_m
__ZNSt3__119__allocate_at_leastB8ue170006INS_9allocatorIN7gmscore6vector37LayeredSpritePerLayerFragmentUniformsEEEEENS_19__allocation_resultINS_16allocator_traitsIT_E7pointerEEERS8_m
__ZNSt3__119__allocate_at_leastB8ue170006INS_9allocatorIN7gmscore6vector4text13GlyphPositionEEEEENS_19__allocation_resultINS_16allocator_traitsIT_E7pointerEEERS9_m
__ZNSt3__119__allocate_at_leastB8ue170006INS_9allocatorIN7gmscore6vector4text9GlyphQuadEEEEENS_19__allocation_resultINS_16allocator_traitsIT_E7pointerEEERS9_m
__ZNSt3__119__allocate_at_leastB8ue170006INS_9allocatorIN7gmscore6vector6VertexEEEEENS_19__allocation_resultINS_16allocator_traitsIT_E7pointerEEERS8_m
__ZNSt3__119__allocate_at_leastB8ue170006INS_9allocatorIN7gmscore6vector9AreaGroup10AreaSubsetEEEEENS_19__allocation_resultINS_16allocator_traitsIT_E7pointerEEERS9_m
__ZNSt3__119__allocate_at_leastB8ue170006INS_9allocatorIN7gmscore6vector9ColorSpanEEEEENS_19__allocation_resultINS_16allocator_traitsIT_E7pointerEEERS8_m
__ZNSt3__119__allocate_at_leastB8ue170006INS_9allocatorIN7gmscore8renderer14EntityRenderer9PendingOpEEEEENS_19__allocation_resultINS_16allocator_traitsIT_E7pointerEEERS9_m
__ZNSt3__119__allocate_at_leastB8ue170006INS_9allocatorIN7gmscore8renderer15VertexAttributeEEEEENS_19__allocation_resultINS_16allocator_traitsIT_E7pointerEEERS8_m
__ZNSt3__119__allocate_at_leastB8ue170006INS_9allocatorIN7gmscore8renderer21ColoredTexturedVertexEEEEENS_19__allocation_resultINS_16allocator_traitsIT_E7pointerEEERS8_m
__ZNSt3__119__allocate_at_leastB8ue170006INS_9allocatorIN7gmscore8renderer22MetalBufferRenderState19BufferObjectBindingEEEEENS_19__allocation_resultINS_16allocator_traitsIT_E7pointerEEERS9_m
__ZNSt3__119__allocate_at_leastB8ue170006INS_9allocatorIN7gmscore8renderer23MetalTextureRenderState14TextureBindingEEEEENS_19__allocation_resultINS_16allocator_traitsIT_E7pointerEEERS9_m
__ZNSt3__119__allocate_at_leastB8ue170006INS_9allocatorIN9GMSx_absl11string_viewEEEEENS_19__allocation_resultINS_16allocator_traitsIT_E7pointerEEERS7_m
__ZNSt3__119__allocate_at_leastB8ue170006INS_9allocatorIN9GMSx_absl13time_internal4cctz10TransitionEEEEENS_19__allocation_resultINS_16allocator_traitsIT_E7pointerEEERS9_m
__ZNSt3__119__allocate_at_leastB8ue170006INS_9allocatorIN9GMSx_absl13time_internal4cctz14TransitionTypeEEEEENS_19__allocation_resultINS_16allocator_traitsIT_E7pointerEEERS9_m
__ZNSt3__119__allocate_at_leastB8ue170006INS_9allocatorIN9GMSx_absl16UnrecognizedFlagEEEEENS_19__allocation_resultINS_16allocator_traitsIT_E7pointerEEERS7_m
__ZNSt3__119__allocate_at_leastB8ue170006INS_9allocatorIN9GMSx_absl19str_format_internal16ParsedFormatBase14ConversionItemEEEEENS_19__allocation_resultINS_16allocator_traitsIT_E7pointerEEERS9_m
__ZNSt3__119__allocate_at_leastB8ue170006INS_9allocatorIN9GMSx_absl21GMSx_strings_internal18ViableSubstitutionEEEEENS_19__allocation_resultINS_16allocator_traitsIT_E7pointerEEERS8_m
__ZNSt3__119__allocate_at_leastB8ue170006INS_9allocatorINS_10shared_ptrIN7gmscore5model12Collidable2DEEEEEEENS_19__allocation_resultINS_16allocator_traitsIT_E7pointerEEERSA_m
__ZNSt3__119__allocate_at_leastB8ue170006INS_9allocatorINS_10shared_ptrIN7gmscore5model8Region2fEEEEEEENS_19__allocation_resultINS_16allocator_traitsIT_E7pointerEEERSA_m
__ZNSt3__119__allocate_at_leastB8ue170006INS_9allocatorINS_10shared_ptrIN7gmscore6vector11LabelSourceEEEEEEENS_19__allocation_resultINS_16allocator_traitsIT_E7pointerEEERSA_m
__ZNSt3__119__allocate_at_leastB8ue170006INS_9allocatorINS_10shared_ptrIN7gmscore6vector11RenderLabelEEEEEEENS_19__allocation_resultINS_16allocator_traitsIT_E7pointerEEERSA_m
__ZNSt3__119__allocate_at_leastB8ue170006INS_9allocatorINS_10shared_ptrIN7gmscore6vector11StrokeLayerEEEEEEENS_19__allocation_resultINS_16allocator_traitsIT_E7pointerEEERSA_m
__ZNSt3__119__allocate_at_leastB8ue170006INS_9allocatorINS_10shared_ptrIN7gmscore6vector13LabelChangeOpEEEEEEENS_19__allocation_resultINS_16allocator_traitsIT_E7pointerEEERSA_m
__ZNSt3__119__allocate_at_leastB8ue170006INS_9allocatorINS_10shared_ptrIN7gmscore6vector13LabelProviderEEEEEEENS_19__allocation_resultINS_16allocator_traitsIT_E7pointerEEERSA_m
__ZNSt3__119__allocate_at_leastB8ue170006INS_9allocatorINS_10shared_ptrIN7gmscore6vector16LabelableFeatureEEEEEEENS_19__allocation_resultINS_16allocator_traitsIT_E7pointerEEERSA_m
__ZNSt3__119__allocate_at_leastB8ue170006INS_9allocatorINS_10shared_ptrIN7gmscore6vector16LabelingBehavior8ListenerEEEEEEENS_19__allocation_resultINS_16allocator_traitsIT_E7pointerEEERSB_m
__ZNSt3__119__allocate_at_leastB8ue170006INS_9allocatorINS_10shared_ptrIN7gmscore6vector18RenderLabelElementEEEEEEENS_19__allocation_resultINS_16allocator_traitsIT_E7pointerEEERSA_m
__ZNSt3__119__allocate_at_leastB8ue170006INS_9allocatorINS_10shared_ptrIN7gmscore6vector19POILabelableFeatureEEEEEEENS_19__allocation_resultINS_16allocator_traitsIT_E7pointerEEERSA_m
__ZNSt3__119__allocate_at_leastB8ue170006INS_9allocatorINS_10shared_ptrIN7gmscore6vector20ClientVectorOpsGroupEEEEEEENS_19__allocation_resultINS_16allocator_traitsIT_E7pointerEEERSA_m
__ZNSt3__119__allocate_at_leastB8ue170006INS_9allocatorINS_10shared_ptrIN7gmscore6vector21MetalLineUniformStateEEEEEEENS_19__allocation_resultINS_16allocator_traitsIT_E7pointerEEERSA_m
__ZNSt3__119__allocate_at_leastB8ue170006INS_9allocatorINS_10shared_ptrIN7gmscore6vector24LabelableFeatureSelectorEEEEEEENS_19__allocation_resultINS_16allocator_traitsIT_E7pointerEEERSA_m
__ZNSt3__119__allocate_at_leastB8ue170006INS_9allocatorINS_10shared_ptrIN7gmscore6vector24MetalTextureAtlasElementEEEEEEENS_19__allocation_resultINS_16allocator_traitsIT_E7pointerEEERSA_m
__ZNSt3__119__allocate_at_leastB8ue170006INS_9allocatorINS_10shared_ptrIN7gmscore6vector27MetalBreadcrumbUniformStateEEEEEEENS_19__allocation_resultINS_16allocator_traitsIT_E7pointerEEERSA_m
__ZNSt3__119__allocate_at_leastB8ue170006INS_9allocatorINS_10shared_ptrIN7gmscore8renderer12MetalTextureEEEEEEENS_19__allocation_resultINS_16allocator_traitsIT_E7pointerEEERSA_m
__ZNSt3__119__allocate_at_leastB8ue170006INS_9allocatorINS_10shared_ptrIN7gmscore8renderer28MetalDepthStencilRenderStateEEEEEEENS_19__allocation_resultINS_16allocator_traitsIT_E7pointerEEERSA_m
__ZNSt3__119__allocate_at_leastB8ue170006INS_9allocatorINS_10shared_ptrIN9GMSx_util14SimulatedClock10WakeUpInfoEEEEEEENS_19__allocation_resultINS_16allocator_traitsIT_E7pointerEEERSA_m
__ZNSt3__119__allocate_at_leastB8ue170006INS_9allocatorINS_10unique_ptrIKN11GMSx_proto219FileDescriptorProtoENS_14default_deleteIS5_EEEEEEEENS_19__allocation_resultINS_16allocator_traitsIT_E7pointerEEERSC_m
__ZNSt3__119__allocate_at_leastB8ue170006INS_9allocatorINS_10unique_ptrIN11GMSx_proto210TextFormat13ParseInfoTreeENS_14default_deleteIS5_EEEEEEEENS_19__allocation_resultINS_16allocator_traitsIT_E7pointerEEERSC_m
__ZNSt3__119__allocate_at_leastB8ue170006INS_9allocatorINS_10unique_ptrIN11GMSx_proto29GMSx_util18MessageDifferencer14IgnoreCriteriaENS_14default_deleteIS6_EEEEEEEENS_19__allocation_resultINS_16allocator_traitsIT_E7pointerEEERSD_m
__ZNSt3__119__allocate_at_leastB8ue170006INS_9allocatorINS_10unique_ptrIN23GMSx_geo_imagery_viewer4pano12TexturedMeshENS_14default_deleteIS5_EEEEEEEENS_19__allocation_resultINS_16allocator_traitsIT_E7pointerEEERSC_m
__ZNSt3__119__allocate_at_leastB8ue170006INS_9allocatorINS_10unique_ptrIN7gmscore6vector18PlacedLabelElementENS_14default_deleteIS5_EEEEEEEENS_19__allocation_resultINS_16allocator_traitsIT_E7pointerEEERSC_m
__ZNSt3__119__allocate_at_leastB8ue170006INS_9allocatorINS_10unique_ptrIN7gmscore6vector24MetalMutableTextureAtlasENS_14default_deleteIS5_EEEEEEEENS_19__allocation_resultINS_16allocator_traitsIT_E7pointerEEERSC_m
__ZNSt3__119__allocate_at_leastB8ue170006INS_9allocatorINS_10unique_ptrIN7gmscore8renderer11Animation3DENS_14default_deleteIS5_EEEEEEEENS_19__allocation_resultINS_16allocator_traitsIT_E7pointerEEERSC_m
__ZNSt3__119__allocate_at_leastB8ue170006INS_9allocatorINS_10unique_ptrIN9GMSx_absl14flags_internal18FlagStateInterfaceENS_14default_deleteIS5_EEEEEEEENS_19__allocation_resultINS_16allocator_traitsIT_E7pointerEEERSC_m
__ZNSt3__119__allocate_at_leastB8ue170006INS_9allocatorINS_10unique_ptrIiN11GMSx_proto214DescriptorPool6Tables11MiscDeleterEEEEEEENS_19__allocation_resultINS_16allocator_traitsIT_E7pointerEEERSB_m
__ZNSt3__119__allocate_at_leastB8ue170006INS_9allocatorINS_11__wrap_iterIPKN7gmscore5model7Point2DEEEEEEENS_19__allocation_resultINS_16allocator_traitsIT_E7pointerEEERSC_m
__ZNSt3__119__allocate_at_leastB8ue170006INS_9allocatorINS_12basic_stringIcNS_11char_traitsIcEENS1_IcEEEEEEEENS_19__allocation_resultINS_16allocator_traitsIT_E7pointerEEERSA_m
__ZNSt3__119__allocate_at_leastB8ue170006INS_9allocatorINS_14__map_iteratorINS_15__tree_iteratorINS_12__value_typeINS_12basic_stringIcNS_11char_traitsIcEENS1_IcEEEEN23GMSx_geo_imagery_viewer5swipe21AreaConnectivityGraph9AreaEntryEEEPNS_11__tree_nodeISE_PvEElEEEEEEEENS_19__allocation_resultINS_16allocator_traitsIT_E7pointerEEERSO_m
__ZNSt3__119__allocate_at_leastB8ue170006INS_9allocatorINS_14__map_iteratorINS_15__tree_iteratorINS_12__value_typeIPKvN7gmscore4base10reffed_ptrINS7_6vector21SameTextureGlyphBatchEEEEEPNS_11__tree_nodeISD_PvEElEEEEEEEENS_19__allocation_resultINS_16allocator_traitsIT_E7pointerEEERSN_m
__ZNSt3__119__allocate_at_leastB8ue170006INS_9allocatorINS_3mapIijNS_4lessIiEENS1_INS_4pairIKijEEEEEEEEEENS_19__allocation_resultINS_16allocator_traitsIT_E7pointerEEERSD_m
__ZNSt3__119__allocate_at_leastB8ue170006INS_9allocatorINS_4pairI8CapShapeS3_EEEEEENS_19__allocation_resultINS_16allocator_traitsIT_E7pointerEEERS8_m
__ZNSt3__119__allocate_at_leastB8ue170006INS_9allocatorINS_4pairIN27GMSx_program_image_remapper19GMSx_classification7SectionENS4_16MemoryImportanceEEEEEEENS_19__allocation_resultINS_16allocator_traitsIT_E7pointerEEERSB_m
__ZNSt3__119__allocate_at_leastB8ue170006INS_9allocatorINS_4pairIN9GMSx_absl11string_viewEiEEEEEENS_19__allocation_resultINS_16allocator_traitsIT_E7pointerEEERS9_m
__ZNSt3__119__allocate_at_leastB8ue170006INS_9allocatorINS_4pairIN9GMSx_absl11string_viewEmEEEEEENS_19__allocation_resultINS_16allocator_traitsIT_E7pointerEEERS9_m
__ZNSt3__119__allocate_at_leastB8ue170006INS_9allocatorINS_4pairINS2_ImmEENS_12basic_stringIcNS_11char_traitsIcEENS1_IcEEEEEEEEEENS_19__allocation_resultINS_16allocator_traitsIT_E7pointerEEERSD_m
__ZNSt3__119__allocate_at_leastB8ue170006INS_9allocatorINS_4pairINS_10shared_ptrIN7gmscore6vector11LabelSourceEEENS3_INS4_5model12Collidable2DEEEEEEEEENS_19__allocation_resultINS_16allocator_traitsIT_E7pointerEEERSF_m
__ZNSt3__119__allocate_at_leastB8ue170006INS_9allocatorINS_4pairINS_12basic_stringIcNS_11char_traitsIcEENS1_IcEEEES7_EEEEEENS_19__allocation_resultINS_16allocator_traitsIT_E7pointerEEERSC_m
__ZNSt3__119__allocate_at_leastB8ue170006INS_9allocatorINS_4pairIPK8__CTFontNS_6vectorItNS1_ItEEEEEEEEEENS_19__allocation_resultINS_16allocator_traitsIT_E7pointerEEERSD_m
__ZNSt3__119__allocate_at_leastB8ue170006INS_9allocatorINS_4pairIPKN11GMSx_proto210DescriptorEiEEEEEENS_19__allocation_resultINS_16allocator_traitsIT_E7pointerEEERSB_m
__ZNSt3__119__allocate_at_leastB8ue170006INS_9allocatorINS_4pairIPKNS_12basic_stringIcNS_11char_traitsIcEENS1_IcEEEEiEEEEEENS_19__allocation_resultINS_16allocator_traitsIT_E7pointerEEERSE_m
__ZNSt3__119__allocate_at_leastB8ue170006INS_9allocatorINS_4pairIU8__strongP15GMSx_GPBMessageyEEEEEENS_19__allocation_resultINS_16allocator_traitsIT_E7pointerEEERSA_m
__ZNSt3__119__allocate_at_leastB8ue170006INS_9allocatorINS_4pairIdmEEEEEENS_19__allocation_resultINS_16allocator_traitsIT_E7pointerEEERS7_m
__ZNSt3__119__allocate_at_leastB8ue170006INS_9allocatorINS_4pairIiPKN11GMSx_proto212UnknownFieldEEEEEEENS_19__allocation_resultINS_16allocator_traitsIT_E7pointerEEERSB_m
__ZNSt3__119__allocate_at_leastB8ue170006INS_9allocatorINS_4pairIiiEEEEEENS_19__allocation_resultINS_16allocator_traitsIT_E7pointerEEERS7_m
__ZNSt3__119__allocate_at_leastB8ue170006INS_9allocatorINS_4pairImmEEEEEENS_19__allocation_resultINS_16allocator_traitsIT_E7pointerEEERS7_m
__ZNSt3__119__allocate_at_leastB8ue170006INS_9allocatorINS_5tupleIJPFv14FailureContextEPviEEEEEEENS_19__allocation_resultINS_16allocator_traitsIT_E7pointerEEERSB_m
__ZNSt3__119__allocate_at_leastB8ue170006INS_9allocatorINS_6atomicIN23GMSx_geo_imagery_viewer4pano11MeshManager5PhaseEEEEEEENS_19__allocation_resultINS_16allocator_traitsIT_E7pointerEEERSB_m
__ZNSt3__119__allocate_at_leastB8ue170006INS_9allocatorINS_6vectorI10GMSPoint2DNS1_IS3_EEEEEEEENS_19__allocation_resultINS_16allocator_traitsIT_E7pointerEEERS9_m
__ZNSt3__119__allocate_at_leastB8ue170006INS_9allocatorINS_6vectorIN7gmscore4base10reffed_ptrINS3_6vector6SpriteEEENS1_IS8_EEEEEEEENS_19__allocation_resultINS_16allocator_traitsIT_E7pointerEEERSE_m
__ZNSt3__119__allocate_at_leastB8ue170006INS_9allocatorINS_6vectorIN7gmscore4base10reffed_ptrINS3_8renderer21SafeVBOWithAttributesINS3_6vector22GMSLineStampAttributesEEEEENS1_ISB_EEEEEEEENS_19__allocation_resultINS_16allocator_traitsIT_E7pointerEEERSH_m
__ZNSt3__119__allocate_at_leastB8ue170006INS_9allocatorINS_6vectorIN7gmscore4base10reffed_ptrINS3_8renderer21SafeVBOWithAttributesINS3_6vector24GMSLineConsumeAttributesEEEEENS1_ISB_EEEEEEEENS_19__allocation_resultINS_16allocator_traitsIT_E7pointerEEERSH_m
__ZNSt3__119__allocate_at_leastB8ue170006INS_9allocatorINS_6vectorIN7gmscore4base10reffed_ptrINS3_8renderer21SafeVBOWithAttributesINS3_6vector24GMSLineStippleAttributesEEEEENS1_ISB_EEEEEEEENS_19__allocation_resultINS_16allocator_traitsIT_E7pointerEEERSH_m
__ZNSt3__119__allocate_at_leastB8ue170006INS_9allocatorINS_6vectorIN7gmscore4base10reffed_ptrINS3_8renderer21SafeVBOWithAttributesINS3_6vector30GMSLineColorAndWidthAttributesEEEEENS1_ISB_EEEEEEEENS_19__allocation_resultINS_16allocator_traitsIT_E7pointerEEERSH_m
__ZNSt3__119__allocate_at_leastB8ue170006INS_9allocatorINS_6vectorIN7gmscore5model10Polyline2DENS1_IS5_EEEEEEEENS_19__allocation_resultINS_16allocator_traitsIT_E7pointerEEERSB_m
__ZNSt3__119__allocate_at_leastB8ue170006INS_9allocatorINS_6vectorIN7gmscore5model7Point2DENS1_IS5_EEEEEEEENS_19__allocation_resultINS_16allocator_traitsIT_E7pointerEEERSB_m
__ZNSt3__119__allocate_at_leastB8ue170006INS_9allocatorINS_6vectorIN7gmscore6vector13GLStrokeLayer22LineAllStyleAttributesENS1_IS6_EEEEEEEENS_19__allocation_resultINS_16allocator_traitsIT_E7pointerEEERSC_m
__ZNSt3__119__allocate_at_leastB8ue170006INS_9allocatorINS_6vectorIN7gmscore6vector9ColorSpanENS1_IS5_EEEEEEEENS_19__allocation_resultINS_16allocator_traitsIT_E7pointerEEERSB_m
__ZNSt3__119__allocate_at_leastB8ue170006INS_9allocatorINS_6vectorINS_10shared_ptrIN7gmscore6vector16LabelableFeatureEEENS1_IS7_EEEEEEEENS_19__allocation_resultINS_16allocator_traitsIT_E7pointerEEERSD_m
__ZNSt3__119__allocate_at_leastB8ue170006INS_9allocatorINS_6vectorINS_10shared_ptrIN7gmscore6vector18RenderLabelElementEEENS1_IS7_EEEEEEEENS_19__allocation_resultINS_16allocator_traitsIT_E7pointerEEERSD_m
__ZNSt3__119__allocate_at_leastB8ue170006INS_9allocatorINS_6vectorINS_10unique_ptrIN23GMSx_geo_imagery_viewer4pano12TexturedMeshENS_14default_deleteIS6_EEEENS1_IS9_EEEEEEEENS_19__allocation_resultINS_16allocator_traitsIT_E7pointerEEERSF_m
__ZNSt3__119__allocate_at_leastB8ue170006INS_9allocatorINS_6vectorINS_3mapIijNS_4lessIiEENS1_INS_4pairIKijEEEEEENS1_ISA_EEEEEEEENS_19__allocation_resultINS_16allocator_traitsIT_E7pointerEEERSG_m
__ZNSt3__119__allocate_at_leastB8ue170006INS_9allocatorINS_6vectorIPKN11GMSx_proto215FieldDescriptorENS1_IS6_EEEEEEEENS_19__allocation_resultINS_16allocator_traitsIT_E7pointerEEERSC_m
__ZNSt3__119__allocate_at_leastB8ue170006INS_9allocatorINS_6vectorIPKvNS1_IS4_EEEEEEEENS_19__allocation_resultINS_16allocator_traitsIT_E7pointerEEERSA_m
__ZNSt3__119__allocate_at_leastB8ue170006INS_9allocatorINS_6vectorIfNS1_IfEEEEEEEENS_19__allocation_resultINS_16allocator_traitsIT_E7pointerEEERS8_m
__ZNSt3__119__allocate_at_leastB8ue170006INS_9allocatorINS_6vectorIiNS1_IiEEEEEEEENS_19__allocation_resultINS_16allocator_traitsIT_E7pointerEEERS8_m
__ZNSt3__119__allocate_at_leastB8ue170006INS_9allocatorINS_8functionIFNS_8optionalIN11GMSx_proto22io7Printer16AnnotationRecordEEEN9GMSx_absl11string_viewEEEEEEEENS_19__allocation_resultINS_16allocator_traitsIT_E7pointerEEERSG_m
__ZNSt3__119__allocate_at_leastB8ue170006INS_9allocatorINS_8functionIFNS_8optionalIN11GMSx_proto22io7Printer9ValueImplILb0EEEEEN9GMSx_absl11string_viewEEEEEEEENS_19__allocation_resultINS_16allocator_traitsIT_E7pointerEEERSH_m
__ZNSt3__119__allocate_at_leastB8ue170006INS_9allocatorINS_8functionIFvvEEEEEEENS_19__allocation_resultINS_16allocator_traitsIT_E7pointerEEERS8_m
__ZNSt3__119__allocate_at_leastB8ue170006INS_9allocatorIP11objc_objectEEEENS_19__allocation_resultINS_16allocator_traitsIT_E7pointerEEERS7_m
__ZNSt3__119__allocate_at_leastB8ue170006INS_9allocatorIP26GMSEntityTapClassStatusSetEEEENS_19__allocation_resultINS_16allocator_traitsIT_E7pointerEEERS7_m
__ZNSt3__119__allocate_at_leastB8ue170006INS_9allocatorIPFPKN9GMSx_util10ErrorSpaceEvEEEEENS_19__allocation_resultINS_16allocator_traitsIT_E7pointerEEERSB_m
__ZNSt3__119__allocate_at_leastB8ue170006INS_9allocatorIPKN11GMSx_proto210DescriptorEEEEENS_19__allocation_resultINS_16allocator_traitsIT_E7pointerEEERS9_m
__ZNSt3__119__allocate_at_leastB8ue170006INS_9allocatorIPKN11GMSx_proto214FileDescriptorEEEEENS_19__allocation_resultINS_16allocator_traitsIT_E7pointerEEERS9_m
__ZNSt3__119__allocate_at_leastB8ue170006INS_9allocatorIPKN11GMSx_proto215FieldDescriptorEEEEENS_19__allocation_resultINS_16allocator_traitsIT_E7pointerEEERS9_m
__ZNSt3__119__allocate_at_leastB8ue170006INS_9allocatorIPKN11GMSx_proto27MessageEEEEENS_19__allocation_resultINS_16allocator_traitsIT_E7pointerEEERS9_m
__ZNSt3__119__allocate_at_leastB8ue170006INS_9allocatorIPKN12GMSx_mapcore7labeler11RestrictionEEEEENS_19__allocation_resultINS_16allocator_traitsIT_E7pointerEEERSA_m
__ZNSt3__119__allocate_at_leastB8ue170006INS_9allocatorIPKN7gmscore5model12Collidable2DEEEEENS_19__allocation_resultINS_16allocator_traitsIT_E7pointerEEERSA_m
__ZNSt3__119__allocate_at_leastB8ue170006INS_9allocatorIPKN7gmscore6vector22RenderLabelElementTextEEEEENS_19__allocation_resultINS_16allocator_traitsIT_E7pointerEEERSA_m
__ZNSt3__119__allocate_at_leastB8ue170006INS_9allocatorIPKN9GMSx_absl13cord_internal11CordzHandleEEEEENS_19__allocation_resultINS_16allocator_traitsIT_E7pointerEEERSA_m
__ZNSt3__119__allocate_at_leastB8ue170006INS_9allocatorIPKN9GMSx_absl15CommandLineFlagEEEEENS_19__allocation_resultINS_16allocator_traitsIT_E7pointerEEERS9_m
__ZNSt3__119__allocate_at_leastB8ue170006INS_9allocatorIPKcEEEENS_19__allocation_resultINS_16allocator_traitsIT_E7pointerEEERS7_m
__ZNSt3__119__allocate_at_leastB8ue170006INS_9allocatorIPKvEEEENS_19__allocation_resultINS_16allocator_traitsIT_E7pointerEEERS7_m
__ZNSt3__119__allocate_at_leastB8ue170006INS_9allocatorIPN11GMSx_proto218DescriptorDatabaseEEEEENS_19__allocation_resultINS_16allocator_traitsIT_E7pointerEEERS8_m
__ZNSt3__119__allocate_at_leastB8ue170006INS_9allocatorIPN11GMSx_proto219FileDescriptorProtoEEEEENS_19__allocation_resultINS_16allocator_traitsIT_E7pointerEEERS8_m
__ZNSt3__119__allocate_at_leastB8ue170006INS_9allocatorIPN11GMSx_proto29GMSx_util18MessageDifferencer16MapKeyComparatorEEEEENS_19__allocation_resultINS_16allocator_traitsIT_E7pointerEEERSA_m
__ZNSt3__119__allocate_at_leastB8ue170006INS_9allocatorIPN23GMSx_geo_imagery_viewer4pano12TexturedMeshEEEEENS_19__allocation_resultINS_16allocator_traitsIT_E7pointerEEERS9_m
__ZNSt3__119__allocate_at_leastB8ue170006INS_9allocatorIPN23GMSx_geo_imagery_viewer4pano4MeshEEEEENS_19__allocation_resultINS_16allocator_traitsIT_E7pointerEEERS9_m
__ZNSt3__119__allocate_at_leastB8ue170006INS_9allocatorIPN7gmscore5model7Point2DEEEEENS_19__allocation_resultINS_16allocator_traitsIT_E7pointerEEERS9_m
__ZNSt3__119__allocate_at_leastB8ue170006INS_9allocatorIPN7gmscore6vector19MutableStateTrackerEEEEENS_19__allocation_resultINS_16allocator_traitsIT_E7pointerEEERS9_m
__ZNSt3__119__allocate_at_leastB8ue170006INS_9allocatorIPN7gmscore8renderer9RenderBinEEEEENS_19__allocation_resultINS_16allocator_traitsIT_E7pointerEEERS9_m
__ZNSt3__119__allocate_at_leastB8ue170006INS_9allocatorIPN9GMSx_absl12crc_internal12CrcCordState9PrefixCrcEEEEENS_19__allocation_resultINS_16allocator_traitsIT_E7pointerEEERSA_m
__ZNSt3__119__allocate_at_leastB8ue170006INS_9allocatorIPN9GMSx_absl13cord_internal11CordzHandleEEEEENS_19__allocation_resultINS_16allocator_traitsIT_E7pointerEEERS9_m
__ZNSt3__119__allocate_at_leastB8ue170006INS_9allocatorIPN9GMSx_absl15CommandLineFlagEEEEENS_19__allocation_resultINS_16allocator_traitsIT_E7pointerEEERS8_m
__ZNSt3__119__allocate_at_leastB8ue170006INS_9allocatorIPN9GMSx_absl7LogSinkEEEEENS_19__allocation_resultINS_16allocator_traitsIT_E7pointerEEERS8_m
__ZNSt3__119__allocate_at_leastB8ue170006INS_9allocatorIPPKN11GMSx_proto27MessageEEEEENS_19__allocation_resultINS_16allocator_traitsIT_E7pointerEEERSA_m
__ZNSt3__119__allocate_at_leastB8ue170006INS_9allocatorIPPKN9GMSx_absl13time_internal4cctz9time_zone4ImplEEEEENS_19__allocation_resultINS_16allocator_traitsIT_E7pointerEEERSD_m
__ZNSt3__119__allocate_at_leastB8ue170006INS_9allocatorIPPN11GMSx_proto27MessageEEEEENS_19__allocation_resultINS_16allocator_traitsIT_E7pointerEEERS9_m
__ZNSt3__119__allocate_at_leastB8ue170006INS_9allocatorIPcEEEENS_19__allocation_resultINS_16allocator_traitsIT_E7pointerEEERS6_m
__ZNSt3__119__allocate_at_leastB8ue170006INS_9allocatorIPvEEEENS_19__allocation_resultINS_16allocator_traitsIT_E7pointerEEERS6_m
__ZNSt3__119__allocate_at_leastB8ue170006INS_9allocatorIU8__strongP11GMSBuildingEEEENS_19__allocation_resultINS_16allocator_traitsIT_E7pointerEEERS8_m
__ZNSt3__119__allocate_at_leastB8ue170006INS_9allocatorIU8__strongP13GMSModelStyleEEEENS_19__allocation_resultINS_16allocator_traitsIT_E7pointerEEERS8_m
__ZNSt3__119__allocate_at_leastB8ue170006INS_9allocatorIU8__strongP14GMSStrokeStyleEEEENS_19__allocation_resultINS_16allocator_traitsIT_E7pointerEEERS8_m
__ZNSt3__119__allocate_at_leastB8ue170006INS_9allocatorIU8__strongP15GMSPointFeatureEEEENS_19__allocation_resultINS_16allocator_traitsIT_E7pointerEEERS8_m
__ZNSt3__119__allocate_at_leastB8ue170006INS_9allocatorIU8__strongP17GMSMultiZoomStyleEEEENS_19__allocation_resultINS_16allocator_traitsIT_E7pointerEEERS8_m
__ZNSt3__119__allocate_at_leastB8ue170006INS_9allocatorIU8__strongP17GMSStripifiedMeshEEEENS_19__allocation_resultINS_16allocator_traitsIT_E7pointerEEERS8_m
__ZNSt3__119__allocate_at_leastB8ue170006INS_9allocatorIU8__strongP20GMSModelFeatureStyleEEEENS_19__allocation_resultINS_16allocator_traitsIT_E7pointerEEERS8_m
__ZNSt3__119__allocate_at_leastB8ue170006INS_9allocatorIU8__strongP21GMSx_GMPPaintedRegionEEEENS_19__allocation_resultINS_16allocator_traitsIT_E7pointerEEERS8_m
__ZNSt3__119__allocate_at_leastB8ue170006INS_9allocatorIU8__strongP22GMSOffscreenEntityViewEEEENS_19__allocation_resultINS_16allocator_traitsIT_E7pointerEEERS8_m
__ZNSt3__119__allocate_at_leastB8ue170006INS_9allocatorIU8__strongP22GMSx_SRLImplementationEEEENS_19__allocation_resultINS_16allocator_traitsIT_E7pointerEEERS8_m
__ZNSt3__119__allocate_at_leastB8ue170006INS_9allocatorIU8__strongP6UIViewEEEENS_19__allocation_resultINS_16allocator_traitsIT_E7pointerEEERS8_m
__ZNSt3__119__allocate_at_leastB8ue170006INS_9allocatorIU8__strongP7GMSAreaEEEENS_19__allocation_resultINS_16allocator_traitsIT_E7pointerEEERS8_m
__ZNSt3__119__allocate_at_leastB8ue170006INS_9allocatorIU8__strongP7GMSLineEEEENS_19__allocation_resultINS_16allocator_traitsIT_E7pointerEEERS8_m
__ZNSt3__119__allocate_at_leastB8ue170006INS_9allocatorIU8__strongP9GMSMarkerEEEENS_19__allocation_resultINS_16allocator_traitsIT_E7pointerEEERS8_m
__ZNSt3__119__allocate_at_leastB8ue170006INS_9allocatorIU8__strongPU26objcproto15GMSModelFeature11objc_objectEEEENS_19__allocation_resultINS_16allocator_traitsIT_E7pointerEEERS8_m
__ZNSt3__119__allocate_at_leastB8ue170006INS_9allocatorIU8__strongPU34objcproto23GMSEntityTappableUIItem11objc_objectEEEENS_19__allocation_resultINS_16allocator_traitsIT_E7pointerEEERS8_m
__ZNSt3__119__allocate_at_leastB8ue170006INS_9allocatorIdEEEENS_19__allocation_resultINS_16allocator_traitsIT_E7pointerEEERS5_m
__ZNSt3__119__allocate_at_leastB8ue170006INS_9allocatorIfEEEENS_19__allocation_resultINS_16allocator_traitsIT_E7pointerEEERS5_m
__ZNSt3__119__allocate_at_leastB8ue170006INS_9allocatorIiEEEENS_19__allocation_resultINS_16allocator_traitsIT_E7pointerEEERS5_m
__ZNSt3__119__allocate_at_leastB8ue170006INS_9allocatorIjEEEENS_19__allocation_resultINS_16allocator_traitsIT_E7pointerEEERS5_m
__ZNSt3__119__allocate_at_leastB8ue170006INS_9allocatorIlEEEENS_19__allocation_resultINS_16allocator_traitsIT_E7pointerEEERS5_m
__ZNSt3__119__allocate_at_leastB8ue170006INS_9allocatorImEEEENS_19__allocation_resultINS_16allocator_traitsIT_E7pointerEEERS5_m
__ZNSt3__119__allocate_at_leastB8ue170006INS_9allocatorIsEEEENS_19__allocation_resultINS_16allocator_traitsIT_E7pointerEEERS5_m
__ZNSt3__119__allocate_at_leastB8ue170006INS_9allocatorItEEEENS_19__allocation_resultINS_16allocator_traitsIT_E7pointerEEERS5_m
__ZNSt3__119__allocate_at_leastB8ue170006INS_9allocatorIxEEEENS_19__allocation_resultINS_16allocator_traitsIT_E7pointerEEERS5_m
__ZNSt3__119__allocate_at_leastB8ue170006INS_9allocatorIyEEEENS_19__allocation_resultINS_16allocator_traitsIT_E7pointerEEERS5_m
__ZNSt3__119__allocate_at_leastB8un170006INS_9allocatorIN11util_intops6HandleIN12GMSx_mapcore7labeler27LabelCandidateBundleId_tag_EyEEEEEENS_19__allocation_resultINS_16allocator_traitsIT_E7pointerEEERSB_m
__ZNSt3__119__allocate_at_leastB8un170006INS_9allocatorIN12GMSx_mapcore10annotation16AnnotationOpInfoEEEEENS_19__allocation_resultINS_16allocator_traitsIT_E7pointerEEERS8_m
__ZNSt3__119__allocate_at_leastB8un170006INS_9allocatorIN12GMSx_mapcore16MapLoadingStatusEEEEENS_19__allocation_resultINS_16allocator_traitsIT_E7pointerEEERS7_m
__ZNSt3__119__allocate_at_leastB8un170006INS_9allocatorIN12GMSx_mapcore5style14LazyStyleTable9LazyProtoEEEEENS_19__allocation_resultINS_16allocator_traitsIT_E7pointerEEERS9_m
__ZNSt3__119__allocate_at_leastB8un170006INS_9allocatorIN12GMSx_mapcore7labeler11RestrictionEEEEENS_19__allocation_resultINS_16allocator_traitsIT_E7pointerEEERS8_m
__ZNSt3__119__allocate_at_leastB8un170006INS_9allocatorIN12GMSx_mapcore7labeler14StyleTransformEEEEENS_19__allocation_resultINS_16allocator_traitsIT_E7pointerEEERS8_m
__ZNSt3__119__allocate_at_leastB8un170006INS_9allocatorIN12GMSx_mapcore7labeler17TileLabelOpBundleEEEEENS_19__allocation_resultINS_16allocator_traitsIT_E7pointerEEERS8_m
__ZNSt3__119__allocate_at_leastB8un170006INS_9allocatorIN12GMSx_mapcore7labeler18NinepatchIconLayerEEEEENS_19__allocation_resultINS_16allocator_traitsIT_E7pointerEEERS8_m
__ZNSt3__119__allocate_at_leastB8un170006INS_9allocatorIN12GMSx_mapcore7labeler18WorldLabelOpBundleEEEEENS_19__allocation_resultINS_16allocator_traitsIT_E7pointerEEERS8_m
__ZNSt3__119__allocate_at_leastB8un170006INS_9allocatorIN12GMSx_mapcore7labeler19CalloutStateTracker22ActiveCalloutCandidateEEEEENS_19__allocation_resultINS_16allocator_traitsIT_E7pointerEEERS9_m
__ZNSt3__119__allocate_at_leastB8un170006INS_9allocatorIN12GMSx_mapcore7labeler21CalloutMeasurementJob27CalloutMeasurementCandidateEEEEENS_19__allocation_resultINS_16allocator_traitsIT_E7pointerEEERS9_m
__ZNSt3__119__allocate_at_leastB8un170006INS_9allocatorIN12GMSx_mapcore7labeler24DensityRestrictionBucketEEEEENS_19__allocation_resultINS_16allocator_traitsIT_E7pointerEEERS8_m
__ZNSt3__119__allocate_at_leastB8un170006INS_9allocatorIN12GMSx_mapcore7labeler7BSPTree7ElementEEEEENS_19__allocation_resultINS_16allocator_traitsIT_E7pointerEEERS9_m
__ZNSt3__119__allocate_at_leastB8un170006INS_9allocatorIN12GMSx_mapcore7labeler9IconLayerEEEEENS_19__allocation_resultINS_16allocator_traitsIT_E7pointerEEERS8_m
__ZNSt3__119__allocate_at_leastB8un170006INS_9allocatorIN12GMSx_mapcore9RectangleIN13GMSx_filament4math7details5TVec2IfEEEEEEEENS_19__allocation_resultINS_16allocator_traitsIT_E7pointerEEERSD_m
__ZNSt3__119__allocate_at_leastB8un170006INS_9allocatorIN12GMSx_mapcore9TileCoordEEEEENS_19__allocation_resultINS_16allocator_traitsIT_E7pointerEEERS7_m
__ZNSt3__119__allocate_at_leastB8un170006INS_9allocatorIN13GMSx_filament4math7details5TVec2IfEEEEEENS_19__allocation_resultINS_16allocator_traitsIT_E7pointerEEERSA_m
__ZNSt3__119__allocate_at_leastB8un170006INS_9allocatorIN13GMSx_filament4math7details5TVec2IiEEEEEENS_19__allocation_resultINS_16allocator_traitsIT_E7pointerEEERSA_m
__ZNSt3__119__allocate_at_leastB8un170006INS_9allocatorIN13GMSx_filament4math7details5TVec3IdEEEEEENS_19__allocation_resultINS_16allocator_traitsIT_E7pointerEEERSA_m
__ZNSt3__119__allocate_at_leastB8un170006INS_9allocatorIN13GMSx_filament4math7details5TVec3IiEEEEEENS_19__allocation_resultINS_16allocator_traitsIT_E7pointerEEERSA_m
__ZNSt3__119__allocate_at_leastB8un170006INS_9allocatorIN22GMSx_maps_paint_client19AnnotationAttributeEEEEENS_19__allocation_resultINS_16allocator_traitsIT_E7pointerEEERS7_m
__ZNSt3__119__allocate_at_leastB8un170006INS_9allocatorIN22GMSx_maps_paint_client9IconStyleEEEEENS_19__allocation_resultINS_16allocator_traitsIT_E7pointerEEERS7_m
__ZNSt3__119__allocate_at_leastB8un170006INS_9allocatorIN8GMSx_imp15SimpleHistogram6BucketEEEEENS_19__allocation_resultINS_16allocator_traitsIT_E7pointerEEERS8_m
__ZNSt3__119__allocate_at_leastB8un170006INS_9allocatorIN8GMSx_imp6output18ExternalLogHandlerEEEEENS_19__allocation_resultINS_16allocator_traitsIT_E7pointerEEERS8_m
__ZNSt3__119__allocate_at_leastB8un170006INS_9allocatorIN8GMSx_tsl17detail_robin_hash12bucket_entryINS_4pairIN9GMSx_absl11string_viewEPK7FileTocEELb1EEEEEEENS_19__allocation_resultINS_16allocator_traitsIT_E7pointerEEERSG_m
__ZNSt3__119__allocate_at_leastB8un170006INS_9allocatorIN8GMSx_tsl17detail_robin_hash12bucket_entryINS_4pairINS_12basic_stringIcNS_11char_traitsIcEENS1_IcEEEEN8GMSx_imp7TypedIdINS_10unique_ptrINSB_15MeasurementDataENS_14default_deleteISE_EEEEiEEEELb1EEEEEEENS_19__allocation_resultINS_16allocator_traitsIT_E7pointerEEERSO_m
__ZNSt3__119__allocate_at_leastB8un170006INS_9allocatorIN8GMSx_tsl17detail_robin_hash12bucket_entryINS_4pairIiNS_8weak_ptrIN8GMSx_imp13GMSx_internal10FutureImplEEEEELb1EEEEEEENS_19__allocation_resultINS_16allocator_traitsIT_E7pointerEEERSG_m
__ZNSt3__119__allocate_at_leastB8un170006INS_9allocatorIN8GMSx_tsl17detail_robin_hash12bucket_entryIPK7FileTocLb1EEEEEEENS_19__allocation_resultINS_16allocator_traitsIT_E7pointerEEERSC_m
__ZNSt3__119__allocate_at_leastB8un170006INS_9allocatorIN9GMSx_absl11string_viewEEEEENS_19__allocation_resultINS_16allocator_traitsIT_E7pointerEEERS7_m
__ZNSt3__119__allocate_at_leastB8un170006INS_9allocatorIN9GMSx_absl12AnyInvocableIKFbRKN12GMSx_mapcore7labeler14LabelCandidateEEEEEEEENS_19__allocation_resultINS_16allocator_traitsIT_E7pointerEEERSE_m
__ZNSt3__119__allocate_at_leastB8un170006INS_9allocatorIN9GMSx_absl13flat_hash_mapIjN12GMSx_mapcore5style7StyleIdENS2_13hash_internal4HashIjEENS_8equal_toIjEENS1_INS_4pairIKjS6_EEEEEEEEEENS_19__allocation_resultINS_16allocator_traitsIT_E7pointerEEERSK_m
__ZNSt3__119__allocate_at_leastB8un170006INS_9allocatorINS_10shared_ptrIN22GMSx_maps_paint_client13LabelRenderOpEEEEEEENS_19__allocation_resultINS_16allocator_traitsIT_E7pointerEEERS9_m
__ZNSt3__119__allocate_at_leastB8un170006INS_9allocatorINS_10shared_ptrIN22GMSx_maps_paint_client21LineLabelCandidateSetEEEEEEENS_19__allocation_resultINS_16allocator_traitsIT_E7pointerEEERS9_m
__ZNSt3__119__allocate_at_leastB8un170006INS_9allocatorINS_10unique_ptrIKN12GMSx_mapcore10CollidableIN13GMSx_filament4math7details5TVec2IiEEEENS_14default_deleteISB_EEEEEEEENS_19__allocation_resultINS_16allocator_traitsIT_E7pointerEEERSI_m
__ZNSt3__119__allocate_at_leastB8un170006INS_9allocatorINS_10unique_ptrIN12GMSx_mapcore7labeler14LabelCandidateENS_14default_deleteIS5_EEEEEEEENS_19__allocation_resultINS_16allocator_traitsIT_E7pointerEEERSC_m
__ZNSt3__119__allocate_at_leastB8un170006INS_9allocatorINS_10unique_ptrIN12GMSx_mapcore7labeler19PointLabelCandidateENS_14default_deleteIS5_EEEEEEEENS_19__allocation_resultINS_16allocator_traitsIT_E7pointerEEERSC_m
__ZNSt3__119__allocate_at_leastB8un170006INS_9allocatorINS_10unique_ptrIN12GMSx_mapcore7labeler9LabelNodeENS_14default_deleteIS5_EEEEEEEENS_19__allocation_resultINS_16allocator_traitsIT_E7pointerEEERSC_m
__ZNSt3__119__allocate_at_leastB8un170006INS_9allocatorINS_10unique_ptrIN8GMSx_imp15MeasurementDataENS_14default_deleteIS4_EEEEEEEENS_19__allocation_resultINS_16allocator_traitsIT_E7pointerEEERSB_m
__ZNSt3__119__allocate_at_leastB8un170006INS_9allocatorINS_12basic_stringIcNS_11char_traitsIcEENS1_IcEEEEEEEENS_19__allocation_resultINS_16allocator_traitsIT_E7pointerEEERSA_m
__ZNSt3__119__allocate_at_leastB8un170006INS_9allocatorINS_4pairIiiEEEEEENS_19__allocation_resultINS_16allocator_traitsIT_E7pointerEEERS7_m
__ZNSt3__119__allocate_at_leastB8un170006INS_9allocatorINS_7variantIJNS_8weak_ptrIN8GMSx_imp13GMSx_internal10FutureImpl17FutureImplWrapperEEENS6_12CombineChildENS6_11NestedChildENS6_13KeptForgetterENS4_9InvocableIFvRNS5_12ResultHolderEEEENS4_8HoldableEEEEEEEENS_19__allocation_resultINS_16allocator_traitsIT_E7pointerEEERSM_m
__ZNSt3__119__allocate_at_leastB8un170006INS_9allocatorIPK27_SRLBindingRegistrationDataEEEENS_19__allocation_resultINS_16allocator_traitsIT_E7pointerEEERS8_m
__ZNSt3__119__allocate_at_leastB8un170006INS_9allocatorIPK28_SRLBindingsRegistrationDataEEEENS_19__allocation_resultINS_16allocator_traitsIT_E7pointerEEERS8_m
__ZNSt3__119__allocate_at_leastB8un170006INS_9allocatorIPKN12GMSx_mapcore6RegionIN13GMSx_filament4math7details5TVec2IfEEEEEEEENS_19__allocation_resultINS_16allocator_traitsIT_E7pointerEEERSF_m
__ZNSt3__119__allocate_at_leastB8un170006INS_9allocatorIPKN22GMSx_maps_paint_client12LabelElementEEEEENS_19__allocation_resultINS_16allocator_traitsIT_E7pointerEEERS9_m
__ZNSt3__119__allocate_at_leastB8un170006INS_9allocatorIPN12GMSx_mapcore7labeler14LabelCandidateEEEEENS_19__allocation_resultINS_16allocator_traitsIT_E7pointerEEERS9_m
__ZNSt3__119__allocate_at_leastB8un170006INS_9allocatorIPN12GMSx_mapcore7labeler7BSPTreeEEEEENS_19__allocation_resultINS_16allocator_traitsIT_E7pointerEEERS9_m
__ZNSt3__119__allocate_at_leastB8un170006INS_9allocatorIfEEEENS_19__allocation_resultINS_16allocator_traitsIT_E7pointerEEERS5_m
__ZNSt3__119__allocate_at_leastB8un170006INS_9allocatorIiEEEENS_19__allocation_resultINS_16allocator_traitsIT_E7pointerEEERS5_m
__ZNSt3__119__merge_move_assignB8ue170006INS_17_ClassicAlgPolicyERN11GMSx_proto216DynamicMapSorter25MapEntryMessageComparatorEPPKNS2_7MessageES9_NS_11__wrap_iterIS9_EEEEvT1_SC_T2_SD_T3_T0_
__ZNSt3__119__merge_move_assignB8ue170006INS_17_ClassicAlgPolicyERN11GMSx_proto225MapEntryMessageComparatorEPPKNS2_7MessageES8_NS_11__wrap_iterIS8_EEEEvT1_SB_T2_SC_T3_T0_
__ZNSt3__119__merge_move_assignB8ue170006INS_17_ClassicAlgPolicyERPFbRKNS_10shared_ptrIN7gmscore6vector16LabelableFeatureEEES8_EPS6_SC_NS_11__wrap_iterISC_EEEEvT1_SF_T2_SG_T3_T0_
__ZNSt3__119__partial_sort_implB8ue170006INS_17_ClassicAlgPolicyER25GMSx_FilenameFlagnameLessP24GMSx_CommandLineFlagInfoS5_EET1_S6_S6_T2_OT0_
__ZNSt3__119__partial_sort_implB8ue170006INS_17_ClassicAlgPolicyERN11GMSx_proto213GMSx_internal12MapKeySorter16MapKeyComparatorEPNS2_6MapKeyES8_EET1_S9_S9_T2_OT0_
__ZNSt3__119__partial_sort_implB8ue170006INS_17_ClassicAlgPolicyERN11GMSx_proto213GMSx_internal17MapSorterLessThanIjEEPNS_4pairIjPKvEESB_EET1_SC_SC_T2_OT0_
__ZNSt3__119__partial_sort_implB8ue170006INS_17_ClassicAlgPolicyERN11GMSx_proto213GMSx_internal17MapSorterLessThanIxEEPNS_4pairIxPKvEESB_EET1_SC_SC_T2_OT0_
__ZNSt3__119__partial_sort_implB8ue170006INS_17_ClassicAlgPolicyERN11GMSx_proto213GMSx_internal17MapSorterLessThanIyEEPNS_4pairIyPKvEESB_EET1_SC_SC_T2_OT0_
__ZNSt3__119__partial_sort_implB8ue170006INS_17_ClassicAlgPolicyERN11GMSx_proto213GMSx_internal20MapSorterPtrLessThanINS_12basic_stringIcNS_11char_traitsIcEENS_9allocatorIcEEEEEEPPKvSF_EET1_SG_SG_T2_OT0_
__ZNSt3__119__partial_sort_implB8ue170006INS_17_ClassicAlgPolicyERN23GMSx_geo_imagery_viewer5swipe16AreaConnectivity19CompareIdIndexPairsEPNS_4pairIPKNS_12basic_stringIcNS_11char_traitsIcEENS_9allocatorIcEEEEiEESH_EET1_SI_SI_T2_OT0_
__ZNSt3__119__partial_sort_implB8ue170006INS_17_ClassicAlgPolicyERN8GMSx_gtl7OrderByIMN23GMSx_geo_imagery_viewer7overlay15IconManagerImpl10PickedIconEdNS2_4LessEEEPS7_SC_EET1_SD_SD_T2_OT0_
__ZNSt3__119__partial_sort_implB8ue170006INS_17_ClassicAlgPolicyERNS_6__lessIvvEEPN9GMSx_absl11string_viewES7_EET1_S8_S8_T2_OT0_
__ZNSt3__119__partial_sort_implB8ue170006INS_17_ClassicAlgPolicyERNS_6__lessIvvEEPNS_12basic_stringIcNS_11char_traitsIcEENS_9allocatorIcEEEESB_EET1_SC_SC_T2_OT0_
__ZNSt3__119__partial_sort_implB8ue170006INS_17_ClassicAlgPolicyERNS_8functionIFbRKN7gmscore4base10reffed_ptrINS3_8renderer10BaseEntityEEESA_EEEPS8_SE_EET1_SF_SF_T2_OT0_
__ZNSt3__119__partial_sort_implB8ue170006INS_17_ClassicAlgPolicyERPFbPKN11GMSx_proto215FieldDescriptorES5_EPS5_S9_EET1_SA_SA_T2_OT0_
__ZNSt3__119__partial_sort_implB8ue170006INS_17_ClassicAlgPolicyERPFbRKN7gmscore4base10reffed_ptrINS2_6vector4text20RenderableGlyphGroupEEESA_EPS8_SE_EET1_SF_SF_T2_OT0_
__ZNSt3__119__partial_sort_implB8un170006INS_17_ClassicAlgPolicyERN12GMSx_mapcore7labeler18LabelPtrComparatorEPPNS3_14LabelCandidateES8_EET1_S9_S9_T2_OT0_
__ZNSt3__119__partial_sort_implB8un170006INS_17_ClassicAlgPolicyERN8GMSx_gtl7OrderByIMN11util_intops6HandleIN12GMSx_mapcore7labeler27LabelCandidateBundleId_tag_EyEEKFyvENS2_4LessEEEPS9_SF_EET1_SG_SG_T2_OT0_
__ZNSt3__119basic_ostringstreamIcNS_11char_traitsIcEENS_9allocatorIcEEEC1B8ue170006Ev
__ZNSt3__119basic_ostringstreamIcNS_11char_traitsIcEENS_9allocatorIcEEEC1B8un170006Ev
__ZNSt3__120__half_inplace_mergeB8ue170006INS_17_ClassicAlgPolicyENS_8__invertIRPFbRKNS_10shared_ptrIN7gmscore6vector16LabelableFeatureEEES9_EEENS_16reverse_iteratorIPS7_EESG_NSE_INS_11__wrap_iterISF_EEEESJ_SJ_EEvT1_T2_T3_T4_T5_OT0_
__ZNSt3__120__half_inplace_mergeB8ue170006INS_17_ClassicAlgPolicyERN11GMSx_proto216DynamicMapSorter25MapEntryMessageComparatorEPPKNS2_7MessageES9_NS_11__wrap_iterIS9_EESB_SB_EEvT1_T2_T3_T4_T5_OT0_
__ZNSt3__120__half_inplace_mergeB8ue170006INS_17_ClassicAlgPolicyERN11GMSx_proto225MapEntryMessageComparatorEPPKNS2_7MessageES8_NS_11__wrap_iterIS8_EESA_SA_EEvT1_T2_T3_T4_T5_OT0_
__ZNSt3__120__half_inplace_mergeB8ue170006INS_17_ClassicAlgPolicyERPFbRKNS_10shared_ptrIN7gmscore6vector16LabelableFeatureEEES8_EPS6_SC_NS_11__wrap_iterISC_EESE_SE_EEvT1_T2_T3_T4_T5_OT0_
__ZNSt3__120__optional_copy_baseIN12GMSx_mapcore7labeler10PlacedIconELb0EEC2B8ue170006ERKS4_
__ZNSt3__120__optional_copy_baseIN15GMSx_maps_paint21AccessibilityMetadataELb0EEC2B8ue170006ERKS3_
__ZNSt3__120__optional_copy_baseINS_12basic_stringIcNS_11char_traitsIcEENS_9allocatorIcEEEELb0EEC2B8ue170006ERKS7_
__ZNSt3__120__shared_ptr_emplaceIN12GMSx_NSSInfoI5groupNS_12basic_stringIcNS_11char_traitsIcEENS_9allocatorIcEEEEPKcL_Z10getgrnam_rEE8CacheRecENS6_ISC_EEE16__on_zero_sharedEv
__ZNSt3__120__shared_ptr_emplaceIN12GMSx_NSSInfoI5groupNS_12basic_stringIcNS_11char_traitsIcEENS_9allocatorIcEEEEPKcL_Z10getgrnam_rEE8CacheRecENS6_ISC_EEE21__on_zero_shared_weakEv
__ZNSt3__120__shared_ptr_emplaceIN12GMSx_NSSInfoI5groupjjL_Z10getgrgid_rEE8CacheRecENS_9allocatorIS4_EEE16__on_zero_sharedEv
__ZNSt3__120__shared_ptr_emplaceIN12GMSx_NSSInfoI5groupjjL_Z10getgrgid_rEE8CacheRecENS_9allocatorIS4_EEE21__on_zero_shared_weakEv
__ZNSt3__120__shared_ptr_emplaceIN12GMSx_NSSInfoI6passwdNS_12basic_stringIcNS_11char_traitsIcEENS_9allocatorIcEEEEPKcL_Z10getpwnam_rEE8CacheRecENS6_ISC_EEE16__on_zero_sharedEv
__ZNSt3__120__shared_ptr_emplaceIN12GMSx_NSSInfoI6passwdNS_12basic_stringIcNS_11char_traitsIcEENS_9allocatorIcEEEEPKcL_Z10getpwnam_rEE8CacheRecENS6_ISC_EEE21__on_zero_shared_weakEv
__ZNSt3__120__shared_ptr_emplaceIN12GMSx_NSSInfoI6passwdjjL_Z10getpwuid_rEE8CacheRecENS_9allocatorIS4_EEE16__on_zero_sharedEv
__ZNSt3__120__shared_ptr_emplaceIN12GMSx_NSSInfoI6passwdjjL_Z10getpwuid_rEE8CacheRecENS_9allocatorIS4_EEE21__on_zero_shared_weakEv
__ZNSt3__120__shared_ptr_emplaceIN12GMSx_mapcore7labeler11PlacedLabelENS_9allocatorIS3_EEE16__on_zero_sharedEv
__ZNSt3__120__shared_ptr_emplaceIN12GMSx_mapcore7labeler11PlacedLabelENS_9allocatorIS3_EEE21__on_zero_shared_weakEv
__ZNSt3__120__shared_ptr_emplaceIN12GMSx_mapcore7labeler9IdCounterIN11util_intops6HandleINS2_21LabelCandidateId_tag_ExEEEENS_9allocatorIS8_EEE16__on_zero_sharedEv
__ZNSt3__120__shared_ptr_emplaceIN12GMSx_mapcore7labeler9IdCounterIN11util_intops6HandleINS2_21LabelCandidateId_tag_ExEEEENS_9allocatorIS8_EEE21__on_zero_shared_weakEv
__ZNSt3__120__shared_ptr_emplaceIN20GMSRocketIconService6HolderENS_9allocatorIS2_EEE16__on_zero_sharedEv
__ZNSt3__120__shared_ptr_emplaceIN20GMSRocketIconService6HolderENS_9allocatorIS2_EEE21__on_zero_shared_weakEv
__ZNSt3__120__shared_ptr_emplaceIN22GMSx_maps_paint_client13LabelRenderOpENS_9allocatorIS2_EEE16__on_zero_sharedEv
__ZNSt3__120__shared_ptr_emplaceIN22GMSx_maps_paint_client13LabelRenderOpENS_9allocatorIS2_EEE21__on_zero_shared_weakEv
__ZNSt3__120__shared_ptr_emplaceIN22GMSx_maps_paint_client21LineLabelCandidateSetENS_9allocatorIS2_EEE16__on_zero_sharedEv
__ZNSt3__120__shared_ptr_emplaceIN22GMSx_maps_paint_client21LineLabelCandidateSetENS_9allocatorIS2_EEE21__on_zero_shared_weakEv
__ZNSt3__120__shared_ptr_emplaceIN23GMSx_geo_imagery_viewer4pano11MeshManagerENS_9allocatorIS3_EEE16__on_zero_sharedEv
__ZNSt3__120__shared_ptr_emplaceIN23GMSx_geo_imagery_viewer4pano11MeshManagerENS_9allocatorIS3_EEE21__on_zero_shared_weakEv
__ZNSt3__120__shared_ptr_emplaceIN7gmscore5model15CollidableSet2DENS_9allocatorIS3_EEE16__on_zero_sharedEv
__ZNSt3__120__shared_ptr_emplaceIN7gmscore5model15CollidableSet2DENS_9allocatorIS3_EEE21__on_zero_shared_weakEv
__ZNSt3__120__shared_ptr_emplaceIN7gmscore6vector11LabelSourceENS_9allocatorIS3_EEE16__on_zero_sharedEv
__ZNSt3__120__shared_ptr_emplaceIN7gmscore6vector11LabelSourceENS_9allocatorIS3_EEE21__on_zero_shared_weakEv
__ZNSt3__120__shared_ptr_emplaceIN7gmscore6vector13CTLineBuilderENS_9allocatorIS3_EEE16__on_zero_sharedEv
__ZNSt3__120__shared_ptr_emplaceIN7gmscore6vector13CTLineBuilderENS_9allocatorIS3_EEE21__on_zero_shared_weakEv
__ZNSt3__120__shared_ptr_emplaceIN7gmscore6vector13LabelChangeOpENS_9allocatorIS3_EEE16__on_zero_sharedEv
__ZNSt3__120__shared_ptr_emplaceIN7gmscore6vector13LabelChangeOpENS_9allocatorIS3_EEE21__on_zero_shared_weakEv
__ZNSt3__120__shared_ptr_emplaceIN7gmscore6vector16TextUniformStateENS_9allocatorIS3_EEE16__on_zero_sharedEv
__ZNSt3__120__shared_ptr_emplaceIN7gmscore6vector16TextUniformStateENS_9allocatorIS3_EEE21__on_zero_shared_weakEv
__ZNSt3__120__shared_ptr_emplaceIN7gmscore6vector17PointUniformStateENS_9allocatorIS3_EEE16__on_zero_sharedEv
__ZNSt3__120__shared_ptr_emplaceIN7gmscore6vector17PointUniformStateENS_9allocatorIS3_EEE21__on_zero_shared_weakEv
__ZNSt3__120__shared_ptr_emplaceIN7gmscore6vector18CalloutSharedStateENS_9allocatorIS3_EEE16__on_zero_sharedEv
__ZNSt3__120__shared_ptr_emplaceIN7gmscore6vector18CalloutSharedStateENS_9allocatorIS3_EEE21__on_zero_shared_weakEv
__ZNSt3__120__shared_ptr_emplaceIN7gmscore6vector19PlacedLabelRendererENS_9allocatorIS3_EEE16__on_zero_sharedEv
__ZNSt3__120__shared_ptr_emplaceIN7gmscore6vector19PlacedLabelRendererENS_9allocatorIS3_EEE21__on_zero_shared_weakEv
__ZNSt3__120__shared_ptr_emplaceIN7gmscore6vector19PlacedLabelSnapshotENS_9allocatorIS3_EEE16__on_zero_sharedEv
__ZNSt3__120__shared_ptr_emplaceIN7gmscore6vector19PlacedLabelSnapshotENS_9allocatorIS3_EEE21__on_zero_shared_weakEv
__ZNSt3__120__shared_ptr_emplaceIN7gmscore6vector19SharedLabelerFacadeENS_9allocatorIS3_EEE16__on_zero_sharedEv
__ZNSt3__120__shared_ptr_emplaceIN7gmscore6vector19SharedLabelerFacadeENS_9allocatorIS3_EEE21__on_zero_shared_weakEv
__ZNSt3__120__shared_ptr_emplaceIN7gmscore6vector20LabelBoxUniformStateENS_9allocatorIS3_EEE16__on_zero_sharedEv
__ZNSt3__120__shared_ptr_emplaceIN7gmscore6vector20LabelBoxUniformStateENS_9allocatorIS3_EEE21__on_zero_shared_weakEv
__ZNSt3__120__shared_ptr_emplaceIN7gmscore6vector20MetalLineStyleBufferENS_9allocatorIS3_EEE16__on_zero_sharedEv
__ZNSt3__120__shared_ptr_emplaceIN7gmscore6vector20MetalLineStyleBufferENS_9allocatorIS3_EEE21__on_zero_shared_weakEv
__ZNSt3__120__shared_ptr_emplaceIN7gmscore6vector21MetalAreaUniformStateENS_9allocatorIS3_EEE16__on_zero_sharedEv
__ZNSt3__120__shared_ptr_emplaceIN7gmscore6vector21MetalAreaUniformStateENS_9allocatorIS3_EEE21__on_zero_shared_weakEv
__ZNSt3__120__shared_ptr_emplaceIN7gmscore6vector21MetalLineUniformStateENS_9allocatorIS3_EEE16__on_zero_sharedEv
__ZNSt3__120__shared_ptr_emplaceIN7gmscore6vector21MetalLineUniformStateENS_9allocatorIS3_EEE21__on_zero_shared_weakEv
__ZNSt3__120__shared_ptr_emplaceIN7gmscore6vector21MetalLineVertexBufferENS_9allocatorIS3_EEE16__on_zero_sharedEv
__ZNSt3__120__shared_ptr_emplaceIN7gmscore6vector21MetalLineVertexBufferENS_9allocatorIS3_EEE21__on_zero_shared_weakEv
__ZNSt3__120__shared_ptr_emplaceIN7gmscore6vector24MetalTextureAtlasElementENS_9allocatorIS3_EEE16__on_zero_sharedEv
__ZNSt3__120__shared_ptr_emplaceIN7gmscore6vector24MetalTextureAtlasElementENS_9allocatorIS3_EEE21__on_zero_shared_weakEv
__ZNSt3__120__shared_ptr_emplaceIN7gmscore6vector25LayeredSpriteUniformStateENS_9allocatorIS3_EEE16__on_zero_sharedEv
__ZNSt3__120__shared_ptr_emplaceIN7gmscore6vector25LayeredSpriteUniformStateENS_9allocatorIS3_EEE21__on_zero_shared_weakEv
__ZNSt3__120__shared_ptr_emplaceIN7gmscore6vector25MetalBuildingUniformStateENS_9allocatorIS3_EEE16__on_zero_sharedEv
__ZNSt3__120__shared_ptr_emplaceIN7gmscore6vector25MetalBuildingUniformStateENS_9allocatorIS3_EEE21__on_zero_shared_weakEv
__ZNSt3__120__shared_ptr_emplaceIN7gmscore6vector27MetalBreadcrumbUniformStateENS_9allocatorIS3_EEE16__on_zero_sharedEv
__ZNSt3__120__shared_ptr_emplaceIN7gmscore6vector27MetalBreadcrumbUniformStateENS_9allocatorIS3_EEE21__on_zero_shared_weakEv
__ZNSt3__120__shared_ptr_emplaceIN7gmscore8renderer12MetalTextureENS_9allocatorIS3_EEE16__on_zero_sharedEv
__ZNSt3__120__shared_ptr_emplaceIN7gmscore8renderer12MetalTextureENS_9allocatorIS3_EEE21__on_zero_shared_weakEv
__ZNSt3__120__shared_ptr_emplaceIN7gmscore8renderer18MetalPooledTextureENS_9allocatorIS3_EEE16__on_zero_sharedEv
__ZNSt3__120__shared_ptr_emplaceIN7gmscore8renderer18MetalPooledTextureENS_9allocatorIS3_EEE21__on_zero_shared_weakEv
__ZNSt3__120__shared_ptr_emplaceIN7gmscore8renderer21MetalFadeUniformStateENS_9allocatorIS3_EEE16__on_zero_sharedEv
__ZNSt3__120__shared_ptr_emplaceIN7gmscore8renderer21MetalFadeUniformStateENS_9allocatorIS3_EEE21__on_zero_shared_weakEv
__ZNSt3__120__shared_ptr_emplaceIN7gmscore8renderer22MetalBufferRenderStateENS_9allocatorIS3_EEE16__on_zero_sharedEv
__ZNSt3__120__shared_ptr_emplaceIN7gmscore8renderer22MetalBufferRenderStateENS_9allocatorIS3_EEE21__on_zero_shared_weakEv
__ZNSt3__120__shared_ptr_emplaceIN7gmscore8renderer22MetalColorUniformStateENS_9allocatorIS3_EEE16__on_zero_sharedEv
__ZNSt3__120__shared_ptr_emplaceIN7gmscore8renderer22MetalColorUniformStateENS_9allocatorIS3_EEE21__on_zero_shared_weakEv
__ZNSt3__120__shared_ptr_emplaceIN7gmscore8renderer22MetalTypedBufferObjectINS1_6vector10AreaVertexEEENS_9allocatorIS6_EEE16__on_zero_sharedEv
__ZNSt3__120__shared_ptr_emplaceIN7gmscore8renderer22MetalTypedBufferObjectINS1_6vector10AreaVertexEEENS_9allocatorIS6_EEE21__on_zero_shared_weakEv
__ZNSt3__120__shared_ptr_emplaceIN7gmscore8renderer22MetalTypedBufferObjectINS1_6vector10PointStyleEEENS_9allocatorIS6_EEE16__on_zero_sharedEv
__ZNSt3__120__shared_ptr_emplaceIN7gmscore8renderer22MetalTypedBufferObjectINS1_6vector10PointStyleEEENS_9allocatorIS6_EEE21__on_zero_shared_weakEv
__ZNSt3__120__shared_ptr_emplaceIN7gmscore8renderer22MetalTypedBufferObjectINS1_6vector11PointVertexEEENS_9allocatorIS6_EEE16__on_zero_sharedEv
__ZNSt3__120__shared_ptr_emplaceIN7gmscore8renderer22MetalTypedBufferObjectINS1_6vector11PointVertexEEENS_9allocatorIS6_EEE21__on_zero_shared_weakEv
__ZNSt3__120__shared_ptr_emplaceIN7gmscore8renderer22MetalTypedBufferObjectINS1_6vector14BreadcrumbQuadEEENS_9allocatorIS6_EEE16__on_zero_sharedEv
__ZNSt3__120__shared_ptr_emplaceIN7gmscore8renderer22MetalTypedBufferObjectINS1_6vector14BreadcrumbQuadEEENS_9allocatorIS6_EEE21__on_zero_shared_weakEv
__ZNSt3__120__shared_ptr_emplaceIN7gmscore8renderer22MetalTypedBufferObjectINS1_6vector15BasicTextVertexEEENS_9allocatorIS6_EEE16__on_zero_sharedEv
__ZNSt3__120__shared_ptr_emplaceIN7gmscore8renderer22MetalTypedBufferObjectINS1_6vector15BasicTextVertexEEENS_9allocatorIS6_EEE21__on_zero_shared_weakEv
__ZNSt3__120__shared_ptr_emplaceIN7gmscore8renderer22MetalTypedBufferObjectINS1_6vector15BreadcrumbStyleEEENS_9allocatorIS6_EEE16__on_zero_sharedEv
__ZNSt3__120__shared_ptr_emplaceIN7gmscore8renderer22MetalTypedBufferObjectINS1_6vector15BreadcrumbStyleEEENS_9allocatorIS6_EEE21__on_zero_shared_weakEv
__ZNSt3__120__shared_ptr_emplaceIN7gmscore8renderer22MetalTypedBufferObjectINS1_6vector16BreadcrumbVertexEEENS_9allocatorIS6_EEE16__on_zero_sharedEv
__ZNSt3__120__shared_ptr_emplaceIN7gmscore8renderer22MetalTypedBufferObjectINS1_6vector16BreadcrumbVertexEEENS_9allocatorIS6_EEE21__on_zero_shared_weakEv
__ZNSt3__120__shared_ptr_emplaceIN7gmscore8renderer22MetalTypedBufferObjectINS1_6vector16ColoredAreaStyleEEENS_9allocatorIS6_EEE16__on_zero_sharedEv
__ZNSt3__120__shared_ptr_emplaceIN7gmscore8renderer22MetalTypedBufferObjectINS1_6vector16ColoredAreaStyleEEENS_9allocatorIS6_EEE21__on_zero_shared_weakEv
__ZNSt3__120__shared_ptr_emplaceIN7gmscore8renderer22MetalTypedBufferObjectINS1_6vector16StyledTextVertexEEENS_9allocatorIS6_EEE16__on_zero_sharedEv
__ZNSt3__120__shared_ptr_emplaceIN7gmscore8renderer22MetalTypedBufferObjectINS1_6vector16StyledTextVertexEEENS_9allocatorIS6_EEE21__on_zero_shared_weakEv
__ZNSt3__120__shared_ptr_emplaceIN7gmscore8renderer22MetalTypedBufferObjectINS1_6vector17TexturedAreaStyleEEENS_9allocatorIS6_EEE16__on_zero_sharedEv
__ZNSt3__120__shared_ptr_emplaceIN7gmscore8renderer22MetalTypedBufferObjectINS1_6vector17TexturedAreaStyleEEENS_9allocatorIS6_EEE21__on_zero_shared_weakEv
__ZNSt3__120__shared_ptr_emplaceIN7gmscore8renderer22MetalTypedBufferObjectINS1_6vector21NinePatchSpriteRegionEEENS_9allocatorIS6_EEE16__on_zero_sharedEv
__ZNSt3__120__shared_ptr_emplaceIN7gmscore8renderer22MetalTypedBufferObjectINS1_6vector21NinePatchSpriteRegionEEENS_9allocatorIS6_EEE21__on_zero_shared_weakEv
__ZNSt3__120__shared_ptr_emplaceIN7gmscore8renderer22MetalTypedBufferObjectINS2_12SimpleVertexEEENS_9allocatorIS5_EEE16__on_zero_sharedEv
__ZNSt3__120__shared_ptr_emplaceIN7gmscore8renderer22MetalTypedBufferObjectINS2_12SimpleVertexEEENS_9allocatorIS5_EEE21__on_zero_shared_weakEv
__ZNSt3__120__shared_ptr_emplaceIN7gmscore8renderer22MetalTypedBufferObjectINS2_13ColoredVertexEEENS_9allocatorIS5_EEE16__on_zero_sharedEv
__ZNSt3__120__shared_ptr_emplaceIN7gmscore8renderer22MetalTypedBufferObjectINS2_13ColoredVertexEEENS_9allocatorIS5_EEE21__on_zero_shared_weakEv
__ZNSt3__120__shared_ptr_emplaceIN7gmscore8renderer22MetalTypedBufferObjectINS2_14TexturedVertexEEENS_9allocatorIS5_EEE16__on_zero_sharedEv
__ZNSt3__120__shared_ptr_emplaceIN7gmscore8renderer22MetalTypedBufferObjectINS2_14TexturedVertexEEENS_9allocatorIS5_EEE21__on_zero_shared_weakEv
__ZNSt3__120__shared_ptr_emplaceIN7gmscore8renderer22MetalTypedBufferObjectINS2_24AlphaArrayTexturedVertexEEENS_9allocatorIS5_EEE16__on_zero_sharedEv
__ZNSt3__120__shared_ptr_emplaceIN7gmscore8renderer22MetalTypedBufferObjectINS2_24AlphaArrayTexturedVertexEEENS_9allocatorIS5_EEE21__on_zero_shared_weakEv
__ZNSt3__120__shared_ptr_emplaceIN7gmscore8renderer22MetalTypedBufferObjectIjEENS_9allocatorIS4_EEE16__on_zero_sharedEv
__ZNSt3__120__shared_ptr_emplaceIN7gmscore8renderer22MetalTypedBufferObjectIjEENS_9allocatorIS4_EEE21__on_zero_shared_weakEv
__ZNSt3__120__shared_ptr_emplaceIN7gmscore8renderer22MetalTypedBufferObjectItEENS_9allocatorIS4_EEE16__on_zero_sharedEv
__ZNSt3__120__shared_ptr_emplaceIN7gmscore8renderer22MetalTypedBufferObjectItEENS_9allocatorIS4_EEE21__on_zero_shared_weakEv
__ZNSt3__120__shared_ptr_emplaceIN7gmscore8renderer23MetalTextureRenderStateENS_9allocatorIS3_EEE16__on_zero_sharedEv
__ZNSt3__120__shared_ptr_emplaceIN7gmscore8renderer23MetalTextureRenderStateENS_9allocatorIS3_EEE21__on_zero_shared_weakEv
__ZNSt3__120__shared_ptr_emplaceIN7gmscore8renderer24MetalPipelineRenderStateENS_9allocatorIS3_EEE16__on_zero_sharedEv
__ZNSt3__120__shared_ptr_emplaceIN7gmscore8renderer24MetalPipelineRenderStateENS_9allocatorIS3_EEE21__on_zero_shared_weakEv
__ZNSt3__120__shared_ptr_emplaceIN7gmscore8renderer28MetalDepthStencilRenderStateENS_9allocatorIS3_EEE16__on_zero_sharedEv
__ZNSt3__120__shared_ptr_emplaceIN7gmscore8renderer28MetalDepthStencilRenderStateENS_9allocatorIS3_EEE21__on_zero_shared_weakEv
__ZNSt3__120__shared_ptr_emplaceIN7gmscore8renderer30MetalCullingWindingRenderStateENS_9allocatorIS3_EEE16__on_zero_sharedEv
__ZNSt3__120__shared_ptr_emplaceIN7gmscore8renderer30MetalCullingWindingRenderStateENS_9allocatorIS3_EEE21__on_zero_shared_weakEv
__ZNSt3__120__shared_ptr_emplaceIN8GMSx_imp13GMSx_internal10FutureImpl17FutureImplWrapperENS_9allocatorIS4_EEE16__on_zero_sharedEv
__ZNSt3__120__shared_ptr_emplaceIN8GMSx_imp13GMSx_internal10FutureImpl17FutureImplWrapperENS_9allocatorIS4_EEE21__on_zero_shared_weakEv
__ZNSt3__120__shared_ptr_emplaceIN8GMSx_imp13GMSx_internal10FutureImplENS_9allocatorIS3_EEE16__on_zero_sharedEv
__ZNSt3__120__shared_ptr_emplaceIN8GMSx_imp13GMSx_internal10FutureImplENS_9allocatorIS3_EEE21__on_zero_shared_weakEv
__ZNSt3__120__shared_ptr_emplaceIN8renderer8Behavior44LabelsEntityProviderLabelingBehaviorListenerENS_9allocatorIS3_EEE16__on_zero_sharedEv
__ZNSt3__120__shared_ptr_emplaceIN8renderer8Behavior44LabelsEntityProviderLabelingBehaviorListenerENS_9allocatorIS3_EEE21__on_zero_shared_weakEv
__ZNSt3__120__shared_ptr_emplaceIN9GMSx_util14SimulatedClock10WakeUpInfoENS_9allocatorIS3_EEE16__on_zero_sharedEv
__ZNSt3__120__shared_ptr_emplaceIN9GMSx_util14SimulatedClock10WakeUpInfoENS_9allocatorIS3_EEE21__on_zero_shared_weakEv
__ZNSt3__120__shared_ptr_pointerIPN12GMSx_mapcore7labeler20PlacedLabelIdTrackerENS_14default_deleteIS3_EENS_9allocatorIS3_EEE16__on_zero_sharedEv
__ZNSt3__120__shared_ptr_pointerIPN12GMSx_mapcore7labeler20PlacedLabelIdTrackerENS_14default_deleteIS3_EENS_9allocatorIS3_EEE21__on_zero_shared_weakEv
__ZNSt3__120__shared_ptr_pointerIPN23GMSx_geo_imagery_viewer4core5PhotoENS_10shared_ptrIS3_E27__shared_ptr_default_deleteIS3_S3_EENS_9allocatorIS3_EEE16__on_zero_sharedEv
__ZNSt3__120__shared_ptr_pointerIPN23GMSx_geo_imagery_viewer4core5PhotoENS_10shared_ptrIS3_E27__shared_ptr_default_deleteIS3_S3_EENS_9allocatorIS3_EEE21__on_zero_shared_weakEv
__ZNSt3__120__shared_ptr_pointerIPN23GMSx_geo_imagery_viewer4pano8MetadataENS_10shared_ptrIS3_E27__shared_ptr_default_deleteIS3_S3_EENS_9allocatorIS3_EEE16__on_zero_sharedEv
__ZNSt3__120__shared_ptr_pointerIPN23GMSx_geo_imagery_viewer4pano8MetadataENS_10shared_ptrIS3_E27__shared_ptr_default_deleteIS3_S3_EENS_9allocatorIS3_EEE21__on_zero_shared_weakEv
__ZNSt3__120__shared_ptr_pointerIPN7gmscore5model8Region2fENS_10shared_ptrIS3_E27__shared_ptr_default_deleteIS3_S3_EENS_9allocatorIS3_EEE16__on_zero_sharedEv
__ZNSt3__120__shared_ptr_pointerIPN7gmscore5model8Region2fENS_10shared_ptrIS3_E27__shared_ptr_default_deleteIS3_S3_EENS_9allocatorIS3_EEE21__on_zero_shared_weakEv
__ZNSt3__120__shared_ptr_pointerIPN7gmscore5model9Polygon2fENS_10shared_ptrINS2_8Region2fEE27__shared_ptr_default_deleteIS6_S3_EENS_9allocatorIS3_EEE16__on_zero_sharedEv
__ZNSt3__120__shared_ptr_pointerIPN7gmscore5model9Polygon2fENS_10shared_ptrINS2_8Region2fEE27__shared_ptr_default_deleteIS6_S3_EENS_9allocatorIS3_EEE21__on_zero_shared_weakEv
__ZNSt3__120__shared_ptr_pointerIPN7gmscore6vector11LabelSourceENS_10shared_ptrIS3_E27__shared_ptr_default_deleteIS3_S3_EENS_9allocatorIS3_EEE16__on_zero_sharedEv
__ZNSt3__120__shared_ptr_pointerIPN7gmscore6vector11LabelSourceENS_10shared_ptrIS3_E27__shared_ptr_default_deleteIS3_S3_EENS_9allocatorIS3_EEE21__on_zero_shared_weakEv
__ZNSt3__120__shared_ptr_pointerIPN7gmscore6vector11LabelingJobENS_10shared_ptrIS3_E27__shared_ptr_default_deleteIS3_S3_EENS_9allocatorIS3_EEE16__on_zero_sharedEv
__ZNSt3__120__shared_ptr_pointerIPN7gmscore6vector11LabelingJobENS_10shared_ptrIS3_E27__shared_ptr_default_deleteIS3_S3_EENS_9allocatorIS3_EEE21__on_zero_shared_weakEv
__ZNSt3__120__shared_ptr_pointerIPN7gmscore6vector11RenderLabelENS_10shared_ptrIS3_E27__shared_ptr_default_deleteIS3_S3_EENS_9allocatorIS3_EEE16__on_zero_sharedEv
__ZNSt3__120__shared_ptr_pointerIPN7gmscore6vector11RenderLabelENS_10shared_ptrIS3_E27__shared_ptr_default_deleteIS3_S3_EENS_9allocatorIS3_EEE21__on_zero_shared_weakEv
__ZNSt3__120__shared_ptr_pointerIPN7gmscore6vector13GLStrokeLayerENS_10shared_ptrIS3_E27__shared_ptr_default_deleteIS3_S3_EENS_9allocatorIS3_EEE16__on_zero_sharedEv
__ZNSt3__120__shared_ptr_pointerIPN7gmscore6vector13GLStrokeLayerENS_10shared_ptrIS3_E27__shared_ptr_default_deleteIS3_S3_EENS_9allocatorIS3_EEE21__on_zero_shared_weakEv
__ZNSt3__120__shared_ptr_pointerIPN7gmscore6vector14LabelingParamsENS_10shared_ptrIS3_E27__shared_ptr_default_deleteIS3_S3_EENS_9allocatorIS3_EEE16__on_zero_sharedEv
__ZNSt3__120__shared_ptr_pointerIPN7gmscore6vector14LabelingParamsENS_10shared_ptrIS3_E27__shared_ptr_default_deleteIS3_S3_EENS_9allocatorIS3_EEE21__on_zero_shared_weakEv
__ZNSt3__120__shared_ptr_pointerIPN7gmscore6vector15RenderLineLabelENS_10shared_ptrIS3_E27__shared_ptr_default_deleteIS3_S3_EENS_9allocatorIS3_EEE16__on_zero_sharedEv
__ZNSt3__120__shared_ptr_pointerIPN7gmscore6vector15RenderLineLabelENS_10shared_ptrIS3_E27__shared_ptr_default_deleteIS3_S3_EENS_9allocatorIS3_EEE21__on_zero_shared_weakEv
__ZNSt3__120__shared_ptr_pointerIPN7gmscore6vector16MetalDashTextureENS_10shared_ptrIS3_E27__shared_ptr_default_deleteIS3_S3_EENS_9allocatorIS3_EEE16__on_zero_sharedEv
__ZNSt3__120__shared_ptr_pointerIPN7gmscore6vector16MetalDashTextureENS_10shared_ptrIS3_E27__shared_ptr_default_deleteIS3_S3_EENS_9allocatorIS3_EEE21__on_zero_shared_weakEv
__ZNSt3__120__shared_ptr_pointerIPN7gmscore6vector16MetalStrokeLayerENS_10shared_ptrIS3_E27__shared_ptr_default_deleteIS3_S3_EENS_9allocatorIS3_EEE16__on_zero_sharedEv
__ZNSt3__120__shared_ptr_pointerIPN7gmscore6vector16MetalStrokeLayerENS_10shared_ptrIS3_E27__shared_ptr_default_deleteIS3_S3_EENS_9allocatorIS3_EEE21__on_zero_shared_weakEv
__ZNSt3__120__shared_ptr_pointerIPN7gmscore6vector16RenderImageLabelENS_10shared_ptrIS3_E27__shared_ptr_default_deleteIS3_S3_EENS_9allocatorIS3_EEE16__on_zero_sharedEv
__ZNSt3__120__shared_ptr_pointerIPN7gmscore6vector16RenderImageLabelENS_10shared_ptrIS3_E27__shared_ptr_default_deleteIS3_S3_EENS_9allocatorIS3_EEE21__on_zero_shared_weakEv
__ZNSt3__120__shared_ptr_pointerIPN7gmscore6vector16RenderPointLabelENS_10shared_ptrIS3_E27__shared_ptr_default_deleteIS3_S3_EENS_9allocatorIS3_EEE16__on_zero_sharedEv
__ZNSt3__120__shared_ptr_pointerIPN7gmscore6vector16RenderPointLabelENS_10shared_ptrIS3_E27__shared_ptr_default_deleteIS3_S3_EENS_9allocatorIS3_EEE21__on_zero_shared_weakEv
__ZNSt3__120__shared_ptr_pointerIPN7gmscore6vector17TileLabelProviderENS_10shared_ptrIS3_E27__shared_ptr_default_deleteIS3_S3_EENS_9allocatorIS3_EEE16__on_zero_sharedEv
__ZNSt3__120__shared_ptr_pointerIPN7gmscore6vector17TileLabelProviderENS_10shared_ptrIS3_E27__shared_ptr_default_deleteIS3_S3_EENS_9allocatorIS3_EEE21__on_zero_shared_weakEv
__ZNSt3__120__shared_ptr_pointerIPN7gmscore6vector19LegacyLabelSnapshotENS_10shared_ptrINS2_13LabelSnapshotEE27__shared_ptr_default_deleteIS6_S3_EENS_9allocatorIS3_EEE16__on_zero_sharedEv
__ZNSt3__120__shared_ptr_pointerIPN7gmscore6vector19LegacyLabelSnapshotENS_10shared_ptrINS2_13LabelSnapshotEE27__shared_ptr_default_deleteIS6_S3_EENS_9allocatorIS3_EEE21__on_zero_shared_weakEv
__ZNSt3__120__shared_ptr_pointerIPN7gmscore6vector19POILabelableFeatureENS_10shared_ptrINS2_16LabelableFeatureEE27__shared_ptr_default_deleteIS6_S3_EENS_9allocatorIS3_EEE16__on_zero_sharedEv
__ZNSt3__120__shared_ptr_pointerIPN7gmscore6vector19POILabelableFeatureENS_10shared_ptrINS2_16LabelableFeatureEE27__shared_ptr_default_deleteIS6_S3_EENS_9allocatorIS3_EEE21__on_zero_shared_weakEv
__ZNSt3__120__shared_ptr_pointerIPN7gmscore6vector19POILabelableFeatureENS_10shared_ptrIS3_E27__shared_ptr_default_deleteIS3_S3_EENS_9allocatorIS3_EEE16__on_zero_sharedEv
__ZNSt3__120__shared_ptr_pointerIPN7gmscore6vector19POILabelableFeatureENS_10shared_ptrIS3_E27__shared_ptr_default_deleteIS3_S3_EENS_9allocatorIS3_EEE21__on_zero_shared_weakEv
__ZNSt3__120__shared_ptr_pointerIPN7gmscore6vector20ClientVectorOpsGroupENS_10shared_ptrIS3_E27__shared_ptr_default_deleteIS3_S3_EENS_9allocatorIS3_EEE16__on_zero_sharedEv
__ZNSt3__120__shared_ptr_pointerIPN7gmscore6vector20ClientVectorOpsGroupENS_10shared_ptrIS3_E27__shared_ptr_default_deleteIS3_S3_EENS_9allocatorIS3_EEE21__on_zero_shared_weakEv
__ZNSt3__120__shared_ptr_pointerIPN7gmscore6vector20LineLabelableFeatureENS_10shared_ptrINS2_16LabelableFeatureEE27__shared_ptr_default_deleteIS6_S3_EENS_9allocatorIS3_EEE16__on_zero_sharedEv
__ZNSt3__120__shared_ptr_pointerIPN7gmscore6vector20LineLabelableFeatureENS_10shared_ptrINS2_16LabelableFeatureEE27__shared_ptr_default_deleteIS6_S3_EENS_9allocatorIS3_EEE21__on_zero_shared_weakEv
__ZNSt3__120__shared_ptr_pointerIPN7gmscore6vector22RenderLabelElementIconENS_10shared_ptrIS3_E27__shared_ptr_default_deleteIS3_S3_EENS_9allocatorIS3_EEE16__on_zero_sharedEv
__ZNSt3__120__shared_ptr_pointerIPN7gmscore6vector22RenderLabelElementIconENS_10shared_ptrIS3_E27__shared_ptr_default_deleteIS3_S3_EENS_9allocatorIS3_EEE21__on_zero_shared_weakEv
__ZNSt3__120__shared_ptr_pointerIPN7gmscore6vector22RenderLabelElementTextENS_10shared_ptrIS3_E27__shared_ptr_default_deleteIS3_S3_EENS_9allocatorIS3_EEE16__on_zero_sharedEv
__ZNSt3__120__shared_ptr_pointerIPN7gmscore6vector22RenderLabelElementTextENS_10shared_ptrIS3_E27__shared_ptr_default_deleteIS3_S3_EENS_9allocatorIS3_EEE21__on_zero_shared_weakEv
__ZNSt3__120__shared_ptr_pointerIPN7gmscore6vector23CalloutLabelableFeatureENS_10shared_ptrINS2_16LabelableFeatureEE27__shared_ptr_default_deleteIS6_S3_EENS_9allocatorIS3_EEE16__on_zero_sharedEv
__ZNSt3__120__shared_ptr_pointerIPN7gmscore6vector23CalloutLabelableFeatureENS_10shared_ptrINS2_16LabelableFeatureEE27__shared_ptr_default_deleteIS6_S3_EENS_9allocatorIS3_EEE21__on_zero_shared_weakEv
__ZNSt3__120__shared_ptr_pointerIPN7gmscore6vector24CategorizedLabelProviderENS_10shared_ptrIS3_E27__shared_ptr_default_deleteIS3_S3_EENS_9allocatorIS3_EEE16__on_zero_sharedEv
__ZNSt3__120__shared_ptr_pointerIPN7gmscore6vector24CategorizedLabelProviderENS_10shared_ptrIS3_E27__shared_ptr_default_deleteIS3_S3_EENS_9allocatorIS3_EEE21__on_zero_shared_weakEv
__ZNSt3__120__shared_ptr_pointerIPN7gmscore6vector25IndoorLabelUpdateDelegateENS_10shared_ptrINS2_19LabelUpdateDelegateEE27__shared_ptr_default_deleteIS6_S3_EENS_9allocatorIS3_EEE16__on_zero_sharedEv
__ZNSt3__120__shared_ptr_pointerIPN7gmscore6vector25IndoorLabelUpdateDelegateENS_10shared_ptrINS2_19LabelUpdateDelegateEE27__shared_ptr_default_deleteIS6_S3_EENS_9allocatorIS3_EEE21__on_zero_shared_weakEv
__ZNSt3__120__shared_ptr_pointerIPN7gmscore6vector25RenderLabelElementTextBoxENS_10shared_ptrINS2_18RenderLabelElementEE27__shared_ptr_default_deleteIS6_S3_EENS_9allocatorIS3_EEE16__on_zero_sharedEv
__ZNSt3__120__shared_ptr_pointerIPN7gmscore6vector25RenderLabelElementTextBoxENS_10shared_ptrINS2_18RenderLabelElementEE27__shared_ptr_default_deleteIS6_S3_EENS_9allocatorIS3_EEE21__on_zero_shared_weakEv
__ZNSt3__120__shared_ptr_pointerIPN7gmscore6vector26RankMergingFeatureIteratorENS_10shared_ptrIS3_E27__shared_ptr_default_deleteIS3_S3_EENS_9allocatorIS3_EEE16__on_zero_sharedEv
__ZNSt3__120__shared_ptr_pointerIPN7gmscore6vector26RankMergingFeatureIteratorENS_10shared_ptrIS3_E27__shared_ptr_default_deleteIS3_S3_EENS_9allocatorIS3_EEE21__on_zero_shared_weakEv
__ZNSt3__120__shared_ptr_pointerIPN7gmscore6vector27ClientVectorOpsAreaSubgroupENS_10shared_ptrIS3_E27__shared_ptr_default_deleteIS3_S3_EENS_9allocatorIS3_EEE16__on_zero_sharedEv
__ZNSt3__120__shared_ptr_pointerIPN7gmscore6vector27ClientVectorOpsAreaSubgroupENS_10shared_ptrIS3_E27__shared_ptr_default_deleteIS3_S3_EENS_9allocatorIS3_EEE21__on_zero_shared_weakEv
__ZNSt3__120__shared_ptr_pointerIPN7gmscore6vector27LabelingCandidateClassifierENS_10shared_ptrIS3_E27__shared_ptr_default_deleteIS3_S3_EENS_9allocatorIS3_EEE16__on_zero_sharedEv
__ZNSt3__120__shared_ptr_pointerIPN7gmscore6vector27LabelingCandidateClassifierENS_10shared_ptrIS3_E27__shared_ptr_default_deleteIS3_S3_EENS_9allocatorIS3_EEE21__on_zero_shared_weakEv
__ZNSt3__120__shared_ptr_pointerIPN7gmscore6vector29RenderLabelElementPendingIconENS_10shared_ptrINS2_18RenderLabelElementEE27__shared_ptr_default_deleteIS6_S3_EENS_9allocatorIS3_EEE16__on_zero_sharedEv
__ZNSt3__120__shared_ptr_pointerIPN7gmscore6vector29RenderLabelElementPendingIconENS_10shared_ptrINS2_18RenderLabelElementEE27__shared_ptr_default_deleteIS6_S3_EENS_9allocatorIS3_EEE21__on_zero_shared_weakEv
__ZNSt3__120__shared_ptr_pointerIPN7gmscore6vector29RenderLabelElementPlaceholderENS_10shared_ptrINS2_18RenderLabelElementEE27__shared_ptr_default_deleteIS6_S3_EENS_9allocatorIS3_EEE16__on_zero_sharedEv
__ZNSt3__120__shared_ptr_pointerIPN7gmscore6vector29RenderLabelElementPlaceholderENS_10shared_ptrINS2_18RenderLabelElementEE27__shared_ptr_default_deleteIS6_S3_EENS_9allocatorIS3_EEE21__on_zero_shared_weakEv
__ZNSt3__120__shared_ptr_pointerIPN7gmscore6vector32RenderLabelElementPendingTextBoxENS_10shared_ptrINS2_18RenderLabelElementEE27__shared_ptr_default_deleteIS6_S3_EENS_9allocatorIS3_EEE16__on_zero_sharedEv
__ZNSt3__120__shared_ptr_pointerIPN7gmscore6vector32RenderLabelElementPendingTextBoxENS_10shared_ptrINS2_18RenderLabelElementEE27__shared_ptr_default_deleteIS6_S3_EENS_9allocatorIS3_EEE21__on_zero_shared_weakEv
__ZNSt3__120__shared_ptr_pointerIPN7gmscore6vector34BlockBasedLabelableFeatureSelectorENS_10shared_ptrINS2_24LabelableFeatureSelectorEE27__shared_ptr_default_deleteIS6_S3_EENS_9allocatorIS3_EEE16__on_zero_sharedEv
__ZNSt3__120__shared_ptr_pointerIPN7gmscore6vector34BlockBasedLabelableFeatureSelectorENS_10shared_ptrINS2_24LabelableFeatureSelectorEE27__shared_ptr_default_deleteIS6_S3_EENS_9allocatorIS3_EEE21__on_zero_shared_weakEv
__ZNSt3__120__shared_ptr_pointerIPN7gmscore6vector38ShallowZoomLevelLabelableFeatureFilterENS_10shared_ptrINS2_24LabelableFeatureSelectorEE27__shared_ptr_default_deleteIS6_S3_EENS_9allocatorIS3_EEE16__on_zero_sharedEv
__ZNSt3__120__shared_ptr_pointerIPN7gmscore6vector38ShallowZoomLevelLabelableFeatureFilterENS_10shared_ptrINS2_24LabelableFeatureSelectorEE27__shared_ptr_default_deleteIS6_S3_EENS_9allocatorIS3_EEE21__on_zero_shared_weakEv
__ZNSt3__120__shared_ptr_pointerIPN7gmscore8renderer22MetalTypedBufferObjectINS1_6vector19MetalBuildingVertexEEENS_10shared_ptrIS6_E27__shared_ptr_default_deleteIS6_S6_EENS_9allocatorIS6_EEE16__on_zero_sharedEv
__ZNSt3__120__shared_ptr_pointerIPN7gmscore8renderer22MetalTypedBufferObjectINS1_6vector19MetalBuildingVertexEEENS_10shared_ptrIS6_E27__shared_ptr_default_deleteIS6_S6_EENS_9allocatorIS6_EEE21__on_zero_shared_weakEv
__ZNSt3__120__shared_ptr_pointerIPN7gmscore8renderer22MetalTypedBufferObjectINS2_13ColoredVertexEEENS_10shared_ptrIS5_E27__shared_ptr_default_deleteIS5_S5_EENS_9allocatorIS5_EEE16__on_zero_sharedEv
__ZNSt3__120__shared_ptr_pointerIPN7gmscore8renderer22MetalTypedBufferObjectINS2_13ColoredVertexEEENS_10shared_ptrIS5_E27__shared_ptr_default_deleteIS5_S5_EENS_9allocatorIS5_EEE21__on_zero_shared_weakEv
__ZNSt3__120__shared_ptr_pointerIPN7gmscore8renderer22MetalTypedBufferObjectINS2_14TexturedVertexEEENS_10shared_ptrIS5_E27__shared_ptr_default_deleteIS5_S5_EENS_9allocatorIS5_EEE16__on_zero_sharedEv
__ZNSt3__120__shared_ptr_pointerIPN7gmscore8renderer22MetalTypedBufferObjectINS2_14TexturedVertexEEENS_10shared_ptrIS5_E27__shared_ptr_default_deleteIS5_S5_EENS_9allocatorIS5_EEE21__on_zero_shared_weakEv
__ZNSt3__120__shared_ptr_pointerIPN7gmscore8renderer22MetalTypedBufferObjectItEENS_10shared_ptrIS4_E27__shared_ptr_default_deleteIS4_S4_EENS_9allocatorIS4_EEE16__on_zero_sharedEv
__ZNSt3__120__shared_ptr_pointerIPN7gmscore8renderer22MetalTypedBufferObjectItEENS_10shared_ptrIS4_E27__shared_ptr_default_deleteIS4_S4_EENS_9allocatorIS4_EEE21__on_zero_shared_weakEv
__ZNSt3__120__shared_ptr_pointerIPN9GMSx_absl5MutexENS_10shared_ptrIS2_E27__shared_ptr_default_deleteIS2_S2_EENS_9allocatorIS2_EEE16__on_zero_sharedEv
__ZNSt3__120__shared_ptr_pointerIPN9GMSx_absl5MutexENS_10shared_ptrIS2_E27__shared_ptr_default_deleteIS2_S2_EENS_9allocatorIS2_EEE21__on_zero_shared_weakEv
__ZNSt3__120__shared_ptr_pointerIPbNS_10shared_ptrIbE27__shared_ptr_default_deleteIbbEENS_9allocatorIbEEE16__on_zero_sharedEv
__ZNSt3__120__shared_ptr_pointerIPbNS_10shared_ptrIbE27__shared_ptr_default_deleteIbbEENS_9allocatorIbEEE21__on_zero_shared_weakEv
__ZNSt3__120__throw_bad_weak_ptrB8ue170006Ev
__ZNSt3__120__throw_length_errorB8ue170006EPKc
__ZNSt3__120__throw_out_of_rangeB8ue170006EPKc
__ZNSt3__120back_insert_iteratorINS_6vectorIN22GMSx_maps_paint_client19AnnotationAttributeENS_9allocatorIS3_EEEEEaSB8un170006ERKS3_
__ZNSt3__120back_insert_iteratorINS_6vectorIN7gmscore4base10reffed_ptrINS2_6vector12FeatureGroupEEENS_9allocatorIS7_EEEEEaSB8ue170006EOS7_
__ZNSt3__120back_insert_iteratorINS_6vectorINS_12basic_stringIcNS_11char_traitsIcEENS_9allocatorIcEEEENS5_IS7_EEEEEaSB8ue170006ERKS7_
__ZNSt3__120get_temporary_bufferB8ue170006INS_10shared_ptrIN7gmscore6vector16LabelableFeatureEEEEENS_4pairIPT_lEEl
__ZNSt3__120get_temporary_bufferB8ue170006INS_4pairIN27GMSx_program_image_remapper19GMSx_classification7SectionENS3_16MemoryImportanceEEEEENS1_IPT_lEEl
__ZNSt3__120get_temporary_bufferB8ue170006INS_4pairIiPKN11GMSx_proto212UnknownFieldEEEEENS1_IPT_lEEl
__ZNSt3__120get_temporary_bufferB8ue170006IPKN11GMSx_proto27MessageEEENS_4pairIPT_lEEl
__ZNSt3__121__insertion_sort_moveB8ue170006INS_17_ClassicAlgPolicyERN11GMSx_proto216DynamicMapSorter25MapEntryMessageComparatorENS_11__wrap_iterIPPKNS2_7MessageEEEEEvT1_SC_PNS_15iterator_traitsISC_E10value_typeET0_
__ZNSt3__121__insertion_sort_moveB8ue170006INS_17_ClassicAlgPolicyERN11GMSx_proto225MapEntryMessageComparatorENS_11__wrap_iterIPPKNS2_7MessageEEEEEvT1_SB_PNS_15iterator_traitsISB_E10value_typeET0_
__ZNSt3__121__insertion_sort_moveB8ue170006INS_17_ClassicAlgPolicyERPFbRKNS_10shared_ptrIN7gmscore6vector16LabelableFeatureEEES8_ENS_11__wrap_iterIPS6_EEEEvT1_SF_PNS_15iterator_traitsISF_E10value_typeET0_
__ZNSt3__121__murmur2_or_cityhashImLm64EE18__hash_len_0_to_16B8ue170006EPKcm
__ZNSt3__121__murmur2_or_cityhashImLm64EE19__hash_len_17_to_32B8ue170006EPKcm
__ZNSt3__121__murmur2_or_cityhashImLm64EE19__hash_len_33_to_64B8ue170006EPKcm
__ZNSt3__121__unwrap_and_dispatchB8ue170006INS_10__overloadINS_11__copy_loopINS_17_ClassicAlgPolicyEEENS_14__copy_trivialEEEPKN9GMSx_absl12crc_internal12CrcCordState9PrefixCrcESC_NS_16__deque_iteratorISA_PSA_RSA_PSE_lLl256EEETnNS_9enable_ifIXsr12__can_rewrapIT0_T1_T2_EE5valueEiE4typeELi0EEENS_4pairISJ_SL_EESJ_SK_SL_
__ZNSt3__122__hash_node_destructorINS_9allocatorINS_11__hash_nodeINS_12basic_stringIcNS_11char_traitsIcEENS1_IcEEEEPvEEEEEclB8ue170006EPS9_
__ZNSt3__122__hash_node_destructorINS_9allocatorINS_11__hash_nodeINS_17__hash_value_typeINS_12basic_stringIcNS_11char_traitsIcEENS1_IcEEEENS_10shared_ptrIN7gmscore6vector24MetalTextureAtlasElementEEEEEPvEEEEEclB8ue170006EPSG_
__ZNSt3__122__hash_node_destructorINS_9allocatorINS_11__hash_nodeINS_17__hash_value_typeINS_12basic_stringIcNS_11char_traitsIcEENS1_IcEEEEPKN9GMSx_absl13time_internal4cctz9time_zone4ImplEEEPvEEEEEclB8ue170006EPSI_
__ZNSt3__122__hash_node_destructorINS_9allocatorINS_11__hash_nodeINS_17__hash_value_typeINS_12basic_stringIcNS_11char_traitsIcEENS1_IcEEEEPN7gmscore5utils8LRUCacheIS8_NS9_4base10reffed_ptrINS9_8renderer12TextureStateEEENS_4hashIS8_EENS_8equal_toIS8_EENSA_24LRUCacheMissingValueFuncISG_EELb0EE13LRUCacheEntryEEEPvEEEEEclB8ue170006EPSS_
__ZNSt3__122__hash_node_destructorINS_9allocatorINS_11__hash_nodeINS_17__hash_value_typeIP17_opaque_pthread_tNS_6vectorIU8__strongP22GMSx_SRLImplementationNS1_IS9_EEEEEEPvEEEEEclB8ue170006EPSE_
__ZNSt3__122__hash_node_destructorINS_9allocatorINS_11__hash_nodeINS_17__hash_value_typeIfNS_10unique_ptrIN7gmscore6vector24MetalMutableTextureAtlasENS_14default_deleteIS7_EEEEEEPvEEEEEclB8ue170006EPSD_
__ZNSt3__122__merge_move_constructB8ue170006INS_17_ClassicAlgPolicyERN11GMSx_proto216DynamicMapSorter25MapEntryMessageComparatorENS_11__wrap_iterIPPKNS2_7MessageEEESB_EEvT1_SC_T2_SD_PNS_15iterator_traitsISC_E10value_typeET0_
__ZNSt3__122__merge_move_constructB8ue170006INS_17_ClassicAlgPolicyERN11GMSx_proto225MapEntryMessageComparatorENS_11__wrap_iterIPPKNS2_7MessageEEESA_EEvT1_SB_T2_SC_PNS_15iterator_traitsISB_E10value_typeET0_
__ZNSt3__122__merge_move_constructB8ue170006INS_17_ClassicAlgPolicyERPFbRKNS_10shared_ptrIN7gmscore6vector16LabelableFeatureEEES8_ENS_11__wrap_iterIPS6_EESE_EEvT1_SF_T2_SG_PNS_15iterator_traitsISF_E10value_typeET0_
__ZNSt3__122__tree_node_destructorINS_9allocatorINS_11__tree_nodeINS_12__value_typeIN23GMSx_geo_imagery_viewer3api7PhotoIdENS_10unique_ptrINS4_4core12PendingPhotoENS_14default_deleteIS9_EEEEEEPvEEEEEclB8ue170006EPSF_
__ZNSt3__122__tree_node_destructorINS_9allocatorINS_11__tree_nodeINS_12__value_typeIN7gmscore4base10reffed_ptrINS4_8renderer10BaseEntityEEENS_5tupleIJjmjS9_EEEEEPvEEEEEclB8ue170006EPSE_
__ZNSt3__122__tree_node_destructorINS_9allocatorINS_11__tree_nodeINS_12__value_typeIN7gmscore6vector12DashGroupKeyENS_10shared_ptrINS5_16MetalDashTextureEEEEEPvEEEEEclB8ue170006EPSC_
__ZNSt3__122__tree_node_destructorINS_9allocatorINS_11__tree_nodeINS_12__value_typeINS_10shared_ptrIN7gmscore6vector11RenderLabelEEENS5_4base10reffed_ptrINS6_20GLBaseLabelIconBatch11LabelRecordEEEEEPvEEEEEclB8ue170006EPSG_
__ZNSt3__122__tree_node_destructorINS_9allocatorINS_11__tree_nodeINS_12__value_typeINS_10shared_ptrIN7gmscore6vector11RenderLabelEEENS6_16GLLabelTextBatch12LabelVersionEEEPvEEEEEclB8ue170006EPSD_
__ZNSt3__122__tree_node_destructorINS_9allocatorINS_11__tree_nodeINS_12__value_typeINS_12basic_stringIcNS_11char_traitsIcEENS1_IcEEEEN23GMSx_geo_imagery_viewer5swipe21AreaConnectivityGraph9AreaEntryEEEPvEEEEEclB8ue170006EPSF_
__ZNSt3__122__tree_node_destructorINS_9allocatorINS_11__tree_nodeINS_12__value_typeINS_12basic_stringIcNS_11char_traitsIcEENS1_IcEEEEN7gmscore4base10reffed_ptrINS9_6vector18GLTextureAtlasIconEEEEEPvEEEEEclB8ue170006EPSH_
__ZNSt3__122__tree_node_destructorINS_9allocatorINS_11__tree_nodeINS_12__value_typeINS_12basic_stringIcNS_11char_traitsIcEENS1_IcEEEEN7gmscore4base10reffed_ptrINS9_8renderer13ShaderProgramEEEEEPvEEEEEclB8ue170006EPSH_
__ZNSt3__122__tree_node_destructorINS_9allocatorINS_11__tree_nodeINS_12__value_typeINS_12basic_stringIcNS_11char_traitsIcEENS1_IcEEEENS_10shared_ptrIN12GMSx_NSSInfoI5groupS8_PKcL_Z10getgrnam_rEE8CacheRecEEEEEPvEEEEEclB8ue170006EPSJ_
__ZNSt3__122__tree_node_destructorINS_9allocatorINS_11__tree_nodeINS_12__value_typeINS_12basic_stringIcNS_11char_traitsIcEENS1_IcEEEENS_10shared_ptrIN12GMSx_NSSInfoI6passwdS8_PKcL_Z10getpwnam_rEE8CacheRecEEEEEPvEEEEEclB8ue170006EPSJ_
__ZNSt3__122__tree_node_destructorINS_9allocatorINS_11__tree_nodeINS_12__value_typeINS_12basic_stringIcNS_11char_traitsIcEENS1_IcEEEENS_6vectorIPKN9GMSx_absl15CommandLineFlagENS1_ISD_EEEEEEPvEEEEEclB8ue170006EPSI_
__ZNSt3__122__tree_node_destructorINS_9allocatorINS_11__tree_nodeINS_12__value_typeINS_12basic_stringIcNS_11char_traitsIcEENS1_IcEEEENS_8weak_ptrIN20GMSRocketIconService6HolderEEEEEPvEEEEEclB8ue170006EPSF_
__ZNSt3__122__tree_node_destructorINS_9allocatorINS_11__tree_nodeINS_12__value_typeINS_12basic_stringIcNS_11char_traitsIcEENS1_IcEEEES8_EEPvEEEEEclB8ue170006EPSB_
__ZNSt3__122__tree_node_destructorINS_9allocatorINS_11__tree_nodeINS_12__value_typeINS_12basic_stringIcNS_11char_traitsIcEENS1_IcEEEEiEEPvEEEEEclB8ue170006EPSB_
__ZNSt3__122__tree_node_destructorINS_9allocatorINS_11__tree_nodeINS_12__value_typeINS_4pairINS_12basic_stringIcNS_11char_traitsIcEENS1_IcEEEEiEEN7gmscore4base10reffed_ptrINSB_6vector24GMSGeneratedTextureAtlasEEEEEPvEEEEEclB8ue170006EPSJ_
__ZNSt3__122__tree_node_destructorINS_9allocatorINS_11__tree_nodeINS_12basic_stringIcNS_11char_traitsIcEENS1_IcEEEEPvEEEEEclB8ue170006EPS9_
__ZNSt3__122__tree_node_destructorINS_9allocatorINS_11__tree_nodeINS_4pairINS_12basic_stringIcNS_11char_traitsIcEENS1_IcEEEEiEEPvEEEEEclB8ue170006EPSB_
__ZNSt3__123mersenne_twister_engineIyLm64ELm312ELm156ELm31ELy13043109905998158313ELm29ELy6148914691236517205ELm17ELy8202884508482404352ELm37ELy18444473444759240704ELm43ELy6364136223846793005EEclEv
__ZNSt3__124__buffered_inplace_mergeB8ue170006INS_17_ClassicAlgPolicyERN11GMSx_proto216DynamicMapSorter25MapEntryMessageComparatorENS_11__wrap_iterIPPKNS2_7MessageEEEEEvT1_SC_SC_OT0_NS_15iterator_traitsISC_E15difference_typeESH_PNSG_10value_typeE
__ZNSt3__124__buffered_inplace_mergeB8ue170006INS_17_ClassicAlgPolicyERN11GMSx_proto225MapEntryMessageComparatorENS_11__wrap_iterIPPKNS2_7MessageEEEEEvT1_SB_SB_OT0_NS_15iterator_traitsISB_E15difference_typeESG_PNSF_10value_typeE
__ZNSt3__124__buffered_inplace_mergeB8ue170006INS_17_ClassicAlgPolicyERPFbRKNS_10shared_ptrIN7gmscore6vector16LabelableFeatureEEES8_ENS_11__wrap_iterIPS6_EEEEvT1_SF_SF_OT0_NS_15iterator_traitsISF_E15difference_typeESK_PNSJ_10value_typeE
__ZNSt3__124__optional_destruct_baseIN12GMSx_mapcore7PolygonIN13GMSx_filament4math7details5TVec2IfEEEELb0EE5resetB8un170006Ev
__ZNSt3__124__optional_destruct_baseIN12GMSx_mapcore7PolygonIN13GMSx_filament4math7details5TVec2IfEEEELb0EED2B8un170006Ev
__ZNSt3__124__optional_destruct_baseIN12GMSx_mapcore7labeler16LabelIdentityKeyELb0EED2B8un170006Ev
__ZNSt3__124__optional_destruct_baseIN8GMSx_imp15SimpleHistogramELb0EE5resetB8un170006Ev
__ZNSt3__124__optional_destruct_baseIN9GMSx_absl13flat_hash_setIiNS1_13hash_internal4HashIiEENS_8equal_toIiEENS_9allocatorIiEEEELb0EE5resetB8ue170006Ev
__ZNSt3__124__optional_destruct_baseIN9GMSx_absl13flat_hash_setIiNS1_13hash_internal4HashIiEENS_8equal_toIiEENS_9allocatorIiEEEELb0EED2B8ue170006Ev
__ZNSt3__124__optional_destruct_baseINS_12basic_stringIcNS_11char_traitsIcEENS_9allocatorIcEEEELb0EED2B8ue170006Ev
__ZNSt3__124__optional_destruct_baseINS_6vectorIN13GMSx_filament4math7details5TVec2IfEENS_9allocatorIS6_EEEELb0EE5resetB8un170006Ev
__ZNSt3__124__optional_destruct_baseINS_6vectorIN7gmscore5model7Point2DENS_9allocatorIS4_EEEELb0EE5resetB8ue170006Ev
__ZNSt3__124__optional_destruct_baseINS_6vectorIiNS_9allocatorIiEEEELb0EE5resetB8ue170006Ev
__ZNSt3__124__put_character_sequenceB8ue170006IcNS_11char_traitsIcEEEERNS_13basic_ostreamIT_T0_EES7_PKS4_m
__ZNSt3__124__put_character_sequenceB8un170006IcNS_11char_traitsIcEEEERNS_13basic_ostreamIT_T0_EES7_PKS4_m
__ZNSt3__125__lexicographical_compareB8ue170006IRNS_6__lessIvvEENS_21__tree_const_iteratorIN9GMSx_absl7uint128EPNS_11__tree_nodeIS6_PvEElEESB_EEbT0_SC_T1_SD_T_
__ZNSt3__125__throw_bad_function_callB8ue170006Ev
__ZNSt3__125__throw_bad_function_callB8un170006Ev
__ZNSt3__126__insertion_sort_unguardedB8ue170006INS_17_ClassicAlgPolicyER25GMSx_FilenameFlagnameLessP24GMSx_CommandLineFlagInfoEEvT1_S6_T0_
__ZNSt3__126__insertion_sort_unguardedB8ue170006INS_17_ClassicAlgPolicyERN11GMSx_proto213GMSx_internal12MapKeySorter16MapKeyComparatorEPNS2_6MapKeyEEEvT1_S9_T0_
__ZNSt3__126__insertion_sort_unguardedB8ue170006INS_17_ClassicAlgPolicyERN11GMSx_proto213GMSx_internal17MapSorterLessThanIjEEPNS_4pairIjPKvEEEEvT1_SC_T0_
__ZNSt3__126__insertion_sort_unguardedB8ue170006INS_17_ClassicAlgPolicyERN11GMSx_proto213GMSx_internal17MapSorterLessThanIxEEPNS_4pairIxPKvEEEEvT1_SC_T0_
__ZNSt3__126__insertion_sort_unguardedB8ue170006INS_17_ClassicAlgPolicyERN11GMSx_proto213GMSx_internal17MapSorterLessThanIyEEPNS_4pairIyPKvEEEEvT1_SC_T0_
__ZNSt3__126__insertion_sort_unguardedB8ue170006INS_17_ClassicAlgPolicyERN11GMSx_proto213GMSx_internal20MapSorterPtrLessThanINS_12basic_stringIcNS_11char_traitsIcEENS_9allocatorIcEEEEEEPPKvEEvT1_SG_T0_
__ZNSt3__126__insertion_sort_unguardedB8ue170006INS_17_ClassicAlgPolicyERN23GMSx_geo_imagery_viewer5swipe16AreaConnectivity19CompareIdIndexPairsEPNS_4pairIPKNS_12basic_stringIcNS_11char_traitsIcEENS_9allocatorIcEEEEiEEEEvT1_SI_T0_
__ZNSt3__126__insertion_sort_unguardedB8ue170006INS_17_ClassicAlgPolicyERN8GMSx_gtl7OrderByIMN23GMSx_geo_imagery_viewer7overlay15IconManagerImpl10PickedIconEdNS2_4LessEEEPS7_EEvT1_SD_T0_
__ZNSt3__126__insertion_sort_unguardedB8ue170006INS_17_ClassicAlgPolicyERNS_6__lessIvvEEPN9GMSx_absl11string_viewEEEvT1_S8_T0_
__ZNSt3__126__insertion_sort_unguardedB8ue170006INS_17_ClassicAlgPolicyERNS_6__lessIvvEEPNS_12basic_stringIcNS_11char_traitsIcEENS_9allocatorIcEEEEEEvT1_SC_T0_
__ZNSt3__126__insertion_sort_unguardedB8ue170006INS_17_ClassicAlgPolicyERNS_8functionIFbRKN7gmscore4base10reffed_ptrINS3_8renderer10BaseEntityEEESA_EEEPS8_EEvT1_SF_T0_
__ZNSt3__126__insertion_sort_unguardedB8ue170006INS_17_ClassicAlgPolicyERPFbPKN11GMSx_proto215FieldDescriptorES5_EPS5_EEvT1_SA_T0_
__ZNSt3__126__insertion_sort_unguardedB8ue170006INS_17_ClassicAlgPolicyERPFbRKN7gmscore4base10reffed_ptrINS2_6vector4text20RenderableGlyphGroupEEESA_EPS8_EEvT1_SF_T0_
__ZNSt3__126__insertion_sort_unguardedB8un170006INS_17_ClassicAlgPolicyERN12GMSx_mapcore7labeler18LabelPtrComparatorEPPNS3_14LabelCandidateEEEvT1_S9_T0_
__ZNSt3__126__insertion_sort_unguardedB8un170006INS_17_ClassicAlgPolicyERN8GMSx_gtl7OrderByIMN11util_intops6HandleIN12GMSx_mapcore7labeler27LabelCandidateBundleId_tag_EyEEKFyvENS2_4LessEEEPS9_EEvT1_SG_T0_
__ZNSt3__126__throw_bad_variant_accessB8ue170006Ev
__ZNSt3__126__throw_bad_variant_accessB8un170006Ev
__ZNSt3__127__insertion_sort_incompleteB8ue170006INS_17_ClassicAlgPolicyER25GMSx_FilenameFlagnameLessP24GMSx_CommandLineFlagInfoEEbT1_S6_T0_
__ZNSt3__127__insertion_sort_incompleteB8ue170006INS_17_ClassicAlgPolicyERN11GMSx_proto213GMSx_internal12MapKeySorter16MapKeyComparatorEPNS2_6MapKeyEEEbT1_S9_T0_
__ZNSt3__127__insertion_sort_incompleteB8ue170006INS_17_ClassicAlgPolicyERN11GMSx_proto213GMSx_internal17MapSorterLessThanIjEEPNS_4pairIjPKvEEEEbT1_SC_T0_
__ZNSt3__127__insertion_sort_incompleteB8ue170006INS_17_ClassicAlgPolicyERN11GMSx_proto213GMSx_internal17MapSorterLessThanIxEEPNS_4pairIxPKvEEEEbT1_SC_T0_
__ZNSt3__127__insertion_sort_incompleteB8ue170006INS_17_ClassicAlgPolicyERN11GMSx_proto213GMSx_internal17MapSorterLessThanIyEEPNS_4pairIyPKvEEEEbT1_SC_T0_
__ZNSt3__127__insertion_sort_incompleteB8ue170006INS_17_ClassicAlgPolicyERN11GMSx_proto213GMSx_internal20MapSorterPtrLessThanINS_12basic_stringIcNS_11char_traitsIcEENS_9allocatorIcEEEEEEPPKvEEbT1_SG_T0_
__ZNSt3__127__insertion_sort_incompleteB8ue170006INS_17_ClassicAlgPolicyERN23GMSx_geo_imagery_viewer5swipe16AreaConnectivity19CompareIdIndexPairsEPNS_4pairIPKNS_12basic_stringIcNS_11char_traitsIcEENS_9allocatorIcEEEEiEEEEbT1_SI_T0_
__ZNSt3__127__insertion_sort_incompleteB8ue170006INS_17_ClassicAlgPolicyERN8GMSx_gtl7OrderByIMN23GMSx_geo_imagery_viewer7overlay15IconManagerImpl10PickedIconEdNS2_4LessEEEPS7_EEbT1_SD_T0_
__ZNSt3__127__insertion_sort_incompleteB8ue170006INS_17_ClassicAlgPolicyERNS_6__lessIvvEEPN9GMSx_absl11string_viewEEEbT1_S8_T0_
__ZNSt3__127__insertion_sort_incompleteB8ue170006INS_17_ClassicAlgPolicyERNS_6__lessIvvEEPNS_12basic_stringIcNS_11char_traitsIcEENS_9allocatorIcEEEEEEbT1_SC_T0_
__ZNSt3__127__insertion_sort_incompleteB8ue170006INS_17_ClassicAlgPolicyERNS_8functionIFbRKN7gmscore4base10reffed_ptrINS3_8renderer10BaseEntityEEESA_EEEPS8_EEbT1_SF_T0_
__ZNSt3__127__insertion_sort_incompleteB8ue170006INS_17_ClassicAlgPolicyERPFbPKN11GMSx_proto215FieldDescriptorES5_EPS5_EEbT1_SA_T0_
__ZNSt3__127__insertion_sort_incompleteB8ue170006INS_17_ClassicAlgPolicyERPFbRKN7gmscore4base10reffed_ptrINS2_6vector4text20RenderableGlyphGroupEEESA_EPS8_EEbT1_SF_T0_
__ZNSt3__127__insertion_sort_incompleteB8un170006INS_17_ClassicAlgPolicyERN12GMSx_mapcore7labeler18LabelPtrComparatorEPPNS3_14LabelCandidateEEEbT1_S9_T0_
__ZNSt3__127__insertion_sort_incompleteB8un170006INS_17_ClassicAlgPolicyERN8GMSx_gtl7OrderByIMN11util_intops6HandleIN12GMSx_mapcore7labeler27LabelCandidateBundleId_tag_EyEEKFyvENS2_4LessEEEPS9_EEbT1_SG_T0_
__ZNSt3__127__throw_bad_optional_accessB8ue170006Ev
__ZNSt3__127__throw_bad_optional_accessB8un170006Ev
__ZNSt3__127__tree_balance_after_insertB8ue170006IPNS_16__tree_node_baseIPvEEEEvT_S5_
__ZNSt3__128__exception_guard_exceptionsINS_29_AllocatorDestroyRangeReverseINS_9allocatorIN11GMSx_proto213GMSx_internal17TailCallTableInfo14SkipEntryBlockEEENS_16reverse_iteratorIPS6_EEEEED2B8ue170006Ev
__ZNSt3__128__exception_guard_exceptionsINS_29_AllocatorDestroyRangeReverseINS_9allocatorIN11GMSx_proto22io7Printer6Format4LineEEENS_16reverse_iteratorIPS7_EEEEED2B8ue170006Ev
__ZNSt3__128__exception_guard_exceptionsINS_29_AllocatorDestroyRangeReverseINS_9allocatorIN23GMSx_geo_imagery_viewer12platform_ios14ServicesConfig12TileTemplateEEENS_16reverse_iteratorIPS6_EEEEED2B8ue170006Ev
__ZNSt3__128__exception_guard_exceptionsINS_29_AllocatorDestroyRangeReverseINS_9allocatorIN23GMSx_geo_imagery_viewer12platform_ios14ServicesConfig12TileTemplateEEEPS6_EEED2B8ue170006Ev
__ZNSt3__128__exception_guard_exceptionsINS_29_AllocatorDestroyRangeReverseINS_9allocatorIN7gmscore5model10LabelGroupEEENS_16reverse_iteratorIPS5_EEEEED2B8ue170006Ev
__ZNSt3__128__exception_guard_exceptionsINS_29_AllocatorDestroyRangeReverseINS_9allocatorIN7gmscore5model10Polyline2DEEENS_16reverse_iteratorIPS5_EEEEED2B8ue170006Ev
__ZNSt3__128__exception_guard_exceptionsINS_29_AllocatorDestroyRangeReverseINS_9allocatorIN7gmscore5model10Polyline2DEEEPS5_EEED2B8ue170006Ev
__ZNSt3__128__exception_guard_exceptionsINS_29_AllocatorDestroyRangeReverseINS_9allocatorIN7gmscore5model12LabelElementEEENS_16reverse_iteratorIPS5_EEEEED2B8ue170006Ev
__ZNSt3__128__exception_guard_exceptionsINS_29_AllocatorDestroyRangeReverseINS_9allocatorIN7gmscore5model12LabelElementEEEPS5_EEED2B8ue170006Ev
__ZNSt3__128__exception_guard_exceptionsINS_29_AllocatorDestroyRangeReverseINS_9allocatorIN7gmscore5model6StrokeEEENS_16reverse_iteratorIPS5_EEEEED2B8ue170006Ev
__ZNSt3__128__exception_guard_exceptionsINS_29_AllocatorDestroyRangeReverseINS_9allocatorIN7gmscore5model6StrokeEEEPS5_EEED2B8ue170006Ev
__ZNSt3__128__exception_guard_exceptionsINS_29_AllocatorDestroyRangeReverseINS_9allocatorIN7gmscore5model9Clipper2D10ClipResultEEENS_16reverse_iteratorIPS6_EEEEED2B8ue170006Ev
__ZNSt3__128__exception_guard_exceptionsINS_29_AllocatorDestroyRangeReverseINS_9allocatorIN7gmscore6vector13GLStrokeLayer17LineAttributeInfoEEENS_16reverse_iteratorIPS6_EEEEED2B8ue170006Ev
__ZNSt3__128__exception_guard_exceptionsINS_29_AllocatorDestroyRangeReverseINS_9allocatorIN7gmscore6vector13NinePatchInfoEEENS_16reverse_iteratorIPS5_EEEEED2B8ue170006Ev
__ZNSt3__128__exception_guard_exceptionsINS_29_AllocatorDestroyRangeReverseINS_9allocatorIN7gmscore6vector14AnimatedValuesEEENS_16reverse_iteratorIPS5_EEEEED2B8ue170006Ev
__ZNSt3__128__exception_guard_exceptionsINS_29_AllocatorDestroyRangeReverseINS_9allocatorIN7gmscore6vector14MarkupPolylineEEENS_16reverse_iteratorIPS5_EEEEED2B8ue170006Ev
__ZNSt3__128__exception_guard_exceptionsINS_29_AllocatorDestroyRangeReverseINS_9allocatorIN7gmscore6vector14MarkupPolylineEEEPS5_EEED2B8ue170006Ev
__ZNSt3__128__exception_guard_exceptionsINS_29_AllocatorDestroyRangeReverseINS_9allocatorIN7gmscore6vector18PolylineSimplifier14SimplifyResultEEENS_16reverse_iteratorIPS6_EEEEED2B8ue170006Ev
__ZNSt3__128__exception_guard_exceptionsINS_29_AllocatorDestroyRangeReverseINS_9allocatorIN7gmscore6vector18PolylineSimplifierEEENS_16reverse_iteratorIPS5_EEEEED2B8ue170006Ev
__ZNSt3__128__exception_guard_exceptionsINS_29_AllocatorDestroyRangeReverseINS_9allocatorIN7gmscore6vector28GMSGeneratedTextureAtlasInfoEEENS_16reverse_iteratorIPS5_EEEEED2B8ue170006Ev
__ZNSt3__128__exception_guard_exceptionsINS_29_AllocatorDestroyRangeReverseINS_9allocatorIN7gmscore6vector9AreaGroup10AreaSubsetEEENS_16reverse_iteratorIPS6_EEEEED2B8ue170006Ev
__ZNSt3__128__exception_guard_exceptionsINS_29_AllocatorDestroyRangeReverseINS_9allocatorIN9GMSx_absl16UnrecognizedFlagEEENS_16reverse_iteratorIPS4_EEEEED2B8ue170006Ev
__ZNSt3__128__exception_guard_exceptionsINS_29_AllocatorDestroyRangeReverseINS_9allocatorINS_10unique_ptrIKN11GMSx_proto219FileDescriptorProtoENS_14default_deleteIS6_EEEEEENS_16reverse_iteratorIPS9_EEEEED2B8ue170006Ev
__ZNSt3__128__exception_guard_exceptionsINS_29_AllocatorDestroyRangeReverseINS_9allocatorINS_10unique_ptrIN11GMSx_proto210TextFormat13ParseInfoTreeENS_14default_deleteIS6_EEEEEENS_16reverse_iteratorIPS9_EEEEED2B8ue170006Ev
__ZNSt3__128__exception_guard_exceptionsINS_29_AllocatorDestroyRangeReverseINS_9allocatorINS_10unique_ptrIiN11GMSx_proto214DescriptorPool6Tables11MiscDeleterEEEEENS_16reverse_iteratorIPS8_EEEEED2B8ue170006Ev
__ZNSt3__128__exception_guard_exceptionsINS_29_AllocatorDestroyRangeReverseINS_9allocatorINS_12basic_stringIcNS_11char_traitsIcEENS2_IcEEEEEENS_16reverse_iteratorIPS7_EEEEED2B8ue170006Ev
__ZNSt3__128__exception_guard_exceptionsINS_29_AllocatorDestroyRangeReverseINS_9allocatorINS_12basic_stringIcNS_11char_traitsIcEENS2_IcEEEEEEPS7_EEED2B8ue170006Ev
__ZNSt3__128__exception_guard_exceptionsINS_29_AllocatorDestroyRangeReverseINS_9allocatorINS_3mapIijNS_4lessIiEENS2_INS_4pairIKijEEEEEEEENS_16reverse_iteratorIPSA_EEEEED2B8ue170006Ev
__ZNSt3__128__exception_guard_exceptionsINS_29_AllocatorDestroyRangeReverseINS_9allocatorINS_4pairINS3_ImmEENS_12basic_stringIcNS_11char_traitsIcEENS2_IcEEEEEEEENS_16reverse_iteratorIPSA_EEEEED2B8ue170006Ev
__ZNSt3__128__exception_guard_exceptionsINS_29_AllocatorDestroyRangeReverseINS_9allocatorINS_4pairINS_10shared_ptrIN7gmscore6vector11LabelSourceEEENS4_INS5_5model12Collidable2DEEEEEEENS_16reverse_iteratorIPSC_EEEEED2B8ue170006Ev
__ZNSt3__128__exception_guard_exceptionsINS_29_AllocatorDestroyRangeReverseINS_9allocatorINS_4pairINS_10shared_ptrIN7gmscore6vector11LabelSourceEEENS4_INS5_5model12Collidable2DEEEEEEEPSC_EEED2B8ue170006Ev
__ZNSt3__128__exception_guard_exceptionsINS_29_AllocatorDestroyRangeReverseINS_9allocatorINS_4pairINS_12basic_stringIcNS_11char_traitsIcEENS2_IcEEEES8_EEEENS_16reverse_iteratorIPS9_EEEEED2B8ue170006Ev
__ZNSt3__128__exception_guard_exceptionsINS_29_AllocatorDestroyRangeReverseINS_9allocatorINS_4pairINS_12basic_stringIcNS_11char_traitsIcEENS2_IcEEEEbEEEEPS9_EEED2B8ue170006Ev
__ZNSt3__128__exception_guard_exceptionsINS_29_AllocatorDestroyRangeReverseINS_9allocatorINS_4pairIPK8__CTFontNS_6vectorItNS2_ItEEEEEEEENS_16reverse_iteratorIPSA_EEEEED2B8ue170006Ev
__ZNSt3__128__exception_guard_exceptionsINS_29_AllocatorDestroyRangeReverseINS_9allocatorINS_6vectorI10GMSPoint2DNS2_IS4_EEEEEENS_16reverse_iteratorIPS6_EEEEED2B8ue170006Ev
__ZNSt3__128__exception_guard_exceptionsINS_29_AllocatorDestroyRangeReverseINS_9allocatorINS_6vectorIN7gmscore4base10reffed_ptrINS4_6vector6SpriteEEENS2_IS9_EEEEEENS_16reverse_iteratorIPSB_EEEEED2B8ue170006Ev
__ZNSt3__128__exception_guard_exceptionsINS_29_AllocatorDestroyRangeReverseINS_9allocatorINS_6vectorIN7gmscore4base10reffed_ptrINS4_8renderer21SafeVBOWithAttributesINS4_6vector22GMSLineStampAttributesEEEEENS2_ISC_EEEEEENS_16reverse_iteratorIPSE_EEEEED2B8ue170006Ev
__ZNSt3__128__exception_guard_exceptionsINS_29_AllocatorDestroyRangeReverseINS_9allocatorINS_6vectorIN7gmscore4base10reffed_ptrINS4_8renderer21SafeVBOWithAttributesINS4_6vector24GMSLineConsumeAttributesEEEEENS2_ISC_EEEEEENS_16reverse_iteratorIPSE_EEEEED2B8ue170006Ev
__ZNSt3__128__exception_guard_exceptionsINS_29_AllocatorDestroyRangeReverseINS_9allocatorINS_6vectorIN7gmscore4base10reffed_ptrINS4_8renderer21SafeVBOWithAttributesINS4_6vector24GMSLineStippleAttributesEEEEENS2_ISC_EEEEEENS_16reverse_iteratorIPSE_EEEEED2B8ue170006Ev
__ZNSt3__128__exception_guard_exceptionsINS_29_AllocatorDestroyRangeReverseINS_9allocatorINS_6vectorIN7gmscore4base10reffed_ptrINS4_8renderer21SafeVBOWithAttributesINS4_6vector30GMSLineColorAndWidthAttributesEEEEENS2_ISC_EEEEEENS_16reverse_iteratorIPSE_EEEEED2B8ue170006Ev
__ZNSt3__128__exception_guard_exceptionsINS_29_AllocatorDestroyRangeReverseINS_9allocatorINS_6vectorIN7gmscore5model10Polyline2DENS2_IS6_EEEEEENS_16reverse_iteratorIPS8_EEEEED2B8ue170006Ev
__ZNSt3__128__exception_guard_exceptionsINS_29_AllocatorDestroyRangeReverseINS_9allocatorINS_6vectorIN7gmscore5model7Point2DENS2_IS6_EEEEEENS_16reverse_iteratorIPS8_EEEEED2B8ue170006Ev
__ZNSt3__128__exception_guard_exceptionsINS_29_AllocatorDestroyRangeReverseINS_9allocatorINS_6vectorIN7gmscore6vector13GLStrokeLayer22LineAllStyleAttributesENS2_IS7_EEEEEENS_16reverse_iteratorIPS9_EEEEED2B8ue170006Ev
__ZNSt3__128__exception_guard_exceptionsINS_29_AllocatorDestroyRangeReverseINS_9allocatorINS_6vectorIN7gmscore6vector9ColorSpanENS2_IS6_EEEEEENS_16reverse_iteratorIPS8_EEEEED2B8ue170006Ev
__ZNSt3__128__exception_guard_exceptionsINS_29_AllocatorDestroyRangeReverseINS_9allocatorINS_6vectorINS_10shared_ptrIN7gmscore6vector16LabelableFeatureEEENS2_IS8_EEEEEENS_16reverse_iteratorIPSA_EEEEED2B8ue170006Ev
__ZNSt3__128__exception_guard_exceptionsINS_29_AllocatorDestroyRangeReverseINS_9allocatorINS_6vectorINS_10shared_ptrIN7gmscore6vector18RenderLabelElementEEENS2_IS8_EEEEEENS_16reverse_iteratorIPSA_EEEEED2B8ue170006Ev
__ZNSt3__128__exception_guard_exceptionsINS_29_AllocatorDestroyRangeReverseINS_9allocatorINS_6vectorINS_10shared_ptrIN7gmscore6vector18RenderLabelElementEEENS2_IS8_EEEEEEPSA_EEED2B8ue170006Ev
__ZNSt3__128__exception_guard_exceptionsINS_29_AllocatorDestroyRangeReverseINS_9allocatorINS_6vectorINS_3mapIijNS_4lessIiEENS2_INS_4pairIKijEEEEEENS2_ISB_EEEEEENS_16reverse_iteratorIPSD_EEEEED2B8ue170006Ev
__ZNSt3__128__exception_guard_exceptionsINS_29_AllocatorDestroyRangeReverseINS_9allocatorINS_6vectorIPKN11GMSx_proto215FieldDescriptorENS2_IS7_EEEEEENS_16reverse_iteratorIPS9_EEEEED2B8ue170006Ev
__ZNSt3__128__exception_guard_exceptionsINS_29_AllocatorDestroyRangeReverseINS_9allocatorINS_6vectorIPKN11GMSx_proto215FieldDescriptorENS2_IS7_EEEEEEPS9_EEED2B8ue170006Ev
__ZNSt3__128__exception_guard_exceptionsINS_29_AllocatorDestroyRangeReverseINS_9allocatorINS_6vectorIPKvNS2_IS5_EEEEEENS_16reverse_iteratorIPS7_EEEEED2B8ue170006Ev
__ZNSt3__128__exception_guard_exceptionsINS_29_AllocatorDestroyRangeReverseINS_9allocatorINS_6vectorIfNS2_IfEEEEEENS_16reverse_iteratorIPS5_EEEEED2B8ue170006Ev
__ZNSt3__128__exception_guard_exceptionsINS_29_AllocatorDestroyRangeReverseINS_9allocatorINS_6vectorIiNS2_IiEEEEEENS_16reverse_iteratorIPS5_EEEEED2B8ue170006Ev
__ZNSt3__128__exception_guard_exceptionsINS_29_AllocatorDestroyRangeReverseINS_9allocatorINS_8functionIFNS_8optionalIN11GMSx_proto22io7Printer16AnnotationRecordEEEN9GMSx_absl11string_viewEEEEEENS_16reverse_iteratorIPSD_EEEEED2B8ue170006Ev
__ZNSt3__128__exception_guard_exceptionsINS_29_AllocatorDestroyRangeReverseINS_9allocatorINS_8functionIFNS_8optionalIN11GMSx_proto22io7Printer9ValueImplILb0EEEEEN9GMSx_absl11string_viewEEEEEENS_16reverse_iteratorIPSE_EEEEED2B8ue170006Ev
__ZNSt3__128__exception_guard_exceptionsINS_29_AllocatorDestroyRangeReverseINS_9allocatorINS_8functionIFvvEEEEENS_16reverse_iteratorIPS5_EEEEED2B8ue170006Ev
__ZNSt3__130__uninitialized_allocator_copyB8un170006INS_9allocatorIN11util_intops6HandleIN12GMSx_mapcore7labeler27LabelCandidateBundleId_tag_EyEEEEN8GMSx_gtl25internal_associative_view13AssociateViewIS7_S7_NS9_22AlsoSupportsLookupWithIJEEEE8iteratorESF_PS7_EET2_RT_T0_T1_SH_
__ZNSt3__131__partition_with_equals_on_leftB8ue170006INS_17_ClassicAlgPolicyEP24GMSx_CommandLineFlagInfoR25GMSx_FilenameFlagnameLessEET0_S6_S6_T1_
__ZNSt3__131__partition_with_equals_on_leftB8ue170006INS_17_ClassicAlgPolicyEPN11GMSx_proto26MapKeyERNS2_13GMSx_internal12MapKeySorter16MapKeyComparatorEEET0_S9_S9_T1_
__ZNSt3__131__partition_with_equals_on_leftB8ue170006INS_17_ClassicAlgPolicyEPN23GMSx_geo_imagery_viewer7overlay15IconManagerImpl10PickedIconERN8GMSx_gtl7OrderByIMS5_dNS7_4LessEEEEET0_SD_SD_T1_
__ZNSt3__131__partition_with_equals_on_leftB8ue170006INS_17_ClassicAlgPolicyEPN7gmscore4base10reffed_ptrINS2_6vector4text20RenderableGlyphGroupEEERPFbRKS8_SB_EEET0_SF_SF_T1_
__ZNSt3__131__partition_with_equals_on_leftB8ue170006INS_17_ClassicAlgPolicyEPN7gmscore4base10reffed_ptrINS2_8renderer10BaseEntityEEERNS_8functionIFbRKS7_SB_EEEEET0_SF_SF_T1_
__ZNSt3__131__partition_with_equals_on_leftB8ue170006INS_17_ClassicAlgPolicyEPN9GMSx_absl11string_viewERNS_6__lessIvvEEEET0_S8_S8_T1_
__ZNSt3__131__partition_with_equals_on_leftB8ue170006INS_17_ClassicAlgPolicyEPNS_12basic_stringIcNS_11char_traitsIcEENS_9allocatorIcEEEERNS_6__lessIvvEEEET0_SC_SC_T1_
__ZNSt3__131__partition_with_equals_on_leftB8ue170006INS_17_ClassicAlgPolicyEPNS_4pairIPKNS_12basic_stringIcNS_11char_traitsIcEENS_9allocatorIcEEEEiEERN23GMSx_geo_imagery_viewer5swipe16AreaConnectivity19CompareIdIndexPairsEEET0_SI_SI_T1_
__ZNSt3__131__partition_with_equals_on_leftB8ue170006INS_17_ClassicAlgPolicyEPNS_4pairIjPKvEERN11GMSx_proto213GMSx_internal17MapSorterLessThanIjEEEET0_SC_SC_T1_
__ZNSt3__131__partition_with_equals_on_leftB8ue170006INS_17_ClassicAlgPolicyEPNS_4pairIxPKvEERN11GMSx_proto213GMSx_internal17MapSorterLessThanIxEEEET0_SC_SC_T1_
__ZNSt3__131__partition_with_equals_on_leftB8ue170006INS_17_ClassicAlgPolicyEPNS_4pairIyPKvEERN11GMSx_proto213GMSx_internal17MapSorterLessThanIyEEEET0_SC_SC_T1_
__ZNSt3__131__partition_with_equals_on_leftB8ue170006INS_17_ClassicAlgPolicyEPPKN11GMSx_proto215FieldDescriptorERPFbS5_S5_EEET0_SA_SA_T1_
__ZNSt3__131__partition_with_equals_on_leftB8ue170006INS_17_ClassicAlgPolicyEPPKvRN11GMSx_proto213GMSx_internal20MapSorterPtrLessThanINS_12basic_stringIcNS_11char_traitsIcEENS_9allocatorIcEEEEEEEET0_SG_SG_T1_
__ZNSt3__131__partition_with_equals_on_leftB8un170006INS_17_ClassicAlgPolicyEPN11util_intops6HandleIN12GMSx_mapcore7labeler27LabelCandidateBundleId_tag_EyEERN8GMSx_gtl7OrderByIMS7_KFyvENS9_4LessEEEEET0_SG_SG_T1_
__ZNSt3__131__partition_with_equals_on_leftB8un170006INS_17_ClassicAlgPolicyEPPN12GMSx_mapcore7labeler14LabelCandidateERNS3_18LabelPtrComparatorEEET0_S9_S9_T1_
__ZNSt3__132__partition_with_equals_on_rightB8ue170006INS_17_ClassicAlgPolicyEP24GMSx_CommandLineFlagInfoR25GMSx_FilenameFlagnameLessEENS_4pairIT0_bEES7_S7_T1_
__ZNSt3__132__partition_with_equals_on_rightB8ue170006INS_17_ClassicAlgPolicyEPN11GMSx_proto26MapKeyERNS2_13GMSx_internal12MapKeySorter16MapKeyComparatorEEENS_4pairIT0_bEESA_SA_T1_
__ZNSt3__132__partition_with_equals_on_rightB8ue170006INS_17_ClassicAlgPolicyEPN23GMSx_geo_imagery_viewer7overlay15IconManagerImpl10PickedIconERN8GMSx_gtl7OrderByIMS5_dNS7_4LessEEEEENS_4pairIT0_bEESE_SE_T1_
__ZNSt3__132__partition_with_equals_on_rightB8ue170006INS_17_ClassicAlgPolicyEPN7gmscore4base10reffed_ptrINS2_6vector4text20RenderableGlyphGroupEEERPFbRKS8_SB_EEENS_4pairIT0_bEESG_SG_T1_
__ZNSt3__132__partition_with_equals_on_rightB8ue170006INS_17_ClassicAlgPolicyEPN7gmscore4base10reffed_ptrINS2_8renderer10BaseEntityEEERNS_8functionIFbRKS7_SB_EEEEENS_4pairIT0_bEESG_SG_T1_
__ZNSt3__132__partition_with_equals_on_rightB8ue170006INS_17_ClassicAlgPolicyEPN9GMSx_absl11string_viewERNS_6__lessIvvEEEENS_4pairIT0_bEES9_S9_T1_
__ZNSt3__132__partition_with_equals_on_rightB8ue170006INS_17_ClassicAlgPolicyEPNS_12basic_stringIcNS_11char_traitsIcEENS_9allocatorIcEEEERNS_6__lessIvvEEEENS_4pairIT0_bEESD_SD_T1_
__ZNSt3__132__partition_with_equals_on_rightB8ue170006INS_17_ClassicAlgPolicyEPNS_4pairIPKNS_12basic_stringIcNS_11char_traitsIcEENS_9allocatorIcEEEEiEERN23GMSx_geo_imagery_viewer5swipe16AreaConnectivity19CompareIdIndexPairsEEENS2_IT0_bEESI_SI_T1_
__ZNSt3__132__partition_with_equals_on_rightB8ue170006INS_17_ClassicAlgPolicyEPNS_4pairIjPKvEERN11GMSx_proto213GMSx_internal17MapSorterLessThanIjEEEENS2_IT0_bEESC_SC_T1_
__ZNSt3__132__partition_with_equals_on_rightB8ue170006INS_17_ClassicAlgPolicyEPNS_4pairIxPKvEERN11GMSx_proto213GMSx_internal17MapSorterLessThanIxEEEENS2_IT0_bEESC_SC_T1_
__ZNSt3__132__partition_with_equals_on_rightB8ue170006INS_17_ClassicAlgPolicyEPNS_4pairIyPKvEERN11GMSx_proto213GMSx_internal17MapSorterLessThanIyEEEENS2_IT0_bEESC_SC_T1_
__ZNSt3__132__partition_with_equals_on_rightB8ue170006INS_17_ClassicAlgPolicyEPPKN11GMSx_proto215FieldDescriptorERPFbS5_S5_EEENS_4pairIT0_bEESB_SB_T1_
__ZNSt3__132__partition_with_equals_on_rightB8ue170006INS_17_ClassicAlgPolicyEPPKvRN11GMSx_proto213GMSx_internal20MapSorterPtrLessThanINS_12basic_stringIcNS_11char_traitsIcEENS_9allocatorIcEEEEEEEENS_4pairIT0_bEESH_SH_T1_
__ZNSt3__132__partition_with_equals_on_rightB8un170006INS_17_ClassicAlgPolicyEPN11util_intops6HandleIN12GMSx_mapcore7labeler27LabelCandidateBundleId_tag_EyEERN8GMSx_gtl7OrderByIMS7_KFyvENS9_4LessEEEEENS_4pairIT0_bEESH_SH_T1_
__ZNSt3__132__partition_with_equals_on_rightB8un170006INS_17_ClassicAlgPolicyEPPN12GMSx_mapcore7labeler14LabelCandidateERNS3_18LabelPtrComparatorEEENS_4pairIT0_bEESA_SA_T1_
__ZNSt3__135__uninitialized_allocator_copy_implB8ue170006INS_9allocatorIN11GMSx_proto227FieldOptions_EditionDefaultEEENS2_13GMSx_internal19RepeatedPtrIteratorIKS3_EES8_PS3_EET2_RT_T0_T1_SA_
__ZNSt3__135__uninitialized_allocator_copy_implB8ue170006INS_9allocatorIN23GMSx_geo_imagery_viewer12platform_ios14ServicesConfig12TileTemplateEEEPS5_S7_S7_EET2_RT_T0_T1_S8_
__ZNSt3__135__uninitialized_allocator_copy_implB8ue170006INS_9allocatorIN7gmscore4base10reffed_ptrINS2_6vector12FeatureGroupEEEEEPS7_S9_S9_EET2_RT_T0_T1_SA_
__ZNSt3__135__uninitialized_allocator_copy_implB8ue170006INS_9allocatorIN7gmscore4base10reffed_ptrINS2_6vector12MutableStateEEEEEPS7_S9_S9_EET2_RT_T0_T1_SA_
__ZNSt3__135__uninitialized_allocator_copy_implB8ue170006INS_9allocatorIN7gmscore4base10reffed_ptrINS2_6vector19TextureAtlasElementEEEEEPS7_S9_S9_EET2_RT_T0_T1_SA_
__ZNSt3__135__uninitialized_allocator_copy_implB8ue170006INS_9allocatorIN7gmscore4base10reffed_ptrINS2_6vector4text20RenderableGlyphGroupEEEEEPS8_SA_SA_EET2_RT_T0_T1_SB_
__ZNSt3__135__uninitialized_allocator_copy_implB8ue170006INS_9allocatorIN7gmscore4base10reffed_ptrINS2_6vector4text8BaseTextEEEEEPKS8_SB_PS8_EET2_RT_T0_T1_SD_
__ZNSt3__135__uninitialized_allocator_copy_implB8ue170006INS_9allocatorIN7gmscore4base10reffed_ptrINS2_6vector4text8BaseTextEEEEEPS8_SA_SA_EET2_RT_T0_T1_SB_
__ZNSt3__135__uninitialized_allocator_copy_implB8ue170006INS_9allocatorIN7gmscore4base10reffed_ptrINS2_6vector6SpriteEEEEEPS7_S9_S9_EET2_RT_T0_T1_SA_
__ZNSt3__135__uninitialized_allocator_copy_implB8ue170006INS_9allocatorIN7gmscore4base10reffed_ptrINS2_8renderer10BaseEntityEEEEEPS7_S9_S9_EET2_RT_T0_T1_SA_
__ZNSt3__135__uninitialized_allocator_copy_implB8ue170006INS_9allocatorIN7gmscore4base10reffed_ptrINS2_8renderer16AlphaShaderStateEEEEEPS7_S9_S9_EET2_RT_T0_T1_SA_
__ZNSt3__135__uninitialized_allocator_copy_implB8ue170006INS_9allocatorIN7gmscore4base10reffed_ptrINS2_8renderer17VBOWithAttributesEEEEEPS7_S9_S9_EET2_RT_T0_T1_SA_
__ZNSt3__135__uninitialized_allocator_copy_implB8ue170006INS_9allocatorIN7gmscore4base10reffed_ptrINS2_8renderer21SafeVBOWithAttributesINS2_6vector22GMSLineStampAttributesEEEEEEEPSA_SC_SC_EET2_RT_T0_T1_SD_
__ZNSt3__135__uninitialized_allocator_copy_implB8ue170006INS_9allocatorIN7gmscore4base10reffed_ptrINS2_8renderer21SafeVBOWithAttributesINS2_6vector24GMSLineConsumeAttributesEEEEEEEPSA_SC_SC_EET2_RT_T0_T1_SD_
__ZNSt3__135__uninitialized_allocator_copy_implB8ue170006INS_9allocatorIN7gmscore4base10reffed_ptrINS2_8renderer21SafeVBOWithAttributesINS2_6vector24GMSLineStippleAttributesEEEEEEEPSA_SC_SC_EET2_RT_T0_T1_SD_
__ZNSt3__135__uninitialized_allocator_copy_implB8ue170006INS_9allocatorIN7gmscore4base10reffed_ptrINS2_8renderer21SafeVBOWithAttributesINS2_6vector30GMSLineColorAndWidthAttributesEEEEEEEPSA_SC_SC_EET2_RT_T0_T1_SD_
__ZNSt3__135__uninitialized_allocator_copy_implB8ue170006INS_9allocatorIN7gmscore5model10Polyline2DEEENS_13move_iteratorINS_11__wrap_iterIPS4_EEEESA_S8_EET2_RT_T0_T1_SB_
__ZNSt3__135__uninitialized_allocator_copy_implB8ue170006INS_9allocatorIN7gmscore5model10Polyline2DEEEPKS4_S7_PS4_EET2_RT_T0_T1_S9_
__ZNSt3__135__uninitialized_allocator_copy_implB8ue170006INS_9allocatorIN7gmscore5model12LabelElementEEEPS4_S6_S6_EET2_RT_T0_T1_S7_
__ZNSt3__135__uninitialized_allocator_copy_implB8ue170006INS_9allocatorIN7gmscore5model6StrokeEEEPKS4_S7_PS4_EET2_RT_T0_T1_S9_
__ZNSt3__135__uninitialized_allocator_copy_implB8ue170006INS_9allocatorIN7gmscore5model6StrokeEEEPS4_S6_S6_EET2_RT_T0_T1_S7_
__ZNSt3__135__uninitialized_allocator_copy_implB8ue170006INS_9allocatorIN7gmscore6vector14MarkupPolylineEEEPKS4_S7_PS4_EET2_RT_T0_T1_S9_
__ZNSt3__135__uninitialized_allocator_copy_implB8ue170006INS_9allocatorINS_10shared_ptrIN7gmscore6vector11RenderLabelEEEEEN9GMSx_absl18container_internal12raw_hash_setINS9_17FlatHashSetPolicyIS6_EENS9_6HashEqIPS5_vE4HashENSF_2EqES7_E14const_iteratorESJ_PS6_EET2_RT_T0_T1_SL_
__ZNSt3__135__uninitialized_allocator_copy_implB8ue170006INS_9allocatorINS_10shared_ptrIN7gmscore6vector16LabelableFeatureEEEEEN9GMSx_absl18container_internal12raw_hash_setINS9_17FlatHashSetPolicyIS6_EENS9_6HashEqIPS5_vE4HashENSF_2EqES7_E14const_iteratorESJ_PS6_EET2_RT_T0_T1_SL_
__ZNSt3__135__uninitialized_allocator_copy_implB8ue170006INS_9allocatorINS_12basic_stringIcNS_11char_traitsIcEENS1_IcEEEEEEN11GMSx_proto213GMSx_internal19RepeatedPtrIteratorIKS6_EESC_PS6_EET2_RT_T0_T1_SE_
__ZNSt3__135__uninitialized_allocator_copy_implB8ue170006INS_9allocatorINS_12basic_stringIcNS_11char_traitsIcEENS1_IcEEEEEEN9GMSx_absl18container_internal14btree_iteratorINS9_10btree_nodeINS9_10set_paramsIS6_NS_4lessIS6_EES7_Li256ELb0EEEEERKS6_PSH_EESK_PS6_EET2_RT_T0_T1_SM_
__ZNSt3__135__uninitialized_allocator_copy_implB8ue170006INS_9allocatorINS_12basic_stringIcNS_11char_traitsIcEENS1_IcEEEEEEPKN9GMSx_absl11string_viewESB_PS6_EET2_RT_T0_T1_SD_
__ZNSt3__135__uninitialized_allocator_copy_implB8ue170006INS_9allocatorINS_12basic_stringIcNS_11char_traitsIcEENS1_IcEEEEEEPKS6_S9_PS6_EET2_RT_T0_T1_SB_
__ZNSt3__135__uninitialized_allocator_copy_implB8ue170006INS_9allocatorINS_12basic_stringIcNS_11char_traitsIcEENS1_IcEEEEEEPPcS9_PS6_EET2_RT_T0_T1_SB_
__ZNSt3__135__uninitialized_allocator_copy_implB8ue170006INS_9allocatorINS_12basic_stringIcNS_11char_traitsIcEENS1_IcEEEEEEPS6_S8_S8_EET2_RT_T0_T1_S9_
__ZNSt3__135__uninitialized_allocator_copy_implB8ue170006INS_9allocatorINS_4pairINS_10shared_ptrIN7gmscore6vector11LabelSourceEEENS3_INS4_5model12Collidable2DEEEEEEEPKSB_SE_PSB_EET2_RT_T0_T1_SG_
__ZNSt3__135__uninitialized_allocator_copy_implB8ue170006INS_9allocatorINS_4pairINS_10shared_ptrIN7gmscore6vector11LabelSourceEEENS3_INS4_5model12Collidable2DEEEEEEEPSB_SD_SD_EET2_RT_T0_T1_SE_
__ZNSt3__135__uninitialized_allocator_copy_implB8ue170006INS_9allocatorINS_4pairINS_12basic_stringIcNS_11char_traitsIcEENS1_IcEEEEbEEEEPKS8_SB_PS8_EET2_RT_T0_T1_SD_
__ZNSt3__135__uninitialized_allocator_copy_implB8ue170006INS_9allocatorINS_6vectorINS_10shared_ptrIN7gmscore6vector18RenderLabelElementEEENS1_IS7_EEEEEEPS9_SB_SB_EET2_RT_T0_T1_SC_
__ZNSt3__135__uninitialized_allocator_copy_implB8ue170006INS_9allocatorINS_6vectorIPKN11GMSx_proto215FieldDescriptorENS1_IS6_EEEEEEPS8_SA_SA_EET2_RT_T0_T1_SB_
__ZNSt3__135__uninitialized_allocator_copy_implB8un170006INS_9allocatorINS_12basic_stringIcNS_11char_traitsIcEENS1_IcEEEEEEPS6_S8_S8_EET2_RT_T0_T1_S9_
__ZNSt3__13decB8ue170006ERNS_8ios_baseE
__ZNSt3__13hexB8ue170006ERNS_8ios_baseE
__ZNSt3__13mapIU8__strongP12GMSTileLayerU8__strongP14GMSTileOverlayNS_4lessIS3_EENS_9allocatorINS_4pairIU8__strongKS2_S6_EEEEEC2B8ue170006ERKSE_
__ZNSt3__13mapIijNS_4lessIiEENS_9allocatorINS_4pairIKijEEEEEC2B8ue170006ERKS8_
__ZNSt3__13mapIijNS_4lessIiEENS_9allocatorINS_4pairIKijEEEEEC2B8ue170006ESt16initializer_listIS6_ERKS2_
__ZNSt3__13setI12GMSFeatureIDN7gmsbase5model19GMSIndoorIDLessFuncENS_9allocatorIS1_EEEC2B8ue170006ERKS7_
__ZNSt3__13setIN7gmscore4base10reffed_ptrINS1_8renderer10BaseEntityEEENS_4lessIS6_EENS_9allocatorIS6_EEEC2B8ue170006ERKSB_
__ZNSt3__13setIN9GMSx_absl7uint128ENS_4lessIS2_EENS_9allocatorIS2_EEEC2B8ue170006ERKS7_
__ZNSt3__13setINS_10shared_ptrIN7gmscore6vector16LabelableFeatureEEENS_4lessIS5_EENS_9allocatorIS5_EEEC2B8ue170006ERKSA_
__ZNSt3__13setIU8__strongP10GMSOverlayNS_4lessIS3_EENS_9allocatorIS3_EEEC2B8ue170006ERKS8_
__ZNSt3__13setIU8__strongP6UIViewNS_4lessIS3_EENS_9allocatorIS3_EEEC2B8ue170006ERKS8_
__ZNSt3__13setIiNS_4lessIiEENS_9allocatorIiEEEC2B8ue170006ERKS5_
__ZNSt3__13setItNS_4lessItEENS_9allocatorItEEEC2B8ue170006ERKS5_
__ZNSt3__142__uninitialized_allocator_move_if_noexceptB8ue170006INS_9allocatorIN11GMSx_proto213GMSx_internal17TailCallTableInfo14SkipEntryBlockEEENS_16reverse_iteratorIPS5_EES9_S9_EET2_RT_T0_T1_SA_
__ZNSt3__142__uninitialized_allocator_move_if_noexceptB8ue170006INS_9allocatorIN11GMSx_proto22io7Printer6Format4LineEEENS_16reverse_iteratorIPS6_EESA_SA_EET2_RT_T0_T1_SB_
__ZNSt3__142__uninitialized_allocator_move_if_noexceptB8ue170006INS_9allocatorIN23GMSx_geo_imagery_viewer5swipe11PhotoVertexEEENS_16reverse_iteratorIPS4_EES8_S8_EET2_RT_T0_T1_S9_
__ZNSt3__142__uninitialized_allocator_move_if_noexceptB8ue170006INS_9allocatorIN23GMSx_geo_imagery_viewer7overlay13NodeCandidateEEENS_16reverse_iteratorIPS4_EES8_S8_EET2_RT_T0_T1_S9_
__ZNSt3__142__uninitialized_allocator_move_if_noexceptB8ue170006INS_9allocatorIN7gmscore4base10reffed_ptrINS2_6vector12FeatureGroupEEEEENS_16reverse_iteratorIPS7_EESB_SB_EET2_RT_T0_T1_SC_
__ZNSt3__142__uninitialized_allocator_move_if_noexceptB8ue170006INS_9allocatorIN7gmscore4base10reffed_ptrINS2_6vector12FeatureGroupEEEEEPS7_S9_S9_EET2_RT_T0_T1_SA_
__ZNSt3__142__uninitialized_allocator_move_if_noexceptB8ue170006INS_9allocatorIN7gmscore4base10reffed_ptrINS2_6vector12MutableStateEEEEENS_16reverse_iteratorIPS7_EESB_SB_EET2_RT_T0_T1_SC_
__ZNSt3__142__uninitialized_allocator_move_if_noexceptB8ue170006INS_9allocatorIN7gmscore4base10reffed_ptrINS2_6vector16GLBaseLabelBatchEEEEENS_16reverse_iteratorIPS7_EESB_SB_EET2_RT_T0_T1_SC_
__ZNSt3__142__uninitialized_allocator_move_if_noexceptB8ue170006INS_9allocatorIN7gmscore4base10reffed_ptrINS2_6vector17GMSMarkupInstanceEEEEENS_16reverse_iteratorIPS7_EESB_SB_EET2_RT_T0_T1_SC_
__ZNSt3__142__uninitialized_allocator_move_if_noexceptB8ue170006INS_9allocatorIN7gmscore4base10reffed_ptrINS2_6vector18TextureAtlasLayoutEEEEENS_16reverse_iteratorIPS7_EESB_SB_EET2_RT_T0_T1_SC_
__ZNSt3__142__uninitialized_allocator_move_if_noexceptB8ue170006INS_9allocatorIN7gmscore4base10reffed_ptrINS2_6vector19BuildingGroupSubsetEEEEENS_16reverse_iteratorIPS7_EESB_SB_EET2_RT_T0_T1_SC_
__ZNSt3__142__uninitialized_allocator_move_if_noexceptB8ue170006INS_9allocatorIN7gmscore4base10reffed_ptrINS2_6vector19MutableTextureAtlasEEEEENS_16reverse_iteratorIPS7_EESB_SB_EET2_RT_T0_T1_SC_
__ZNSt3__142__uninitialized_allocator_move_if_noexceptB8ue170006INS_9allocatorIN7gmscore4base10reffed_ptrINS2_6vector19MyLocationIndicatorEEEEENS_16reverse_iteratorIPS7_EESB_SB_EET2_RT_T0_T1_SC_
__ZNSt3__142__uninitialized_allocator_move_if_noexceptB8ue170006INS_9allocatorIN7gmscore4base10reffed_ptrINS2_6vector19TextureAtlasElementEEEEENS_16reverse_iteratorIPS7_EESB_SB_EET2_RT_T0_T1_SC_
__ZNSt3__142__uninitialized_allocator_move_if_noexceptB8ue170006INS_9allocatorIN7gmscore4base10reffed_ptrINS2_6vector24GMSGeneratedTextureAtlasEEEEENS_16reverse_iteratorIPS7_EESB_SB_EET2_RT_T0_T1_SC_
__ZNSt3__142__uninitialized_allocator_move_if_noexceptB8ue170006INS_9allocatorIN7gmscore4base10reffed_ptrINS2_6vector28GMSTexturedStrokeShaderStateEEEEENS_16reverse_iteratorIPS7_EESB_SB_EET2_RT_T0_T1_SC_
__ZNSt3__142__uninitialized_allocator_move_if_noexceptB8ue170006INS_9allocatorIN7gmscore4base10reffed_ptrINS2_6vector4text13MetalGlyphSetEEEEENS_16reverse_iteratorIPS8_EESC_SC_EET2_RT_T0_T1_SD_
__ZNSt3__142__uninitialized_allocator_move_if_noexceptB8ue170006INS_9allocatorIN7gmscore4base10reffed_ptrINS2_6vector4text17TextureAtlasGlyphEEEEENS_16reverse_iteratorIPS8_EESC_SC_EET2_RT_T0_T1_SD_
__ZNSt3__142__uninitialized_allocator_move_if_noexceptB8ue170006INS_9allocatorIN7gmscore4base10reffed_ptrINS2_6vector4text20RenderableGlyphGroupEEEEENS_16reverse_iteratorIPS8_EESC_SC_EET2_RT_T0_T1_SD_
__ZNSt3__142__uninitialized_allocator_move_if_noexceptB8ue170006INS_9allocatorIN7gmscore4base10reffed_ptrINS2_6vector4text20RenderableGlyphGroupEEEEEPS8_SA_SA_EET2_RT_T0_T1_SB_
__ZNSt3__142__uninitialized_allocator_move_if_noexceptB8ue170006INS_9allocatorIN7gmscore4base10reffed_ptrINS2_6vector4text8BaseTextEEEEENS_16reverse_iteratorIPS8_EESC_SC_EET2_RT_T0_T1_SD_
__ZNSt3__142__uninitialized_allocator_move_if_noexceptB8ue170006INS_9allocatorIN7gmscore4base10reffed_ptrINS2_6vector4text8GlyphSetEEEEENS_16reverse_iteratorIPS8_EESC_SC_EET2_RT_T0_T1_SD_
__ZNSt3__142__uninitialized_allocator_move_if_noexceptB8ue170006INS_9allocatorIN7gmscore4base10reffed_ptrINS2_6vector6SpriteEEEEENS_16reverse_iteratorIPS7_EESB_SB_EET2_RT_T0_T1_SC_
__ZNSt3__142__uninitialized_allocator_move_if_noexceptB8ue170006INS_9allocatorIN7gmscore4base10reffed_ptrINS2_8renderer10BaseEntityEEEEENS_16reverse_iteratorIPS7_EESB_SB_EET2_RT_T0_T1_SC_
__ZNSt3__142__uninitialized_allocator_move_if_noexceptB8ue170006INS_9allocatorIN7gmscore4base10reffed_ptrINS2_8renderer10BaseEntityEEEEEPS7_S9_S9_EET2_RT_T0_T1_SA_
__ZNSt3__142__uninitialized_allocator_move_if_noexceptB8ue170006INS_9allocatorIN7gmscore4base10reffed_ptrINS2_8renderer10VertexDataEEEEENS_16reverse_iteratorIPS7_EESB_SB_EET2_RT_T0_T1_SC_
__ZNSt3__142__uninitialized_allocator_move_if_noexceptB8ue170006INS_9allocatorIN7gmscore4base10reffed_ptrINS2_8renderer12PolygonStateEEEEENS_16reverse_iteratorIPS7_EESB_SB_EET2_RT_T0_T1_SC_
__ZNSt3__142__uninitialized_allocator_move_if_noexceptB8ue170006INS_9allocatorIN7gmscore4base10reffed_ptrINS2_8renderer16AlphaShaderStateEEEEENS_16reverse_iteratorIPS7_EESB_SB_EET2_RT_T0_T1_SC_
__ZNSt3__142__uninitialized_allocator_move_if_noexceptB8ue170006INS_9allocatorIN7gmscore4base10reffed_ptrINS2_8renderer17VBOWithAttributesEEEEENS_16reverse_iteratorIPS7_EESB_SB_EET2_RT_T0_T1_SC_
__ZNSt3__142__uninitialized_allocator_move_if_noexceptB8ue170006INS_9allocatorIN7gmscore4base10reffed_ptrINS2_8renderer17VertexArrayObjectEEEEENS_16reverse_iteratorIPS7_EESB_SB_EET2_RT_T0_T1_SC_
__ZNSt3__142__uninitialized_allocator_move_if_noexceptB8ue170006INS_9allocatorIN7gmscore4base10reffed_ptrINS2_8renderer21SafeVBOWithAttributesINS2_6vector22GMSLineStampAttributesEEEEEEENS_16reverse_iteratorIPSA_EESE_SE_EET2_RT_T0_T1_SF_
__ZNSt3__142__uninitialized_allocator_move_if_noexceptB8ue170006INS_9allocatorIN7gmscore4base10reffed_ptrINS2_8renderer21SafeVBOWithAttributesINS2_6vector24GMSLineConsumeAttributesEEEEEEENS_16reverse_iteratorIPSA_EESE_SE_EET2_RT_T0_T1_SF_
__ZNSt3__142__uninitialized_allocator_move_if_noexceptB8ue170006INS_9allocatorIN7gmscore4base10reffed_ptrINS2_8renderer21SafeVBOWithAttributesINS2_6vector24GMSLineStippleAttributesEEEEEEENS_16reverse_iteratorIPSA_EESE_SE_EET2_RT_T0_T1_SF_
__ZNSt3__142__uninitialized_allocator_move_if_noexceptB8ue170006INS_9allocatorIN7gmscore4base10reffed_ptrINS2_8renderer21SafeVBOWithAttributesINS2_6vector30GMSLineColorAndWidthAttributesEEEEEEENS_16reverse_iteratorIPSA_EESE_SE_EET2_RT_T0_T1_SF_
__ZNSt3__142__uninitialized_allocator_move_if_noexceptB8ue170006INS_9allocatorIN7gmscore4base10reffed_ptrINS2_8renderer27DistanceConsumedShaderStateEEEEENS_16reverse_iteratorIPS7_EESB_SB_EET2_RT_T0_T1_SC_
__ZNSt3__142__uninitialized_allocator_move_if_noexceptB8ue170006INS_9allocatorIN7gmscore4base10reffed_ptrINS2_8renderer8BehaviorEEEEENS_16reverse_iteratorIPS7_EESB_SB_EET2_RT_T0_T1_SC_
__ZNSt3__142__uninitialized_allocator_move_if_noexceptB8ue170006INS_9allocatorIN7gmscore4base16scoped_cftyperefIP9CGContextEEEENS_16reverse_iteratorIPS7_EESB_SB_EET2_RT_T0_T1_SC_
__ZNSt3__142__uninitialized_allocator_move_if_noexceptB8ue170006INS_9allocatorIN7gmscore5model10LabelGroupEEENS_16reverse_iteratorIPS4_EES8_S8_EET2_RT_T0_T1_S9_
__ZNSt3__142__uninitialized_allocator_move_if_noexceptB8ue170006INS_9allocatorIN7gmscore5model10Polyline2DEEENS_16reverse_iteratorIPS4_EES8_S8_EET2_RT_T0_T1_S9_
__ZNSt3__142__uninitialized_allocator_move_if_noexceptB8ue170006INS_9allocatorIN7gmscore5model10Polyline2DEEEPS4_S6_S6_EET2_RT_T0_T1_S7_
__ZNSt3__142__uninitialized_allocator_move_if_noexceptB8ue170006INS_9allocatorIN7gmscore5model12LabelElementEEENS_16reverse_iteratorIPS4_EES8_S8_EET2_RT_T0_T1_S9_
__ZNSt3__142__uninitialized_allocator_move_if_noexceptB8ue170006INS_9allocatorIN7gmscore5model6StrokeEEENS_16reverse_iteratorIPS4_EES8_S8_EET2_RT_T0_T1_S9_
__ZNSt3__142__uninitialized_allocator_move_if_noexceptB8ue170006INS_9allocatorIN7gmscore5model9Clipper2D10ClipResultEEENS_16reverse_iteratorIPS5_EES9_S9_EET2_RT_T0_T1_SA_
__ZNSt3__142__uninitialized_allocator_move_if_noexceptB8ue170006INS_9allocatorIN7gmscore6vector13GLStrokeLayer17LineAttributeInfoEEENS_16reverse_iteratorIPS5_EES9_S9_EET2_RT_T0_T1_SA_
__ZNSt3__142__uninitialized_allocator_move_if_noexceptB8ue170006INS_9allocatorIN7gmscore6vector13NinePatchInfoEEENS_16reverse_iteratorIPS4_EES8_S8_EET2_RT_T0_T1_S9_
__ZNSt3__142__uninitialized_allocator_move_if_noexceptB8ue170006INS_9allocatorIN7gmscore6vector14AnimatedValuesEEENS_16reverse_iteratorIPS4_EES8_S8_EET2_RT_T0_T1_S9_
__ZNSt3__142__uninitialized_allocator_move_if_noexceptB8ue170006INS_9allocatorIN7gmscore6vector14MarkupPolylineEEENS_16reverse_iteratorIPS4_EES8_S8_EET2_RT_T0_T1_S9_
__ZNSt3__142__uninitialized_allocator_move_if_noexceptB8ue170006INS_9allocatorIN7gmscore6vector17GMSMarkupBehavior17InstanceOperationEEENS_16reverse_iteratorIPS5_EES9_S9_EET2_RT_T0_T1_SA_
__ZNSt3__142__uninitialized_allocator_move_if_noexceptB8ue170006INS_9allocatorIN7gmscore6vector17PolylineVertexSetEEENS_16reverse_iteratorIPS4_EES8_S8_EET2_RT_T0_T1_S9_
__ZNSt3__142__uninitialized_allocator_move_if_noexceptB8ue170006INS_9allocatorIN7gmscore6vector18PolylineSimplifier14SimplifyResultEEENS_16reverse_iteratorIPS5_EES9_S9_EET2_RT_T0_T1_SA_
__ZNSt3__142__uninitialized_allocator_move_if_noexceptB8ue170006INS_9allocatorIN7gmscore6vector18PolylineSimplifierEEENS_16reverse_iteratorIPS4_EES8_S8_EET2_RT_T0_T1_S9_
__ZNSt3__142__uninitialized_allocator_move_if_noexceptB8ue170006INS_9allocatorIN7gmscore6vector28GMSGeneratedTextureAtlasInfoEEENS_16reverse_iteratorIPS4_EES8_S8_EET2_RT_T0_T1_S9_
__ZNSt3__142__uninitialized_allocator_move_if_noexceptB8ue170006INS_9allocatorIN7gmscore6vector9AreaGroup10AreaSubsetEEENS_16reverse_iteratorIPS5_EES9_S9_EET2_RT_T0_T1_SA_
__ZNSt3__142__uninitialized_allocator_move_if_noexceptB8ue170006INS_9allocatorIN7gmscore8renderer14EntityRenderer9PendingOpEEENS_16reverse_iteratorIPS5_EES9_S9_EET2_RT_T0_T1_SA_
__ZNSt3__142__uninitialized_allocator_move_if_noexceptB8ue170006INS_9allocatorINS_12basic_stringIcNS_11char_traitsIcEENS1_IcEEEEEEPS6_S8_S8_EET2_RT_T0_T1_S9_
__ZNSt3__142__uninitialized_allocator_move_if_noexceptB8ue170006INS_9allocatorINS_3mapIijNS_4lessIiEENS1_INS_4pairIKijEEEEEEEENS_16reverse_iteratorIPS9_EESD_SD_EET2_RT_T0_T1_SE_
__ZNSt3__142__uninitialized_allocator_move_if_noexceptB8ue170006INS_9allocatorINS_4pairINS_10shared_ptrIN7gmscore6vector11LabelSourceEEENS3_INS4_5model12Collidable2DEEEEEEENS_16reverse_iteratorIPSB_EESF_SF_EET2_RT_T0_T1_SG_
__ZNSt3__142__uninitialized_allocator_move_if_noexceptB8ue170006INS_9allocatorINS_4pairINS_10shared_ptrIN7gmscore6vector11LabelSourceEEENS3_INS4_5model12Collidable2DEEEEEEEPSB_SD_SD_EET2_RT_T0_T1_SE_
__ZNSt3__142__uninitialized_allocator_move_if_noexceptB8ue170006INS_9allocatorINS_4pairIPK8__CTFontNS_6vectorItNS1_ItEEEEEEEENS_16reverse_iteratorIPS9_EESD_SD_EET2_RT_T0_T1_SE_
__ZNSt3__142__uninitialized_allocator_move_if_noexceptB8ue170006INS_9allocatorINS_6vectorI10GMSPoint2DNS1_IS3_EEEEEENS_16reverse_iteratorIPS5_EES9_S9_EET2_RT_T0_T1_SA_
__ZNSt3__142__uninitialized_allocator_move_if_noexceptB8ue170006INS_9allocatorINS_6vectorIN7gmscore4base10reffed_ptrINS3_6vector6SpriteEEENS1_IS8_EEEEEENS_16reverse_iteratorIPSA_EESE_SE_EET2_RT_T0_T1_SF_
__ZNSt3__142__uninitialized_allocator_move_if_noexceptB8ue170006INS_9allocatorINS_6vectorIN7gmscore4base10reffed_ptrINS3_8renderer21SafeVBOWithAttributesINS3_6vector22GMSLineStampAttributesEEEEENS1_ISB_EEEEEENS_16reverse_iteratorIPSD_EESH_SH_EET2_RT_T0_T1_SI_
__ZNSt3__142__uninitialized_allocator_move_if_noexceptB8ue170006INS_9allocatorINS_6vectorIN7gmscore4base10reffed_ptrINS3_8renderer21SafeVBOWithAttributesINS3_6vector24GMSLineConsumeAttributesEEEEENS1_ISB_EEEEEENS_16reverse_iteratorIPSD_EESH_SH_EET2_RT_T0_T1_SI_
__ZNSt3__142__uninitialized_allocator_move_if_noexceptB8ue170006INS_9allocatorINS_6vectorIN7gmscore4base10reffed_ptrINS3_8renderer21SafeVBOWithAttributesINS3_6vector24GMSLineStippleAttributesEEEEENS1_ISB_EEEEEENS_16reverse_iteratorIPSD_EESH_SH_EET2_RT_T0_T1_SI_
__ZNSt3__142__uninitialized_allocator_move_if_noexceptB8ue170006INS_9allocatorINS_6vectorIN7gmscore4base10reffed_ptrINS3_8renderer21SafeVBOWithAttributesINS3_6vector30GMSLineColorAndWidthAttributesEEEEENS1_ISB_EEEEEENS_16reverse_iteratorIPSD_EESH_SH_EET2_RT_T0_T1_SI_
__ZNSt3__142__uninitialized_allocator_move_if_noexceptB8ue170006INS_9allocatorINS_6vectorIN7gmscore5model10Polyline2DENS1_IS5_EEEEEENS_16reverse_iteratorIPS7_EESB_SB_EET2_RT_T0_T1_SC_
__ZNSt3__142__uninitialized_allocator_move_if_noexceptB8ue170006INS_9allocatorINS_6vectorIN7gmscore5model7Point2DENS1_IS5_EEEEEENS_16reverse_iteratorIPS7_EESB_SB_EET2_RT_T0_T1_SC_
__ZNSt3__142__uninitialized_allocator_move_if_noexceptB8ue170006INS_9allocatorINS_6vectorIN7gmscore6vector13GLStrokeLayer22LineAllStyleAttributesENS1_IS6_EEEEEENS_16reverse_iteratorIPS8_EESC_SC_EET2_RT_T0_T1_SD_
__ZNSt3__142__uninitialized_allocator_move_if_noexceptB8ue170006INS_9allocatorINS_6vectorIN7gmscore6vector9ColorSpanENS1_IS5_EEEEEENS_16reverse_iteratorIPS7_EESB_SB_EET2_RT_T0_T1_SC_
__ZNSt3__142__uninitialized_allocator_move_if_noexceptB8ue170006INS_9allocatorINS_6vectorINS_10shared_ptrIN7gmscore6vector16LabelableFeatureEEENS1_IS7_EEEEEENS_16reverse_iteratorIPS9_EESD_SD_EET2_RT_T0_T1_SE_
__ZNSt3__142__uninitialized_allocator_move_if_noexceptB8ue170006INS_9allocatorINS_6vectorINS_10shared_ptrIN7gmscore6vector18RenderLabelElementEEENS1_IS7_EEEEEENS_16reverse_iteratorIPS9_EESD_SD_EET2_RT_T0_T1_SE_
__ZNSt3__142__uninitialized_allocator_move_if_noexceptB8ue170006INS_9allocatorINS_6vectorINS_3mapIijNS_4lessIiEENS1_INS_4pairIKijEEEEEENS1_ISA_EEEEEENS_16reverse_iteratorIPSC_EESG_SG_EET2_RT_T0_T1_SH_
__ZNSt3__142__uninitialized_allocator_move_if_noexceptB8ue170006INS_9allocatorINS_6vectorIPKN11GMSx_proto215FieldDescriptorENS1_IS6_EEEEEENS_16reverse_iteratorIPS8_EESC_SC_EET2_RT_T0_T1_SD_
__ZNSt3__142__uninitialized_allocator_move_if_noexceptB8ue170006INS_9allocatorINS_6vectorIPKvNS1_IS4_EEEEEENS_16reverse_iteratorIPS6_EESA_SA_EET2_RT_T0_T1_SB_
__ZNSt3__142__uninitialized_allocator_move_if_noexceptB8ue170006INS_9allocatorINS_6vectorIfNS1_IfEEEEEENS_16reverse_iteratorIPS4_EES8_S8_EET2_RT_T0_T1_S9_
__ZNSt3__142__uninitialized_allocator_move_if_noexceptB8ue170006INS_9allocatorINS_6vectorIiNS1_IiEEEEEENS_16reverse_iteratorIPS4_EES8_S8_EET2_RT_T0_T1_S9_
__ZNSt3__142__uninitialized_allocator_move_if_noexceptB8ue170006INS_9allocatorINS_8functionIFNS_8optionalIN11GMSx_proto22io7Printer16AnnotationRecordEEEN9GMSx_absl11string_viewEEEEEENS_16reverse_iteratorIPSC_EESG_SG_EET2_RT_T0_T1_SH_
__ZNSt3__142__uninitialized_allocator_move_if_noexceptB8ue170006INS_9allocatorINS_8functionIFNS_8optionalIN11GMSx_proto22io7Printer9ValueImplILb0EEEEEN9GMSx_absl11string_viewEEEEEENS_16reverse_iteratorIPSD_EESH_SH_EET2_RT_T0_T1_SI_
__ZNSt3__142__uninitialized_allocator_move_if_noexceptB8ue170006INS_9allocatorINS_8functionIFvvEEEEENS_16reverse_iteratorIPS4_EES8_S8_EET2_RT_T0_T1_S9_
__ZNSt3__142__uninitialized_allocator_move_if_noexceptB8un170006INS_9allocatorIN12GMSx_mapcore7labeler11RestrictionEEENS_16reverse_iteratorIPS4_EES8_S8_EET2_RT_T0_T1_S9_
__ZNSt3__142__uninitialized_allocator_move_if_noexceptB8un170006INS_9allocatorIN22GMSx_maps_paint_client19AnnotationAttributeEEENS_16reverse_iteratorIPS3_EES7_S7_EET2_RT_T0_T1_S8_
__ZNSt3__14listIN7gmscore4base10reffed_ptrINS1_8renderer10BaseEntityEEENS_9allocatorIS6_EEE5eraseENS_21__list_const_iteratorIS6_PvEE
__ZNSt3__14listIN7gmscore4base10reffed_ptrINS1_8renderer10BaseEntityEEENS_9allocatorIS6_EEE9push_backERKS6_
__ZNSt3__14listIN7gmscore4base10reffed_ptrINS1_8renderer8BehaviorEEENS_9allocatorIS6_EEE10push_frontERKS6_
__ZNSt3__14listIN7gmscore4base10reffed_ptrINS1_8renderer8BehaviorEEENS_9allocatorIS6_EEE5eraseENS_21__list_const_iteratorIS6_PvEE
__ZNSt3__14listIN7gmscore8renderer18ImageDataSignatureENS_9allocatorIS3_EEE6removeERKS3_
__ZNSt3__14listIN7gmscore8renderer18ImageDataSignatureENS_9allocatorIS3_EEE6spliceENS_21__list_const_iteratorIS3_PvEERS6_S9_S9_
__ZNSt3__14listINS_4pairIKN11util_intops6HandleIN12GMSx_mapcore7labeler27LabelCandidateBundleId_tag_EyEENS_10unique_ptrINS5_20LabelCandidateBundleENS_14default_deleteISA_EEEEEENS_9allocatorISE_EEE5eraseENS_21__list_const_iteratorISE_PvEE
__ZNSt3__14listINS_4pairIKN11util_intops6HandleIN12GMSx_mapcore7labeler27LabelCandidateBundleId_tag_EyEENS_10unique_ptrINS5_20LabelCandidateBundleENS_14default_deleteISA_EEEEEENS_9allocatorISE_EEE6spliceENS_21__list_const_iteratorISE_PvEERSH_
__ZNSt3__14listINS_4pairIN23GMSx_geo_imagery_viewer3api7PhotoIdENS_10shared_ptrINS2_4core5PhotoEEEEENS_9allocatorIS9_EEE5eraseENS_21__list_const_iteratorIS9_PvEE
__ZNSt3__14listINS_4pairIN23GMSx_geo_imagery_viewer3api7PhotoIdENS_10shared_ptrINS2_4core5PhotoEEEEENS_9allocatorIS9_EEE6spliceENS_21__list_const_iteratorIS9_PvEERSC_SF_
__ZNSt3__14listINS_4pairIN23GMSx_geo_imagery_viewer3api7PhotoIdENS_10shared_ptrINS2_4core5PhotoEEEEENS_9allocatorIS9_EEE8pop_backEv
__ZNSt3__14listINS_4pairIN23GMSx_geo_imagery_viewer4core12TileCacheKeyENS_10unique_ptrINS2_4pano4TileENS_14default_deleteIS7_EEEEEENS_9allocatorISB_EEE5eraseENS_21__list_const_iteratorISB_PvEE
__ZNSt3__14listINS_4pairIN23GMSx_geo_imagery_viewer4core12TileCacheKeyENS_10unique_ptrINS2_4pano4TileENS_14default_deleteIS7_EEEEEENS_9allocatorISB_EEE6spliceENS_21__list_const_iteratorISB_PvEERSE_SH_
__ZNSt3__14listINS_4pairIN23GMSx_geo_imagery_viewer4core12TileCacheKeyENS_10unique_ptrINS2_4pano4TileENS_14default_deleteIS7_EEEEEENS_9allocatorISB_EEE8pop_backEv
__ZNSt3__14listINS_5tupleIJ14MTLTextureType14MTLPixelFormatiibEEENS_9allocatorIS4_EEE6removeERKS4_
__ZNSt3__14listINS_5tupleIJ14MTLTextureType14MTLPixelFormatiibEEENS_9allocatorIS4_EEE6spliceENS_21__list_const_iteratorIS4_PvEERS7_SA_SA_
__ZNSt3__14listIPN4base15GMSx_scheduling6DomainENS_9allocatorIS4_EEE6removeERKS4_
__ZNSt3__14listIPN4base15GMSx_scheduling6DomainENS_9allocatorIS4_EEE6spliceENS_21__list_const_iteratorIS4_PvEERS7_SA_SA_
__ZNSt3__14listIPN7gmscore8renderer24ProjectionChangeListenerENS_9allocatorIS4_EEE6removeERKS4_
__ZNSt3__14listIPN7gmscore8renderer24ProjectionChangeListenerENS_9allocatorIS4_EEE6spliceENS_21__list_const_iteratorIS4_PvEERS7_SA_SA_
__ZNSt3__14pairIKN12GMSx_mapcore7labeler18TextMeasurementKeyENS2_20BaseMeasurementCacheINS2_15TextMeasurementES3_NS2_18MeasureTextRequestENS2_19MeasureTextResponseEN9GMSx_absl9GMSx_CordEE16MeasurementCountEEC2B8un170006EOSD_
__ZNSt3__14pairIKNS_10shared_ptrIN7gmscore6vector11RenderLabelEEENS2_4base10reffed_ptrINS3_20GLBaseLabelIconBatch11LabelRecordEEEEC2B8ue170006ERKSC_
__ZNSt3__14pairIKNS_10shared_ptrIN7gmscore6vector11RenderLabelEEENS3_16GLLabelTextBatch12LabelVersionEEC2B8ue170006EOS9_
__ZNSt3__14pairIKNS_12basic_stringIcNS_11char_traitsIcEENS_9allocatorIcEEEEN23GMSx_geo_imagery_viewer5swipe21AreaConnectivityGraph9AreaEntryEEC2B8ue170006EOSC_
__ZNSt3__14pairIN12GMSx_mapcore7labeler18IconMeasurementKeyENS2_20BaseMeasurementCacheINS2_15IconMeasurementES3_NS2_23MeasureIconLayerRequestENS2_24MeasureIconLayerResponseEN9GMSx_absl9GMSx_CordEE16MeasurementCountEEC2B8un170006EOSC_
__ZNSt3__14pairINS_12basic_stringIcNS_11char_traitsIcEENS_9allocatorIcEEEEbEC2B8ue170006ERKS7_
__ZNSt3__14pairINS_12basic_stringIcNS_11char_traitsIcEENS_9allocatorIcEEEEiEC2B8ue170006ERKS7_
__ZNSt3__14swapB8ue170006I24GMSx_CommandLineFlagInfoEENS_9enable_ifIXaasr21is_move_constructibleIT_EE5valuesr18is_move_assignableIS3_EE5valueEvE4typeERS3_S6_
__ZNSt3__14swapB8ue170006IN23GMSx_geo_imagery_viewer5swipe11PhotoVertexEEENS_9enable_ifIXaasr21is_move_constructibleIT_EE5valuesr18is_move_assignableIS5_EE5valueEvE4typeERS5_S8_
__ZNSt3__14swapB8ue170006IN7gmscore5model10LabelGroupEEENS_9enable_ifIXaasr21is_move_constructibleIT_EE5valuesr18is_move_assignableIS5_EE5valueEvE4typeERS5_S8_
__ZNSt3__15dequeI26GMSEntityTapClassStatusSetNS_9allocatorIS1_EEE19__add_back_capacityEv
__ZNSt3__15dequeI26GMSEntityTapClassStatusSetNS_9allocatorIS1_EEE25__maybe_remove_back_spareB8ue170006Eb
__ZNSt3__15dequeI26GMSEntityTapClassStatusSetNS_9allocatorIS1_EEE8pop_backEv
__ZNSt3__15dequeI26GMSEntityTapClassStatusSetNS_9allocatorIS1_EEE9push_backERKS1_
__ZNSt3__15dequeI26GMSEntityTapClassStatusSetNS_9allocatorIS1_EEED2B8ue170006Ev
__ZNSt3__15dequeIN7gmscore5model7Point2DENS_9allocatorIS3_EEE19__add_back_capacityEm
__ZNSt3__15dequeIN7gmscore5model7Point2DENS_9allocatorIS3_EEE19__add_back_capacityEv
__ZNSt3__15dequeIN7gmscore5model7Point2DENS_9allocatorIS3_EEE20__add_front_capacityEm
__ZNSt3__15dequeIN7gmscore5model7Point2DENS_9allocatorIS3_EEE9push_backERKS3_
__ZNSt3__15dequeIN7gmscore5model7Point2DENS_9allocatorIS3_EEED2B8ue170006Ev
__ZNSt3__15dequeIN9GMSx_absl12crc_internal12CrcCordState9PrefixCrcENS_9allocatorIS4_EEE14__erase_to_endENS_16__deque_iteratorIS4_PKS4_RS9_PKSA_lLl256EEE
__ZNSt3__15dequeIN9GMSx_absl12crc_internal12CrcCordState9PrefixCrcENS_9allocatorIS4_EEE19__add_back_capacityEm
__ZNSt3__15dequeIN9GMSx_absl12crc_internal12CrcCordState9PrefixCrcENS_9allocatorIS4_EEE19__add_back_capacityEv
__ZNSt3__15dequeIN9GMSx_absl12crc_internal12CrcCordState9PrefixCrcENS_9allocatorIS4_EEE25__maybe_remove_back_spareB8ue170006Eb
__ZNSt3__15dequeIN9GMSx_absl12crc_internal12CrcCordState9PrefixCrcENS_9allocatorIS4_EEE9push_backEOS4_
__ZNSt3__15dequeIN9GMSx_absl12crc_internal12CrcCordState9PrefixCrcENS_9allocatorIS4_EEED2B8ue170006Ev
__ZNSt3__15dequeIN9GMSx_absl12crc_internal12CrcCordState9PrefixCrcENS_9allocatorIS4_EEEaSERKS7_
__ZNSt3__15dequeIPKN11GMSx_proto27MessageENS_9allocatorIS4_EEE19__add_back_capacityEv
__ZNSt3__15dequeIPKN11GMSx_proto27MessageENS_9allocatorIS4_EEE9push_backEOS4_
__ZNSt3__15dequeIPKN11GMSx_proto27MessageENS_9allocatorIS4_EEED2B8ue170006Ev
__ZNSt3__15dequeIPKN9GMSx_absl13time_internal4cctz9time_zone4ImplENS_9allocatorIS7_EEE19__add_back_capacityEv
__ZNSt3__15dequeIPKN9GMSx_absl13time_internal4cctz9time_zone4ImplENS_9allocatorIS7_EEE9push_backERKS7_
__ZNSt3__15dequeIPN11GMSx_proto27MessageENS_9allocatorIS3_EEE19__add_back_capacityEv
__ZNSt3__15dequeIPN11GMSx_proto27MessageENS_9allocatorIS3_EEE9push_backEOS3_
__ZNSt3__15dequeIPN11GMSx_proto27MessageENS_9allocatorIS3_EEED2B8ue170006Ev
__ZNSt3__16__treeI12GMSFeatureIDN7gmsbase5model19GMSIndoorIDLessFuncENS_9allocatorIS1_EEE16__insert_node_atEPNS_15__tree_end_nodeIPNS_16__tree_node_baseIPvEEEERSC_SC_
__ZNSt3__16__treeI12GMSFeatureIDN7gmsbase5model19GMSIndoorIDLessFuncENS_9allocatorIS1_EEE7destroyEPNS_11__tree_nodeIS1_PvEE
__ZNSt3__16__treeIN7gmscore4base10reffed_ptrINS1_6vector6SpriteEEENS4_19SpritePtrComparatorENS_9allocatorIS6_EEE16__insert_node_atEPNS_15__tree_end_nodeIPNS_16__tree_node_baseIPvEEEERSF_SF_
__ZNSt3__16__treeIN7gmscore4base10reffed_ptrINS1_6vector6SpriteEEENS4_19SpritePtrComparatorENS_9allocatorIS6_EEE21__remove_node_pointerEPNS_11__tree_nodeIS6_PvEE
__ZNSt3__16__treeIN7gmscore4base10reffed_ptrINS1_6vector6SpriteEEENS4_19SpritePtrComparatorENS_9allocatorIS6_EEE5eraseENS_21__tree_const_iteratorIS6_PNS_11__tree_nodeIS6_PvEElEE
__ZNSt3__16__treeIN7gmscore4base10reffed_ptrINS1_6vector6SpriteEEENS4_19SpritePtrComparatorENS_9allocatorIS6_EEE7destroyEPNS_11__tree_nodeIS6_PvEE
__ZNSt3__16__treeIN7gmscore4base10reffed_ptrINS1_8renderer10BaseEntityEEENS_4lessIS6_EENS_9allocatorIS6_EEE16__insert_node_atEPNS_15__tree_end_nodeIPNS_16__tree_node_baseIPvEEEERSG_SG_
__ZNSt3__16__treeIN7gmscore4base10reffed_ptrINS1_8renderer10BaseEntityEEENS_4lessIS6_EENS_9allocatorIS6_EEE21__remove_node_pointerEPNS_11__tree_nodeIS6_PvEE
__ZNSt3__16__treeIN7gmscore4base10reffed_ptrINS1_8renderer10BaseEntityEEENS_4lessIS6_EENS_9allocatorIS6_EEE5eraseENS_21__tree_const_iteratorIS6_PNS_11__tree_nodeIS6_PvEElEE
__ZNSt3__16__treeIN7gmscore4base10reffed_ptrINS1_8renderer10BaseEntityEEENS_4lessIS6_EENS_9allocatorIS6_EEE7destroyEPNS_11__tree_nodeIS6_PvEE
__ZNSt3__16__treeIN7gmscore4base10reffed_ptrINS1_8renderer10BaseEntityEEENS_8functionIFbRKS6_S9_EEENS_9allocatorIS6_EEE16__insert_node_atEPNS_15__tree_end_nodeIPNS_16__tree_node_baseIPvEEEERSJ_SJ_
__ZNSt3__16__treeIN7gmscore4base10reffed_ptrINS1_8renderer10BaseEntityEEENS_8functionIFbRKS6_S9_EEENS_9allocatorIS6_EEE21__remove_node_pointerEPNS_11__tree_nodeIS6_PvEE
__ZNSt3__16__treeIN7gmscore4base10reffed_ptrINS1_8renderer10BaseEntityEEENS_8functionIFbRKS6_S9_EEENS_9allocatorIS6_EEE4swapERSE_
__ZNSt3__16__treeIN7gmscore4base10reffed_ptrINS1_8renderer10BaseEntityEEENS_8functionIFbRKS6_S9_EEENS_9allocatorIS6_EEE5eraseENS_21__tree_const_iteratorIS6_PNS_11__tree_nodeIS6_PvEElEE
__ZNSt3__16__treeIN7gmscore4base10reffed_ptrINS1_8renderer10BaseEntityEEENS_8functionIFbRKS6_S9_EEENS_9allocatorIS6_EEE7destroyEPNS_11__tree_nodeIS6_PvEE
__ZNSt3__16__treeIN7gmscore4base10reffed_ptrINS1_8renderer10BaseEntityEEENS_8functionIFbRKS6_S9_EEENS_9allocatorIS6_EEED2Ev
__ZNSt3__16__treeIN7gmscore4base10reffed_ptrINS1_8renderer12RenderTargetEEENS_4lessIS6_EENS_9allocatorIS6_EEE16__insert_node_atEPNS_15__tree_end_nodeIPNS_16__tree_node_baseIPvEEEERSG_SG_
__ZNSt3__16__treeIN7gmscore4base10reffed_ptrINS1_8renderer12RenderTargetEEENS_4lessIS6_EENS_9allocatorIS6_EEE7destroyEPNS_11__tree_nodeIS6_PvEE
__ZNSt3__16__treeIN7gmscore4base10reffed_ptrINS1_8renderer8BehaviorEEENS_4lessIS6_EENS_9allocatorIS6_EEE16__insert_node_atEPNS_15__tree_end_nodeIPNS_16__tree_node_baseIPvEEEERSG_SG_
__ZNSt3__16__treeIN7gmscore4base10reffed_ptrINS1_8renderer8BehaviorEEENS_4lessIS6_EENS_9allocatorIS6_EEE21__remove_node_pointerEPNS_11__tree_nodeIS6_PvEE
__ZNSt3__16__treeIN7gmscore4base10reffed_ptrINS1_8renderer8BehaviorEEENS_4lessIS6_EENS_9allocatorIS6_EEE5eraseENS_21__tree_const_iteratorIS6_PNS_11__tree_nodeIS6_PvEElEE
__ZNSt3__16__treeIN7gmscore4base10reffed_ptrINS1_8renderer8BehaviorEEENS_4lessIS6_EENS_9allocatorIS6_EEE7destroyEPNS_11__tree_nodeIS6_PvEE
__ZNSt3__16__treeIN7gmscore4base10reffed_ptrINS1_8renderer8Camera3DEEENS_4lessIS6_EENS_9allocatorIS6_EEE16__insert_node_atEPNS_15__tree_end_nodeIPNS_16__tree_node_baseIPvEEEERSG_SG_
__ZNSt3__16__treeIN7gmscore4base10reffed_ptrINS1_8renderer8Camera3DEEENS_4lessIS6_EENS_9allocatorIS6_EEE7destroyEPNS_11__tree_nodeIS6_PvEE
__ZNSt3__16__treeIN9GMSx_absl11string_viewENS_4lessIS2_EENS_9allocatorIS2_EEE16__find_leaf_highERPNS_15__tree_end_nodeIPNS_16__tree_node_baseIPvEEEERKS2_
__ZNSt3__16__treeIN9GMSx_absl11string_viewENS_4lessIS2_EENS_9allocatorIS2_EEE16__insert_node_atEPNS_15__tree_end_nodeIPNS_16__tree_node_baseIPvEEEERSC_SC_
__ZNSt3__16__treeIN9GMSx_absl11string_viewENS_4lessIS2_EENS_9allocatorIS2_EEE18_DetachedTreeCache13__detach_nextEPNS_11__tree_nodeIS2_PvEE
__ZNSt3__16__treeIN9GMSx_absl11string_viewENS_4lessIS2_EENS_9allocatorIS2_EEE18_DetachedTreeCacheD2B8ue170006Ev
__ZNSt3__16__treeIN9GMSx_absl11string_viewENS_4lessIS2_EENS_9allocatorIS2_EEE21__remove_node_pointerEPNS_11__tree_nodeIS2_PvEE
__ZNSt3__16__treeIN9GMSx_absl11string_viewENS_4lessIS2_EENS_9allocatorIS2_EEE7destroyEPNS_11__tree_nodeIS2_PvEE
__ZNSt3__16__treeIN9GMSx_absl7uint128ENS_4lessIS2_EENS_9allocatorIS2_EEE16__insert_node_atEPNS_15__tree_end_nodeIPNS_16__tree_node_baseIPvEEEERSC_SC_
__ZNSt3__16__treeIN9GMSx_absl7uint128ENS_4lessIS2_EENS_9allocatorIS2_EEE7destroyEPNS_11__tree_nodeIS2_PvEE
__ZNSt3__16__treeINS_10shared_ptrIN7gmscore6vector11RenderLabelEEENS_4lessIS5_EENS_9allocatorIS5_EEE16__insert_node_atEPNS_15__tree_end_nodeIPNS_16__tree_node_baseIPvEEEERSF_SF_
__ZNSt3__16__treeINS_10shared_ptrIN7gmscore6vector11RenderLabelEEENS_4lessIS5_EENS_9allocatorIS5_EEE21__remove_node_pointerEPNS_11__tree_nodeIS5_PvEE
__ZNSt3__16__treeINS_10shared_ptrIN7gmscore6vector11RenderLabelEEENS_4lessIS5_EENS_9allocatorIS5_EEE5eraseENS_21__tree_const_iteratorIS5_PNS_11__tree_nodeIS5_PvEElEE
__ZNSt3__16__treeINS_10shared_ptrIN7gmscore6vector11RenderLabelEEENS_4lessIS5_EENS_9allocatorIS5_EEE7destroyEPNS_11__tree_nodeIS5_PvEE
__ZNSt3__16__treeINS_10shared_ptrIN7gmscore6vector16LabelableFeatureEEENS_4lessIS5_EENS_9allocatorIS5_EEE16__insert_node_atEPNS_15__tree_end_nodeIPNS_16__tree_node_baseIPvEEEERSF_SF_
__ZNSt3__16__treeINS_10shared_ptrIN7gmscore6vector16LabelableFeatureEEENS_4lessIS5_EENS_9allocatorIS5_EEE21__remove_node_pointerEPNS_11__tree_nodeIS5_PvEE
__ZNSt3__16__treeINS_10shared_ptrIN7gmscore6vector16LabelableFeatureEEENS_4lessIS5_EENS_9allocatorIS5_EEE5eraseENS_21__tree_const_iteratorIS5_PNS_11__tree_nodeIS5_PvEElEE
__ZNSt3__16__treeINS_10shared_ptrIN7gmscore6vector16LabelableFeatureEEENS_4lessIS5_EENS_9allocatorIS5_EEE7destroyEPNS_11__tree_nodeIS5_PvEE
__ZNSt3__16__treeINS_10shared_ptrIN7gmscore6vector16LabelableFeatureEEEPFbRKS5_S7_ENS_9allocatorIS5_EEE16__insert_node_atEPNS_15__tree_end_nodeIPNS_16__tree_node_baseIPvEEEERSH_SH_
__ZNSt3__16__treeINS_10shared_ptrIN7gmscore6vector16LabelableFeatureEEEPFbRKS5_S7_ENS_9allocatorIS5_EEE21__remove_node_pointerEPNS_11__tree_nodeIS5_PvEE
__ZNSt3__16__treeINS_10shared_ptrIN7gmscore6vector16LabelableFeatureEEEPFbRKS5_S7_ENS_9allocatorIS5_EEE5eraseENS_21__tree_const_iteratorIS5_PNS_11__tree_nodeIS5_PvEElEE
__ZNSt3__16__treeINS_10shared_ptrIN7gmscore6vector16LabelableFeatureEEEPFbRKS5_S7_ENS_9allocatorIS5_EEE7destroyEPNS_11__tree_nodeIS5_PvEE
__ZNSt3__16__treeINS_12__value_typeI19GMSModelFeatureTypeNS_21__tree_const_iteratorIU8__strongPU26objcproto15GMSModelFeature11objc_objectPNS_11__tree_nodeIS6_PvEElEEEENS_19__map_value_compareIS2_SC_NS_4lessIS2_EELb1EEENS_9allocatorISC_EEE16__insert_node_atEPNS_15__tree_end_nodeIPNS_16__tree_node_baseIS8_EEEERSN_SN_
__ZNSt3__16__treeINS_12__value_typeI19GMSModelFeatureTypeNS_21__tree_const_iteratorIU8__strongPU26objcproto15GMSModelFeature11objc_objectPNS_11__tree_nodeIS6_PvEElEEEENS_19__map_value_compareIS2_SC_NS_4lessIS2_EELb1EEENS_9allocatorISC_EEE7destroyEPNS7_ISC_S8_EE
__ZNSt3__16__treeINS_12__value_typeI9GMSPassIDNS_10unique_ptrIN7gmscore8renderer11MetalEntity8PassInfoENS_14default_deleteIS7_EEEEEENS_19__map_value_compareIS2_SB_NS_4lessIS2_EELb1EEENS_9allocatorISB_EEE16__insert_node_atEPNS_15__tree_end_nodeIPNS_16__tree_node_baseIPvEEEERSN_SN_
__ZNSt3__16__treeINS_12__value_typeI9GMSPassIDNS_10unique_ptrIN7gmscore8renderer11MetalEntity8PassInfoENS_14default_deleteIS7_EEEEEENS_19__map_value_compareIS2_SB_NS_4lessIS2_EELb1EEENS_9allocatorISB_EEE7destroyEPNS_11__tree_nodeISB_PvEE
__ZNSt3__16__treeINS_12__value_typeI9GMSPassIDNS_6vectorIN7gmscore4base10reffed_ptrINS4_6vector16GLBaseLabelBatchEEENS_9allocatorIS9_EEEEEENS_19__map_value_compareIS2_SD_NS_4lessIS2_EELb1EEENSA_ISD_EEE16__insert_node_atEPNS_15__tree_end_nodeIPNS_16__tree_node_baseIPvEEEERSO_SO_
__ZNSt3__16__treeINS_12__value_typeI9GMSPassIDNS_6vectorIN7gmscore4base10reffed_ptrINS4_6vector16GLBaseLabelBatchEEENS_9allocatorIS9_EEEEEENS_19__map_value_compareIS2_SD_NS_4lessIS2_EELb1EEENSA_ISD_EEE7destroyEPNS_11__tree_nodeISD_PvEE
__ZNSt3__16__treeINS_12__value_typeI9GMSPassIDPN7gmscore8renderer8GLEntity8PassInfoEEENS_19__map_value_compareIS2_S8_NS_4lessIS2_EELb1EEENS_9allocatorIS8_EEE16__insert_node_atEPNS_15__tree_end_nodeIPNS_16__tree_node_baseIPvEEEERSK_SK_
__ZNSt3__16__treeINS_12__value_typeI9GMSPassIDPN7gmscore8renderer8GLEntity8PassInfoEEENS_19__map_value_compareIS2_S8_NS_4lessIS2_EELb1EEENS_9allocatorIS8_EEE7destroyEPNS_11__tree_nodeIS8_PvEE
__ZNSt3__16__treeINS_12__value_typeI9GMSPassIDPN7gmscore8renderer9RenderBinEEENS_19__map_value_compareIS2_S7_NS_4lessIS2_EELb1EEENS_9allocatorIS7_EEE16__insert_node_atEPNS_15__tree_end_nodeIPNS_16__tree_node_baseIPvEEEERSJ_SJ_
__ZNSt3__16__treeINS_12__value_typeI9GMSPassIDPN7gmscore8renderer9RenderBinEEENS_19__map_value_compareIS2_S7_NS_4lessIS2_EELb1EEENS_9allocatorIS7_EEE7destroyEPNS_11__tree_nodeIS7_PvEE
__ZNSt3__16__treeINS_12__value_typeIN23GMSx_geo_imagery_viewer3api7PhotoIdENS_10unique_ptrINS2_4core12PendingPhotoENS_14default_deleteIS7_EEEEEENS_19__map_value_compareIS4_SB_NS_4lessIS4_EELb1EEENS_9allocatorISB_EEE16__insert_node_atEPNS_15__tree_end_nodeIPNS_16__tree_node_baseIPvEEEERSN_SN_
__ZNSt3__16__treeINS_12__value_typeIN23GMSx_geo_imagery_viewer3api7PhotoIdENS_10unique_ptrINS2_4core12PendingPhotoENS_14default_deleteIS7_EEEEEENS_19__map_value_compareIS4_SB_NS_4lessIS4_EELb1EEENS_9allocatorISB_EEE21__remove_node_pointerEPNS_11__tree_nodeISB_PvEE
__ZNSt3__16__treeINS_12__value_typeIN23GMSx_geo_imagery_viewer3api7PhotoIdENS_10unique_ptrINS2_4core12PendingPhotoENS_14default_deleteIS7_EEEEEENS_19__map_value_compareIS4_SB_NS_4lessIS4_EELb1EEENS_9allocatorISB_EEE5eraseENS_21__tree_const_iteratorISB_PNS_11__tree_nodeISB_PvEElEE
__ZNSt3__16__treeINS_12__value_typeIN23GMSx_geo_imagery_viewer3api7PhotoIdENS_10unique_ptrINS2_4core12PendingPhotoENS_14default_deleteIS7_EEEEEENS_19__map_value_compareIS4_SB_NS_4lessIS4_EELb1EEENS_9allocatorISB_EEE7destroyEPNS_11__tree_nodeISB_PvEE
__ZNSt3__16__treeINS_12__value_typeIN23GMSx_geo_imagery_viewer3api7PhotoIdENS_15__list_iteratorINS_4pairIS4_NS_10shared_ptrINS2_4core5PhotoEEEEEPvEEEENS_19__map_value_compareIS4_SE_NS_4lessIS4_EELb1EEENS_9allocatorISE_EEE16__insert_node_atEPNS_15__tree_end_nodeIPNS_16__tree_node_baseISC_EEEERSP_SP_
__ZNSt3__16__treeINS_12__value_typeIN23GMSx_geo_imagery_viewer3api7PhotoIdENS_15__list_iteratorINS_4pairIS4_NS_10shared_ptrINS2_4core5PhotoEEEEEPvEEEENS_19__map_value_compareIS4_SE_NS_4lessIS4_EELb1EEENS_9allocatorISE_EEE21__remove_node_pointerEPNS_11__tree_nodeISE_SC_EE
__ZNSt3__16__treeINS_12__value_typeIN23GMSx_geo_imagery_viewer3api7PhotoIdENS_15__list_iteratorINS_4pairIS4_NS_10shared_ptrINS2_4core5PhotoEEEEEPvEEEENS_19__map_value_compareIS4_SE_NS_4lessIS4_EELb1EEENS_9allocatorISE_EEE5eraseENS_21__tree_const_iteratorISE_PNS_11__tree_nodeISE_SC_EElEE
__ZNSt3__16__treeINS_12__value_typeIN23GMSx_geo_imagery_viewer3api7PhotoIdENS_15__list_iteratorINS_4pairIS4_NS_10shared_ptrINS2_4core5PhotoEEEEEPvEEEENS_19__map_value_compareIS4_SE_NS_4lessIS4_EELb1EEENS_9allocatorISE_EEE7destroyEPNS_11__tree_nodeISE_SC_EE
__ZNSt3__16__treeINS_12__value_typeIN23GMSx_geo_imagery_viewer3api7PhotoIdEiEENS_19__map_value_compareIS4_S5_NS_4lessIS4_EELb1EEENS_9allocatorIS5_EEE16__insert_node_atEPNS_15__tree_end_nodeIPNS_16__tree_node_baseIPvEEEERSH_SH_
__ZNSt3__16__treeINS_12__value_typeIN23GMSx_geo_imagery_viewer3api7PhotoIdEiEENS_19__map_value_compareIS4_S5_NS_4lessIS4_EELb1EEENS_9allocatorIS5_EEE7destroyEPNS_11__tree_nodeIS5_PvEE
__ZNSt3__16__treeINS_12__value_typeIN23GMSx_geo_imagery_viewer4core12TileCacheKeyENS_15__list_iteratorINS_4pairIS4_NS_10unique_ptrINS2_4pano4TileENS_14default_deleteIS9_EEEEEEPvEEEENS_19__map_value_compareIS4_SG_NS_4lessIS4_EELb1EEENS_9allocatorISG_EEE16__insert_node_atEPNS_15__tree_end_nodeIPNS_16__tree_node_baseISE_EEEERSR_SR_
__ZNSt3__16__treeINS_12__value_typeIN23GMSx_geo_imagery_viewer4core12TileCacheKeyENS_15__list_iteratorINS_4pairIS4_NS_10unique_ptrINS2_4pano4TileENS_14default_deleteIS9_EEEEEEPvEEEENS_19__map_value_compareIS4_SG_NS_4lessIS4_EELb1EEENS_9allocatorISG_EEE21__remove_node_pointerEPNS_11__tree_nodeISG_SE_EE
__ZNSt3__16__treeINS_12__value_typeIN23GMSx_geo_imagery_viewer4core12TileCacheKeyENS_15__list_iteratorINS_4pairIS4_NS_10unique_ptrINS2_4pano4TileENS_14default_deleteIS9_EEEEEEPvEEEENS_19__map_value_compareIS4_SG_NS_4lessIS4_EELb1EEENS_9allocatorISG_EEE5eraseENS_21__tree_const_iteratorISG_PNS_11__tree_nodeISG_SE_EElEE
__ZNSt3__16__treeINS_12__value_typeIN23GMSx_geo_imagery_viewer4core12TileCacheKeyENS_15__list_iteratorINS_4pairIS4_NS_10unique_ptrINS2_4pano4TileENS_14default_deleteIS9_EEEEEEPvEEEENS_19__map_value_compareIS4_SG_NS_4lessIS4_EELb1EEENS_9allocatorISG_EEE7destroyEPNS_11__tree_nodeISG_SE_EE
__ZNSt3__16__treeINS_12__value_typeIN7gmscore4base10reffed_ptrINS2_8renderer10BaseEntityEEENS_5tupleIJjmjS7_EEEEENS_19__map_value_compareIS7_SA_NS_4lessIS7_EELb1EEENS_9allocatorISA_EEE16__insert_node_atEPNS_15__tree_end_nodeIPNS_16__tree_node_baseIPvEEEERSM_SM_
__ZNSt3__16__treeINS_12__value_typeIN7gmscore4base10reffed_ptrINS2_8renderer10BaseEntityEEENS_5tupleIJjmjS7_EEEEENS_19__map_value_compareIS7_SA_NS_4lessIS7_EELb1EEENS_9allocatorISA_EEE21__remove_node_pointerEPNS_11__tree_nodeISA_PvEE
__ZNSt3__16__treeINS_12__value_typeIN7gmscore4base10reffed_ptrINS2_8renderer10BaseEntityEEENS_5tupleIJjmjS7_EEEEENS_19__map_value_compareIS7_SA_NS_4lessIS7_EELb1EEENS_9allocatorISA_EEE5eraseENS_21__tree_const_iteratorISA_PNS_11__tree_nodeISA_PvEElEE
__ZNSt3__16__treeINS_12__value_typeIN7gmscore4base10reffed_ptrINS2_8renderer10BaseEntityEEENS_5tupleIJjmjS7_EEEEENS_19__map_value_compareIS7_SA_NS_4lessIS7_EELb1EEENS_9allocatorISA_EEE7destroyEPNS_11__tree_nodeISA_PvEE
__ZNSt3__16__treeINS_12__value_typeIN7gmscore6vector12DashGroupKeyENS2_4base10reffed_ptrINS3_17GMSStippleTextureEEEEENS_19__map_value_compareIS4_S9_NS_4lessIS4_EELb1EEENS_9allocatorIS9_EEE16__insert_node_atEPNS_15__tree_end_nodeIPNS_16__tree_node_baseIPvEEEERSL_SL_
__ZNSt3__16__treeINS_12__value_typeIN7gmscore6vector12DashGroupKeyENS2_4base10reffed_ptrINS3_17GMSStippleTextureEEEEENS_19__map_value_compareIS4_S9_NS_4lessIS4_EELb1EEENS_9allocatorIS9_EEE7destroyEPNS_11__tree_nodeIS9_PvEE
__ZNSt3__16__treeINS_12__value_typeIN7gmscore6vector12DashGroupKeyENS_10shared_ptrINS3_16MetalDashTextureEEEEENS_19__map_value_compareIS4_S8_NS_4lessIS4_EELb1EEENS_9allocatorIS8_EEE16__insert_node_atEPNS_15__tree_end_nodeIPNS_16__tree_node_baseIPvEEEERSK_SK_
__ZNSt3__16__treeINS_12__value_typeIN7gmscore6vector12DashGroupKeyENS_10shared_ptrINS3_16MetalDashTextureEEEEENS_19__map_value_compareIS4_S8_NS_4lessIS4_EELb1EEENS_9allocatorIS8_EEE7destroyEPNS_11__tree_nodeIS8_PvEE
__ZNSt3__16__treeINS_12__value_typeIN7gmscore6vector19PlaneGradeZOrderingENS2_4base8STLRangeIKNS_8multisetIU8__strongP15GMSPointFeatureNS_8functionIFbS9_S9_EEENS_9allocatorISA_EEEEEEEENS_19__map_value_compareIS4_SJ_NS_4lessIS4_EELb1EEENSE_ISJ_EEE16__insert_node_atEPNS_15__tree_end_nodeIPNS_16__tree_node_baseIPvEEEERSU_SU_
__ZNSt3__16__treeINS_12__value_typeIN7gmscore6vector19PlaneGradeZOrderingENS2_4base8STLRangeIKNS_8multisetIU8__strongP15GMSPointFeatureNS_8functionIFbS9_S9_EEENS_9allocatorISA_EEEEEEEENS_19__map_value_compareIS4_SJ_NS_4lessIS4_EELb1EEENSE_ISJ_EEE7destroyEPNS_11__tree_nodeISJ_PvEE
__ZNSt3__16__treeINS_12__value_typeIN7gmscore6vector19PlaneGradeZOrderingENS2_4base8STLRangeIKNS_8multisetIU8__strongP7GMSAreaNS_8functionIFbS9_S9_EEENS_9allocatorISA_EEEEEEEENS_19__map_value_compareIS4_SJ_NS_4lessIS4_EELb1EEENSE_ISJ_EEE16__insert_node_atEPNS_15__tree_end_nodeIPNS_16__tree_node_baseIPvEEEERSU_SU_
__ZNSt3__16__treeINS_12__value_typeIN7gmscore6vector19PlaneGradeZOrderingENS2_4base8STLRangeIKNS_8multisetIU8__strongP7GMSAreaNS_8functionIFbS9_S9_EEENS_9allocatorISA_EEEEEEEENS_19__map_value_compareIS4_SJ_NS_4lessIS4_EELb1EEENSE_ISJ_EEE7destroyEPNS_11__tree_nodeISJ_PvEE
__ZNSt3__16__treeINS_12__value_typeIN7gmscore6vector19PlaneGradeZOrderingENS2_4base8STLRangeIKNS_8multisetIU8__strongP7GMSLineNS_8functionIFbS9_S9_EEENS_9allocatorISA_EEEEEEEENS_19__map_value_compareIS4_SJ_NS_4lessIS4_EELb1EEENSE_ISJ_EEE16__insert_node_atEPNS_15__tree_end_nodeIPNS_16__tree_node_baseIPvEEEERSU_SU_
__ZNSt3__16__treeINS_12__value_typeIN7gmscore6vector19PlaneGradeZOrderingENS2_4base8STLRangeIKNS_8multisetIU8__strongP7GMSLineNS_8functionIFbS9_S9_EEENS_9allocatorISA_EEEEEEEENS_19__map_value_compareIS4_SJ_NS_4lessIS4_EELb1EEENSE_ISJ_EEE7destroyEPNS_11__tree_nodeISJ_PvEE
__ZNSt3__16__treeINS_12__value_typeIN7gmscore6vector19PlaneGradeZOrderingENS2_4base8STLRangeIKNS_8multisetIU8__strongP9GMSRasterNS_8functionIFbS9_S9_EEENS_9allocatorISA_EEEEEEEENS_19__map_value_compareIS4_SJ_NS_4lessIS4_EELb1EEENSE_ISJ_EEE16__insert_node_atEPNS_15__tree_end_nodeIPNS_16__tree_node_baseIPvEEEERSU_SU_
__ZNSt3__16__treeINS_12__value_typeIN7gmscore6vector19PlaneGradeZOrderingENS2_4base8STLRangeIKNS_8multisetIU8__strongP9GMSRasterNS_8functionIFbS9_S9_EEENS_9allocatorISA_EEEEEEEENS_19__map_value_compareIS4_SJ_NS_4lessIS4_EELb1EEENSE_ISJ_EEE7destroyEPNS_11__tree_nodeISJ_PvEE
__ZNSt3__16__treeINS_12__value_typeIN7gmscore8renderer18ImageDataSignatureENS_6vectorIjNS_9allocatorIjEEEEEENS_19__map_value_compareIS4_S9_NS_4lessIS4_EELb1EEENS6_IS9_EEE16__insert_node_atEPNS_15__tree_end_nodeIPNS_16__tree_node_baseIPvEEEERSK_SK_
__ZNSt3__16__treeINS_12__value_typeIN7gmscore8renderer18ImageDataSignatureENS_6vectorIjNS_9allocatorIjEEEEEENS_19__map_value_compareIS4_S9_NS_4lessIS4_EELb1EEENS6_IS9_EEE21__remove_node_pointerEPNS_11__tree_nodeIS9_PvEE
__ZNSt3__16__treeINS_12__value_typeIN7gmscore8renderer18ImageDataSignatureENS_6vectorIjNS_9allocatorIjEEEEEENS_19__map_value_compareIS4_S9_NS_4lessIS4_EELb1EEENS6_IS9_EEE5eraseENS_21__tree_const_iteratorIS9_PNS_11__tree_nodeIS9_PvEElEE
__ZNSt3__16__treeINS_12__value_typeIN7gmscore8renderer18ImageDataSignatureENS_6vectorIjNS_9allocatorIjEEEEEENS_19__map_value_compareIS4_S9_NS_4lessIS4_EELb1EEENS6_IS9_EEE7destroyEPNS_11__tree_nodeIS9_PvEE
__ZNSt3__16__treeINS_12__value_typeIN9GMSx_absl11string_viewEN22GMSx_GoogleInitializer15InitializerDataEEENS_19__map_value_compareIS3_S6_NS_4lessIS3_EELb1EEENS_9allocatorIS6_EEE16__insert_node_atEPNS_15__tree_end_nodeIPNS_16__tree_node_baseIPvEEEERSI_SI_
__ZNSt3__16__treeINS_12__value_typeIN9GMSx_absl11string_viewENS_3mapINS_7variantIJxS3_EEEPKN11GMSx_proto213GMSx_internal16RealDebugCounterENS_4lessIS6_EENS_9allocatorINS_4pairIKS6_SB_EEEEEEEENS_19__map_value_compareIS3_SK_NSC_IS3_EELb1EEENSE_ISK_EEE16__insert_node_atEPNS_15__tree_end_nodeIPNS_16__tree_node_baseIPvEEEERSU_SU_
__ZNSt3__16__treeINS_12__value_typeIN9GMSx_absl11string_viewEPN22GMSx_GoogleInitializer8TypeDataEEENS_19__map_value_compareIS3_S7_NS_4lessIS3_EELb1EEENS_9allocatorIS7_EEE16__insert_node_atEPNS_15__tree_end_nodeIPNS_16__tree_node_baseIPvEEEERSJ_SJ_
__ZNSt3__16__treeINS_12__value_typeIN9GMSx_absl4TimeENS_10shared_ptrIN9GMSx_util14SimulatedClock10WakeUpInfoEEEEENS_19__map_value_compareIS3_S9_NS_4lessIS3_EELb1EEENS_9allocatorIS9_EEE16__find_leaf_highERPNS_15__tree_end_nodeIPNS_16__tree_node_baseIPvEEEERKS3_
__ZNSt3__16__treeINS_12__value_typeIN9GMSx_absl4TimeENS_10shared_ptrIN9GMSx_util14SimulatedClock10WakeUpInfoEEEEENS_19__map_value_compareIS3_S9_NS_4lessIS3_EELb1EEENS_9allocatorIS9_EEE16__insert_node_atEPNS_15__tree_end_nodeIPNS_16__tree_node_baseIPvEEEERSL_SL_
__ZNSt3__16__treeINS_12__value_typeIN9GMSx_absl4TimeENS_10shared_ptrIN9GMSx_util14SimulatedClock10WakeUpInfoEEEEENS_19__map_value_compareIS3_S9_NS_4lessIS3_EELb1EEENS_9allocatorIS9_EEE21__remove_node_pointerEPNS_11__tree_nodeIS9_PvEE
__ZNSt3__16__treeINS_12__value_typeIN9GMSx_absl4TimeENS_10shared_ptrIN9GMSx_util14SimulatedClock10WakeUpInfoEEEEENS_19__map_value_compareIS3_S9_NS_4lessIS3_EELb1EEENS_9allocatorIS9_EEE5eraseENS_21__tree_const_iteratorIS9_PNS_11__tree_nodeIS9_PvEElEE
__ZNSt3__16__treeINS_12__value_typeIN9GMSx_absl4TimeENS_10shared_ptrIN9GMSx_util14SimulatedClock10WakeUpInfoEEEEENS_19__map_value_compareIS3_S9_NS_4lessIS3_EELb1EEENS_9allocatorIS9_EEE7destroyEPNS_11__tree_nodeIS9_PvEE
__ZNSt3__16__treeINS_12__value_typeINS_10shared_ptrIN7gmscore6vector11RenderLabelEEENS3_4base10reffed_ptrINS4_20GLBaseLabelIconBatch11LabelRecordEEEEENS_19__map_value_compareIS6_SC_NS_4lessIS6_EELb1EEENS_9allocatorISC_EEE16__insert_node_atEPNS_15__tree_end_nodeIPNS_16__tree_node_baseIPvEEEERSO_SO_
__ZNSt3__16__treeINS_12__value_typeINS_10shared_ptrIN7gmscore6vector11RenderLabelEEENS3_4base10reffed_ptrINS4_20GLBaseLabelIconBatch11LabelRecordEEEEENS_19__map_value_compareIS6_SC_NS_4lessIS6_EELb1EEENS_9allocatorISC_EEE21__remove_node_pointerEPNS_11__tree_nodeISC_PvEE
__ZNSt3__16__treeINS_12__value_typeINS_10shared_ptrIN7gmscore6vector11RenderLabelEEENS3_4base10reffed_ptrINS4_20GLBaseLabelIconBatch11LabelRecordEEEEENS_19__map_value_compareIS6_SC_NS_4lessIS6_EELb1EEENS_9allocatorISC_EEE5eraseENS_21__tree_const_iteratorISC_PNS_11__tree_nodeISC_PvEElEE
__ZNSt3__16__treeINS_12__value_typeINS_10shared_ptrIN7gmscore6vector11RenderLabelEEENS3_4base10reffed_ptrINS4_20GLBaseLabelIconBatch11LabelRecordEEEEENS_19__map_value_compareIS6_SC_NS_4lessIS6_EELb1EEENS_9allocatorISC_EEE7destroyEPNS_11__tree_nodeISC_PvEE
__ZNSt3__16__treeINS_12__value_typeINS_10shared_ptrIN7gmscore6vector11RenderLabelEEENS4_16GLLabelTextBatch12LabelVersionEEENS_19__map_value_compareIS6_S9_NS_4lessIS6_EELb1EEENS_9allocatorIS9_EEE16__insert_node_atEPNS_15__tree_end_nodeIPNS_16__tree_node_baseIPvEEEERSL_SL_
__ZNSt3__16__treeINS_12__value_typeINS_10shared_ptrIN7gmscore6vector11RenderLabelEEENS4_16GLLabelTextBatch12LabelVersionEEENS_19__map_value_compareIS6_S9_NS_4lessIS6_EELb1EEENS_9allocatorIS9_EEE21__remove_node_pointerEPNS_11__tree_nodeIS9_PvEE
__ZNSt3__16__treeINS_12__value_typeINS_10shared_ptrIN7gmscore6vector11RenderLabelEEENS4_16GLLabelTextBatch12LabelVersionEEENS_19__map_value_compareIS6_S9_NS_4lessIS6_EELb1EEENS_9allocatorIS9_EEE5eraseENS_21__tree_const_iteratorIS9_PNS_11__tree_nodeIS9_PvEElEE
__ZNSt3__16__treeINS_12__value_typeINS_10shared_ptrIN7gmscore6vector11RenderLabelEEENS4_16GLLabelTextBatch12LabelVersionEEENS_19__map_value_compareIS6_S9_NS_4lessIS6_EELb1EEENS_9allocatorIS9_EEE7destroyEPNS_11__tree_nodeIS9_PvEE
__ZNSt3__16__treeINS_12__value_typeINS_12basic_stringIcNS_11char_traitsIcEENS_9allocatorIcEEEEN13GMSx_tcmalloc15MallocExtension8PropertyEEENS_19__map_value_compareIS7_SB_NS_4lessIS7_EELb1EEENS5_ISB_EEE7destroyEPNS_11__tree_nodeISB_PvEE
__ZNSt3__16__treeINS_12__value_typeINS_12basic_stringIcNS_11char_traitsIcEENS_9allocatorIcEEEEN23GMSx_geo_imagery_viewer5swipe21AreaConnectivityGraph9AreaEntryEEENS_19__map_value_compareIS7_SC_NS_4lessIS7_EELb1EEENS5_ISC_EEE16__insert_node_atEPNS_15__tree_end_nodeIPNS_16__tree_node_baseIPvEEEERSN_SN_
__ZNSt3__16__treeINS_12__value_typeINS_12basic_stringIcNS_11char_traitsIcEENS_9allocatorIcEEEEN23GMSx_geo_imagery_viewer5swipe21AreaConnectivityGraph9AreaEntryEEENS_19__map_value_compareIS7_SC_NS_4lessIS7_EELb1EEENS5_ISC_EEE21__remove_node_pointerEPNS_11__tree_nodeISC_PvEE
__ZNSt3__16__treeINS_12__value_typeINS_12basic_stringIcNS_11char_traitsIcEENS_9allocatorIcEEEEN23GMSx_geo_imagery_viewer5swipe21AreaConnectivityGraph9AreaEntryEEENS_19__map_value_compareIS7_SC_NS_4lessIS7_EELb1EEENS5_ISC_EEE5eraseENS_21__tree_const_iteratorISC_PNS_11__tree_nodeISC_PvEElEE
__ZNSt3__16__treeINS_12__value_typeINS_12basic_stringIcNS_11char_traitsIcEENS_9allocatorIcEEEEN23GMSx_geo_imagery_viewer5swipe21AreaConnectivityGraph9AreaEntryEEENS_19__map_value_compareIS7_SC_NS_4lessIS7_EELb1EEENS5_ISC_EEE7destroyEPNS_11__tree_nodeISC_PvEE
__ZNSt3__16__treeINS_12__value_typeINS_12basic_stringIcNS_11char_traitsIcEENS_9allocatorIcEEEEN7gmscore4base10reffed_ptrINS8_6vector18GLTextureAtlasIconEEEEENS_19__map_value_compareIS7_SE_NS_4lessIS7_EELb1EEENS5_ISE_EEE16__insert_node_atEPNS_15__tree_end_nodeIPNS_16__tree_node_baseIPvEEEERSP_SP_
__ZNSt3__16__treeINS_12__value_typeINS_12basic_stringIcNS_11char_traitsIcEENS_9allocatorIcEEEEN7gmscore4base10reffed_ptrINS8_6vector18GLTextureAtlasIconEEEEENS_19__map_value_compareIS7_SE_NS_4lessIS7_EELb1EEENS5_ISE_EEE21__remove_node_pointerEPNS_11__tree_nodeISE_PvEE
__ZNSt3__16__treeINS_12__value_typeINS_12basic_stringIcNS_11char_traitsIcEENS_9allocatorIcEEEEN7gmscore4base10reffed_ptrINS8_6vector18GLTextureAtlasIconEEEEENS_19__map_value_compareIS7_SE_NS_4lessIS7_EELb1EEENS5_ISE_EEE5eraseENS_21__tree_const_iteratorISE_PNS_11__tree_nodeISE_PvEElEE
__ZNSt3__16__treeINS_12__value_typeINS_12basic_stringIcNS_11char_traitsIcEENS_9allocatorIcEEEEN7gmscore4base10reffed_ptrINS8_6vector18GLTextureAtlasIconEEEEENS_19__map_value_compareIS7_SE_NS_4lessIS7_EELb1EEENS5_ISE_EEE7destroyEPNS_11__tree_nodeISE_PvEE
__ZNSt3__16__treeINS_12__value_typeINS_12basic_stringIcNS_11char_traitsIcEENS_9allocatorIcEEEEN7gmscore4base10reffed_ptrINS8_8renderer13ShaderProgramEEEEENS_19__map_value_compareIS7_SE_NS_4lessIS7_EELb1EEENS5_ISE_EEE16__insert_node_atEPNS_15__tree_end_nodeIPNS_16__tree_node_baseIPvEEEERSP_SP_
__ZNSt3__16__treeINS_12__value_typeINS_12basic_stringIcNS_11char_traitsIcEENS_9allocatorIcEEEEN7gmscore4base10reffed_ptrINS8_8renderer13ShaderProgramEEEEENS_19__map_value_compareIS7_SE_NS_4lessIS7_EELb1EEENS5_ISE_EEE7destroyEPNS_11__tree_nodeISE_PvEE
__ZNSt3__16__treeINS_12__value_typeINS_12basic_stringIcNS_11char_traitsIcEENS_9allocatorIcEEEENS_10shared_ptrIN12GMSx_NSSInfoI5groupS7_PKcL_Z10getgrnam_rEE8CacheRecEEEEENS_19__map_value_compareIS7_SG_NS_4lessIS7_EELb1EEENS5_ISG_EEE16__insert_node_atEPNS_15__tree_end_nodeIPNS_16__tree_node_baseIPvEEEERSR_SR_
__ZNSt3__16__treeINS_12__value_typeINS_12basic_stringIcNS_11char_traitsIcEENS_9allocatorIcEEEENS_10shared_ptrIN12GMSx_NSSInfoI5groupS7_PKcL_Z10getgrnam_rEE8CacheRecEEEEENS_19__map_value_compareIS7_SG_NS_4lessIS7_EELb1EEENS5_ISG_EEE21__remove_node_pointerEPNS_11__tree_nodeISG_PvEE
__ZNSt3__16__treeINS_12__value_typeINS_12basic_stringIcNS_11char_traitsIcEENS_9allocatorIcEEEENS_10shared_ptrIN12GMSx_NSSInfoI5groupS7_PKcL_Z10getgrnam_rEE8CacheRecEEEEENS_19__map_value_compareIS7_SG_NS_4lessIS7_EELb1EEENS5_ISG_EEE5eraseENS_21__tree_const_iteratorISG_PNS_11__tree_nodeISG_PvEElEE
__ZNSt3__16__treeINS_12__value_typeINS_12basic_stringIcNS_11char_traitsIcEENS_9allocatorIcEEEENS_10shared_ptrIN12GMSx_NSSInfoI6passwdS7_PKcL_Z10getpwnam_rEE8CacheRecEEEEENS_19__map_value_compareIS7_SG_NS_4lessIS7_EELb1EEENS5_ISG_EEE16__insert_node_atEPNS_15__tree_end_nodeIPNS_16__tree_node_baseIPvEEEERSR_SR_
__ZNSt3__16__treeINS_12__value_typeINS_12basic_stringIcNS_11char_traitsIcEENS_9allocatorIcEEEENS_10shared_ptrIN12GMSx_NSSInfoI6passwdS7_PKcL_Z10getpwnam_rEE8CacheRecEEEEENS_19__map_value_compareIS7_SG_NS_4lessIS7_EELb1EEENS5_ISG_EEE21__remove_node_pointerEPNS_11__tree_nodeISG_PvEE
__ZNSt3__16__treeINS_12__value_typeINS_12basic_stringIcNS_11char_traitsIcEENS_9allocatorIcEEEENS_10shared_ptrIN12GMSx_NSSInfoI6passwdS7_PKcL_Z10getpwnam_rEE8CacheRecEEEEENS_19__map_value_compareIS7_SG_NS_4lessIS7_EELb1EEENS5_ISG_EEE5eraseENS_21__tree_const_iteratorISG_PNS_11__tree_nodeISG_PvEElEE
__ZNSt3__16__treeINS_12__value_typeINS_12basic_stringIcNS_11char_traitsIcEENS_9allocatorIcEEEENS_3mapIS7_NS_6vectorIPKN9GMSx_absl15CommandLineFlagENS5_ISD_EEEENS_4lessIS7_EENS5_INS_4pairIKS7_SF_EEEEEEEENS_19__map_value_compareIS7_SN_SH_Lb1EEENS5_ISN_EEE16__insert_node_atEPNS_15__tree_end_nodeIPNS_16__tree_node_baseIPvEEEERSW_SW_
__ZNSt3__16__treeINS_12__value_typeINS_12basic_stringIcNS_11char_traitsIcEENS_9allocatorIcEEEENS_3mapIS7_NS_6vectorIPKN9GMSx_absl15CommandLineFlagENS5_ISD_EEEENS_4lessIS7_EENS5_INS_4pairIKS7_SF_EEEEEEEENS_19__map_value_compareIS7_SN_SH_Lb1EEENS5_ISN_EEE7destroyEPNS_11__tree_nodeISN_PvEE
__ZNSt3__16__treeINS_12__value_typeINS_12basic_stringIcNS_11char_traitsIcEENS_9allocatorIcEEEENS_6vectorIPKN9GMSx_absl15CommandLineFlagENS5_ISC_EEEEEENS_19__map_value_compareIS7_SF_NS_4lessIS7_EELb1EEENS5_ISF_EEE16__insert_node_atEPNS_15__tree_end_nodeIPNS_16__tree_node_baseIPvEEEERSQ_SQ_
__ZNSt3__16__treeINS_12__value_typeINS_12basic_stringIcNS_11char_traitsIcEENS_9allocatorIcEEEENS_6vectorIPKN9GMSx_absl15CommandLineFlagENS5_ISC_EEEEEENS_19__map_value_compareIS7_SF_NS_4lessIS7_EELb1EEENS5_ISF_EEE7destroyEPNS_11__tree_nodeISF_PvEE
__ZNSt3__16__treeINS_12__value_typeINS_12basic_stringIcNS_11char_traitsIcEENS_9allocatorIcEEEENS_8weak_ptrIN20GMSRocketIconService6HolderEEEEENS_19__map_value_compareIS7_SC_NS_4lessIS7_EELb1EEENS5_ISC_EEE16__insert_node_atEPNS_15__tree_end_nodeIPNS_16__tree_node_baseIPvEEEERSN_SN_
__ZNSt3__16__treeINS_12__value_typeINS_12basic_stringIcNS_11char_traitsIcEENS_9allocatorIcEEEENS_8weak_ptrIN20GMSRocketIconService6HolderEEEEENS_19__map_value_compareIS7_SC_NS_4lessIS7_EELb1EEENS5_ISC_EEE21__remove_node_pointerEPNS_11__tree_nodeISC_PvEE
__ZNSt3__16__treeINS_12__value_typeINS_12basic_stringIcNS_11char_traitsIcEENS_9allocatorIcEEEENS_8weak_ptrIN20GMSRocketIconService6HolderEEEEENS_19__map_value_compareIS7_SC_NS_4lessIS7_EELb1EEENS5_ISC_EEE5eraseENS_21__tree_const_iteratorISC_PNS_11__tree_nodeISC_PvEElEE
__ZNSt3__16__treeINS_12__value_typeINS_12basic_stringIcNS_11char_traitsIcEENS_9allocatorIcEEEENS_8weak_ptrIN20GMSRocketIconService6HolderEEEEENS_19__map_value_compareIS7_SC_NS_4lessIS7_EELb1EEENS5_ISC_EEE7destroyEPNS_11__tree_nodeISC_PvEE
__ZNSt3__16__treeINS_12__value_typeINS_12basic_stringIcNS_11char_traitsIcEENS_9allocatorIcEEEES7_EENS_19__map_value_compareIS7_S8_NS_4lessIS7_EELb1EEENS5_IS8_EEE16__insert_node_atEPNS_15__tree_end_nodeIPNS_16__tree_node_baseIPvEEEERSJ_SJ_
__ZNSt3__16__treeINS_12__value_typeINS_12basic_stringIcNS_11char_traitsIcEENS_9allocatorIcEEEES7_EENS_19__map_value_compareIS7_S8_NS_4lessIS7_EELb1EEENS5_IS8_EEE7destroyEPNS_11__tree_nodeIS8_PvEE
__ZNSt3__16__treeINS_12__value_typeINS_12basic_stringIcNS_11char_traitsIcEENS_9allocatorIcEEEEiEENS_19__map_value_compareIS7_S8_NS_4lessIS7_EELb1EEENS5_IS8_EEE16__insert_node_atEPNS_15__tree_end_nodeIPNS_16__tree_node_baseIPvEEEERSJ_SJ_
__ZNSt3__16__treeINS_12__value_typeINS_12basic_stringIcNS_11char_traitsIcEENS_9allocatorIcEEEEiEENS_19__map_value_compareIS7_S8_NS_4lessIS7_EELb1EEENS5_IS8_EEE7destroyEPNS_11__tree_nodeIS8_PvEE
__ZNSt3__16__treeINS_12__value_typeINS_4pairINS_12basic_stringIcNS_11char_traitsIcEENS_9allocatorIcEEEEiEEN7gmscore4base10reffed_ptrINSA_6vector24GMSGeneratedTextureAtlasEEEEENS_19__map_value_compareIS9_SG_NS_4lessIS9_EELb1EEENS6_ISG_EEE16__insert_node_atEPNS_15__tree_end_nodeIPNS_16__tree_node_baseIPvEEEERSR_SR_
__ZNSt3__16__treeINS_12__value_typeINS_4pairINS_12basic_stringIcNS_11char_traitsIcEENS_9allocatorIcEEEEiEEN7gmscore4base10reffed_ptrINSA_6vector24GMSGeneratedTextureAtlasEEEEENS_19__map_value_compareIS9_SG_NS_4lessIS9_EELb1EEENS6_ISG_EEE7destroyEPNS_11__tree_nodeISG_PvEE
__ZNSt3__16__treeINS_12__value_typeINS_7variantIJxN9GMSx_absl11string_viewEEEEPKN11GMSx_proto213GMSx_internal16RealDebugCounterEEENS_19__map_value_compareIS5_SB_NS_4lessIS5_EELb1EEENS_9allocatorISB_EEE16__insert_node_atEPNS_15__tree_end_nodeIPNS_16__tree_node_baseIPvEEEERSN_SN_
__ZNSt3__16__treeINS_12__value_typeIP7CGImagePN7gmscore6vector16UserTextureCache8UserIconEEENS_19__map_value_compareIS3_S9_NS_4lessIS3_EELb1EEENS_9allocatorIS9_EEE16__insert_node_atEPNS_15__tree_end_nodeIPNS_16__tree_node_baseIPvEEEERSL_SL_
__ZNSt3__16__treeINS_12__value_typeIP7CGImagePN7gmscore6vector16UserTextureCache8UserIconEEENS_19__map_value_compareIS3_S9_NS_4lessIS3_EELb1EEENS_9allocatorIS9_EEE21__remove_node_pointerEPNS_11__tree_nodeIS9_PvEE
__ZNSt3__16__treeINS_12__value_typeIP7CGImagePN7gmscore6vector16UserTextureCache8UserIconEEENS_19__map_value_compareIS3_S9_NS_4lessIS3_EELb1EEENS_9allocatorIS9_EEE7destroyEPNS_11__tree_nodeIS9_PvEE
__ZNSt3__16__treeINS_12__value_typeIPKN7gmscore5model14GLUTessellator8Vector3dEmEENS_19__map_value_compareIS7_S8_NS_4lessIS7_EELb1EEENS_9allocatorIS8_EEE16__insert_node_atEPNS_15__tree_end_nodeIPNS_16__tree_node_baseIPvEEEERSK_SK_
__ZNSt3__16__treeINS_12__value_typeIPKN7gmscore5model14GLUTessellator8Vector3dEmEENS_19__map_value_compareIS7_S8_NS_4lessIS7_EELb1EEENS_9allocatorIS8_EEE7destroyEPNS_11__tree_nodeIS8_PvEE
__ZNSt3__16__treeINS_12__value_typeIPKvN7gmscore4base10reffed_ptrINS4_6vector21SameTextureGlyphBatchEEEEENS_19__map_value_compareIS3_SA_NS_4lessIS3_EELb1EEENS_9allocatorISA_EEE16__insert_node_atEPNS_15__tree_end_nodeIPNS_16__tree_node_baseIPvEEEERSM_SM_
__ZNSt3__16__treeINS_12__value_typeIPKvN7gmscore4base10reffed_ptrINS4_6vector21SameTextureGlyphBatchEEEEENS_19__map_value_compareIS3_SA_NS_4lessIS3_EELb1EEENS_9allocatorISA_EEE21__remove_node_pointerEPNS_11__tree_nodeISA_PvEE
__ZNSt3__16__treeINS_12__value_typeIPKvN7gmscore4base10reffed_ptrINS4_6vector21SameTextureGlyphBatchEEEEENS_19__map_value_compareIS3_SA_NS_4lessIS3_EELb1EEENS_9allocatorISA_EEE5eraseENS_21__tree_const_iteratorISA_PNS_11__tree_nodeISA_PvEElEE
__ZNSt3__16__treeINS_12__value_typeIPKvN7gmscore4base10reffed_ptrINS4_6vector21SameTextureGlyphBatchEEEEENS_19__map_value_compareIS3_SA_NS_4lessIS3_EELb1EEENS_9allocatorISA_EEE7destroyEPNS_11__tree_nodeISA_PvEE
__ZNSt3__16__treeINS_12__value_typeIPKvPN7gmscore6vector4text20RenderableGlyphGroupEEENS_19__map_value_compareIS3_S9_NS_4lessIS3_EELb1EEENS_9allocatorIS9_EEE16__insert_node_atEPNS_15__tree_end_nodeIPNS_16__tree_node_baseIPvEEEERSL_SL_
__ZNSt3__16__treeINS_12__value_typeIPKvPN7gmscore6vector4text20RenderableGlyphGroupEEENS_19__map_value_compareIS3_S9_NS_4lessIS3_EELb1EEENS_9allocatorIS9_EEE7destroyEPNS_11__tree_nodeIS9_PvEE
__ZNSt3__16__treeINS_12__value_typeIPKvmEENS_19__map_value_compareIS3_S4_NS_4lessIS3_EELb1EEENS_9allocatorIS4_EEE16__insert_node_atEPNS_15__tree_end_nodeIPNS_16__tree_node_baseIPvEEEERSG_SG_
__ZNSt3__16__treeINS_12__value_typeIPKvmEENS_19__map_value_compareIS3_S4_NS_4lessIS3_EELb1EEENS_9allocatorIS4_EEE7destroyEPNS_11__tree_nodeIS4_PvEE
__ZNSt3__16__treeINS_12__value_typeIPN7gmscore6vector6SpriteEiEENS_19__map_value_compareIS5_S6_NS_4lessIS5_EELb1EEENS_9allocatorIS6_EEE16__insert_node_atEPNS_15__tree_end_nodeIPNS_16__tree_node_baseIPvEEEERSI_SI_
__ZNSt3__16__treeINS_12__value_typeIPN7gmscore6vector6SpriteEiEENS_19__map_value_compareIS5_S6_NS_4lessIS5_EELb1EEENS_9allocatorIS6_EEE21__remove_node_pointerEPNS_11__tree_nodeIS6_PvEE
__ZNSt3__16__treeINS_12__value_typeIPN7gmscore6vector6SpriteEiEENS_19__map_value_compareIS5_S6_NS_4lessIS5_EELb1EEENS_9allocatorIS6_EEE7destroyEPNS_11__tree_nodeIS6_PvEE
__ZNSt3__16__treeINS_12__value_typeIU8__strongP10GMSOverlayS4_EENS_19__map_value_compareIS4_S5_NS_4lessIS4_EELb1EEENS_9allocatorIS5_EEE16__insert_node_atEPNS_15__tree_end_nodeIPNS_16__tree_node_baseIPvEEEERSH_SH_
__ZNSt3__16__treeINS_12__value_typeIU8__strongP10GMSOverlayS4_EENS_19__map_value_compareIS4_S5_NS_4lessIS4_EELb1EEENS_9allocatorIS5_EEE21__remove_node_pointerEPNS_11__tree_nodeIS5_PvEE
__ZNSt3__16__treeINS_12__value_typeIU8__strongP10GMSOverlayS4_EENS_19__map_value_compareIS4_S5_NS_4lessIS4_EELb1EEENS_9allocatorIS5_EEE7destroyEPNS_11__tree_nodeIS5_PvEE
__ZNSt3__16__treeINS_12__value_typeIU8__strongP12GMSTileLayerU8__strongP14GMSTileOverlayEENS_19__map_value_compareIS4_S8_NS_4lessIS4_EELb1EEENS_9allocatorIS8_EEE16__insert_node_atEPNS_15__tree_end_nodeIPNS_16__tree_node_baseIPvEEEERSK_SK_
__ZNSt3__16__treeINS_12__value_typeIU8__strongP12GMSTileLayerU8__strongP14GMSTileOverlayEENS_19__map_value_compareIS4_S8_NS_4lessIS4_EELb1EEENS_9allocatorIS8_EEE21__remove_node_pointerEPNS_11__tree_nodeIS8_PvEE
__ZNSt3__16__treeINS_12__value_typeIU8__strongP12GMSTileLayerU8__strongP14GMSTileOverlayEENS_19__map_value_compareIS4_S8_NS_4lessIS4_EELb1EEENS_9allocatorIS8_EEE7destroyEPNS_11__tree_nodeIS8_PvEE
__ZNSt3__16__treeINS_12__value_typeIU8__strongP14GMSTileOverlayjEENS_19__map_value_compareIS4_S5_NS_4lessIS4_EELb1EEENS_9allocatorIS5_EEE16__insert_node_atEPNS_15__tree_end_nodeIPNS_16__tree_node_baseIPvEEEERSH_SH_
__ZNSt3__16__treeINS_12__value_typeIU8__strongP14GMSTileOverlayjEENS_19__map_value_compareIS4_S5_NS_4lessIS4_EELb1EEENS_9allocatorIS5_EEE21__remove_node_pointerEPNS_11__tree_nodeIS5_PvEE
__ZNSt3__16__treeINS_12__value_typeIU8__strongP14GMSTileOverlayjEENS_19__map_value_compareIS4_S5_NS_4lessIS4_EELb1EEENS_9allocatorIS5_EEE7destroyEPNS_11__tree_nodeIS5_PvEE
__ZNSt3__16__treeINS_12__value_typeIU8__strongP6UIViewU8__strongP22GMSOffscreenEntityViewEENS_19__map_value_compareIS4_S8_NS_4lessIS4_EELb1EEENS_9allocatorIS8_EEE16__insert_node_atEPNS_15__tree_end_nodeIPNS_16__tree_node_baseIPvEEEERSK_SK_
__ZNSt3__16__treeINS_12__value_typeIU8__strongP6UIViewU8__strongP22GMSOffscreenEntityViewEENS_19__map_value_compareIS4_S8_NS_4lessIS4_EELb1EEENS_9allocatorIS8_EEE21__remove_node_pointerEPNS_11__tree_nodeIS8_PvEE
__ZNSt3__16__treeINS_12__value_typeIU8__strongP6UIViewU8__strongP22GMSOffscreenEntityViewEENS_19__map_value_compareIS4_S8_NS_4lessIS4_EELb1EEENS_9allocatorIS8_EEE7destroyEPNS_11__tree_nodeIS8_PvEE
__ZNSt3__16__treeINS_12__value_typeIU8__strongP9GMSMarkerU8__strongP19GMSMarkerRenderInfoEENS_19__map_value_compareIS4_S8_NS_4lessIS4_EELb1EEENS_9allocatorIS8_EEE16__insert_node_atEPNS_15__tree_end_nodeIPNS_16__tree_node_baseIPvEEEERSK_SK_
__ZNSt3__16__treeINS_12__value_typeIU8__strongP9GMSMarkerU8__strongP19GMSMarkerRenderInfoEENS_19__map_value_compareIS4_S8_NS_4lessIS4_EELb1EEENS_9allocatorIS8_EEE21__remove_node_pointerEPNS_11__tree_nodeIS8_PvEE
__ZNSt3__16__treeINS_12__value_typeIU8__strongP9GMSMarkerU8__strongP19GMSMarkerRenderInfoEENS_19__map_value_compareIS4_S8_NS_4lessIS4_EELb1EEENS_9allocatorIS8_EEE7destroyEPNS_11__tree_nodeIS8_PvEE
__ZNSt3__16__treeINS_12__value_typeIU8__strongP9GMSMarkerU8__strongP24GMSx_GMPCClientVectorOpsEENS_19__map_value_compareIS4_S8_NS_4lessIS4_EELb1EEENS_9allocatorIS8_EEE16__insert_node_atEPNS_15__tree_end_nodeIPNS_16__tree_node_baseIPvEEEERSK_SK_
__ZNSt3__16__treeINS_12__value_typeIU8__strongP9GMSMarkerU8__strongP24GMSx_GMPCClientVectorOpsEENS_19__map_value_compareIS4_S8_NS_4lessIS4_EELb1EEENS_9allocatorIS8_EEE21__remove_node_pointerEPNS_11__tree_nodeIS8_PvEE
__ZNSt3__16__treeINS_12__value_typeIU8__strongP9GMSMarkerU8__strongP24GMSx_GMPCClientVectorOpsEENS_19__map_value_compareIS4_S8_NS_4lessIS4_EELb1EEENS_9allocatorIS8_EEE7destroyEPNS_11__tree_nodeIS8_PvEE
__ZNSt3__16__treeINS_12__value_typeIU8__strongP9GMSMarkerxEENS_19__map_value_compareIS4_S5_NS_4lessIS4_EELb1EEENS_9allocatorIS5_EEE16__insert_node_atEPNS_15__tree_end_nodeIPNS_16__tree_node_baseIPvEEEERSH_SH_
__ZNSt3__16__treeINS_12__value_typeIU8__strongP9GMSMarkerxEENS_19__map_value_compareIS4_S5_NS_4lessIS4_EELb1EEENS_9allocatorIS5_EEE21__remove_node_pointerEPNS_11__tree_nodeIS5_PvEE
__ZNSt3__16__treeINS_12__value_typeIU8__strongP9GMSMarkerxEENS_19__map_value_compareIS4_S5_NS_4lessIS4_EELb1EEENS_9allocatorIS5_EEE7destroyEPNS_11__tree_nodeIS5_PvEE
__ZNSt3__16__treeINS_12__value_typeIiN7gmscore8renderer15SortedRenderBinEEENS_19__map_value_compareIiS5_NS_4lessIiEELb1EEENS_9allocatorIS5_EEE16__insert_node_atEPNS_15__tree_end_nodeIPNS_16__tree_node_baseIPvEEEERSH_SH_
__ZNSt3__16__treeINS_12__value_typeIiN7gmscore8renderer15SortedRenderBinEEENS_19__map_value_compareIiS5_NS_4lessIiEELb1EEENS_9allocatorIS5_EEE21__remove_node_pointerEPNS_11__tree_nodeIS5_PvEE
__ZNSt3__16__treeINS_12__value_typeIiN7gmscore8renderer15SortedRenderBinEEENS_19__map_value_compareIiS5_NS_4lessIiEELb1EEENS_9allocatorIS5_EEE5eraseENS_21__tree_const_iteratorIS5_PNS_11__tree_nodeIS5_PvEElEE
__ZNSt3__16__treeINS_12__value_typeIiN7gmscore8renderer15SortedRenderBinEEENS_19__map_value_compareIiS5_NS_4lessIiEELb1EEENS_9allocatorIS5_EEE7destroyEPNS_11__tree_nodeIS5_PvEE
__ZNSt3__16__treeINS_12__value_typeIiNS_6vectorIN7gmscore5model6StrokeENS_9allocatorIS5_EEEEEENS_19__map_value_compareIiS9_NS_4lessIiEELb1EEENS6_IS9_EEE16__insert_node_atEPNS_15__tree_end_nodeIPNS_16__tree_node_baseIPvEEEERSK_SK_
__ZNSt3__16__treeINS_12__value_typeIiNS_6vectorIN7gmscore5model6StrokeENS_9allocatorIS5_EEEEEENS_19__map_value_compareIiS9_NS_4lessIiEELb1EEENS6_IS9_EEE7destroyEPNS_11__tree_nodeIS9_PvEE
__ZNSt3__16__treeINS_12__value_typeIijEENS_19__map_value_compareIiS2_NS_4lessIiEELb1EEENS_9allocatorIS2_EEE16__insert_node_atEPNS_15__tree_end_nodeIPNS_16__tree_node_baseIPvEEEERSE_SE_
__ZNSt3__16__treeINS_12__value_typeIijEENS_19__map_value_compareIiS2_NS_4lessIiEELb1EEENS_9allocatorIS2_EEE7destroyEPNS_11__tree_nodeIS2_PvEE
__ZNSt3__16__treeINS_12__value_typeIjNS_10shared_ptrIN12GMSx_NSSInfoI5groupjjL_Z10getgrgid_rEE8CacheRecEEEEENS_19__map_value_compareIjS8_NS_4lessIjEELb1EEENS_9allocatorIS8_EEE16__insert_node_atEPNS_15__tree_end_nodeIPNS_16__tree_node_baseIPvEEEERSK_SK_
__ZNSt3__16__treeINS_12__value_typeIjNS_10shared_ptrIN12GMSx_NSSInfoI5groupjjL_Z10getgrgid_rEE8CacheRecEEEEENS_19__map_value_compareIjS8_NS_4lessIjEELb1EEENS_9allocatorIS8_EEE21__remove_node_pointerEPNS_11__tree_nodeIS8_PvEE
__ZNSt3__16__treeINS_12__value_typeIjNS_10shared_ptrIN12GMSx_NSSInfoI5groupjjL_Z10getgrgid_rEE8CacheRecEEEEENS_19__map_value_compareIjS8_NS_4lessIjEELb1EEENS_9allocatorIS8_EEE5eraseENS_21__tree_const_iteratorIS8_PNS_11__tree_nodeIS8_PvEElEE
__ZNSt3__16__treeINS_12__value_typeIjNS_10shared_ptrIN12GMSx_NSSInfoI6passwdjjL_Z10getpwuid_rEE8CacheRecEEEEENS_19__map_value_compareIjS8_NS_4lessIjEELb1EEENS_9allocatorIS8_EEE16__insert_node_atEPNS_15__tree_end_nodeIPNS_16__tree_node_baseIPvEEEERSK_SK_
__ZNSt3__16__treeINS_12__value_typeIjNS_10shared_ptrIN12GMSx_NSSInfoI6passwdjjL_Z10getpwuid_rEE8CacheRecEEEEENS_19__map_value_compareIjS8_NS_4lessIjEELb1EEENS_9allocatorIS8_EEE21__remove_node_pointerEPNS_11__tree_nodeIS8_PvEE
__ZNSt3__16__treeINS_12__value_typeIjNS_10shared_ptrIN12GMSx_NSSInfoI6passwdjjL_Z10getpwuid_rEE8CacheRecEEEEENS_19__map_value_compareIjS8_NS_4lessIjEELb1EEENS_9allocatorIS8_EEE5eraseENS_21__tree_const_iteratorIS8_PNS_11__tree_nodeIS8_PvEElEE
__ZNSt3__16__treeINS_12__value_typeIjNS_4pairIU8__strongP20GMSPolylineDrawStyleN7gmscore6vector29FeatureStyleWithConsumedStyleEEEEENS_19__map_value_compareIjSA_NS_4lessIjEELb1EEENS_9allocatorISA_EEE16__insert_node_atEPNS_15__tree_end_nodeIPNS_16__tree_node_baseIPvEEEERSM_SM_
__ZNSt3__16__treeINS_12__value_typeIjNS_4pairIU8__strongP20GMSPolylineDrawStyleN7gmscore6vector29FeatureStyleWithConsumedStyleEEEEENS_19__map_value_compareIjSA_NS_4lessIjEELb1EEENS_9allocatorISA_EEE7destroyEPNS_11__tree_nodeISA_PvEE
__ZNSt3__16__treeINS_12__value_typeImN7gmscore4base10reffed_ptrINS2_6vector17GMSMarkupInstanceEEEEENS_19__map_value_compareImS8_NS_4lessImEELb1EEENS_9allocatorIS8_EEE16__insert_node_atEPNS_15__tree_end_nodeIPNS_16__tree_node_baseIPvEEEERSK_SK_
__ZNSt3__16__treeINS_12__value_typeImN7gmscore4base10reffed_ptrINS2_6vector17GMSMarkupInstanceEEEEENS_19__map_value_compareImS8_NS_4lessImEELb1EEENS_9allocatorIS8_EEE21__remove_node_pointerEPNS_11__tree_nodeIS8_PvEE
__ZNSt3__16__treeINS_12__value_typeImN7gmscore4base10reffed_ptrINS2_6vector17GMSMarkupInstanceEEEEENS_19__map_value_compareImS8_NS_4lessImEELb1EEENS_9allocatorIS8_EEE5eraseENS_21__tree_const_iteratorIS8_PNS_11__tree_nodeIS8_PvEElEE
__ZNSt3__16__treeINS_12__value_typeImN7gmscore4base10reffed_ptrINS2_6vector17GMSMarkupInstanceEEEEENS_19__map_value_compareImS8_NS_4lessImEELb1EEENS_9allocatorIS8_EEE7destroyEPNS_11__tree_nodeIS8_PvEE
__ZNSt3__16__treeINS_12__value_typeImNS_10unique_ptrIN23GMSx_geo_imagery_viewer7overlay4IconENS_14default_deleteIS5_EEEEEENS_19__map_value_compareImS9_NS_4lessImEELb1EEENS_9allocatorIS9_EEE16__insert_node_atEPNS_15__tree_end_nodeIPNS_16__tree_node_baseIPvEEEERSL_SL_
__ZNSt3__16__treeINS_12__value_typeImNS_10unique_ptrIN23GMSx_geo_imagery_viewer7overlay4IconENS_14default_deleteIS5_EEEEEENS_19__map_value_compareImS9_NS_4lessImEELb1EEENS_9allocatorIS9_EEE21__remove_node_pointerEPNS_11__tree_nodeIS9_PvEE
__ZNSt3__16__treeINS_12__value_typeImNS_10unique_ptrIN23GMSx_geo_imagery_viewer7overlay4IconENS_14default_deleteIS5_EEEEEENS_19__map_value_compareImS9_NS_4lessImEELb1EEENS_9allocatorIS9_EEE5eraseENS_21__tree_const_iteratorIS9_PNS_11__tree_nodeIS9_PvEElEE
__ZNSt3__16__treeINS_12__value_typeImNS_10unique_ptrIN23GMSx_geo_imagery_viewer7overlay4IconENS_14default_deleteIS5_EEEEEENS_19__map_value_compareImS9_NS_4lessImEELb1EEENS_9allocatorIS9_EEE7destroyEPNS_11__tree_nodeIS9_PvEE
__ZNSt3__16__treeINS_12__value_typeImNS_4pairIN7gmscore6vector19MarkupRevealOptionsENS_10unique_ptrINS3_8renderer11Animation3DENS_14default_deleteIS8_EEEEEEEENS_19__map_value_compareImSD_NS_4lessImEELb1EEENS_9allocatorISD_EEE16__insert_node_atEPNS_15__tree_end_nodeIPNS_16__tree_node_baseIPvEEEERSP_SP_
__ZNSt3__16__treeINS_12__value_typeImNS_4pairIN7gmscore6vector19MarkupRevealOptionsENS_10unique_ptrINS3_8renderer11Animation3DENS_14default_deleteIS8_EEEEEEEENS_19__map_value_compareImSD_NS_4lessImEELb1EEENS_9allocatorISD_EEE21__remove_node_pointerEPNS_11__tree_nodeISD_PvEE
__ZNSt3__16__treeINS_12__value_typeImNS_4pairIN7gmscore6vector19MarkupRevealOptionsENS_10unique_ptrINS3_8renderer11Animation3DENS_14default_deleteIS8_EEEEEEEENS_19__map_value_compareImSD_NS_4lessImEELb1EEENS_9allocatorISD_EEE5eraseENS_21__tree_const_iteratorISD_PNS_11__tree_nodeISD_PvEElEE
__ZNSt3__16__treeINS_12__value_typeImNS_4pairIN7gmscore6vector19MarkupRevealOptionsENS_10unique_ptrINS3_8renderer11Animation3DENS_14default_deleteIS8_EEEEEEEENS_19__map_value_compareImSD_NS_4lessImEELb1EEENS_9allocatorISD_EEE7destroyEPNS_11__tree_nodeISD_PvEE
__ZNSt3__16__treeINS_12__value_typeImU8__strongP10GMSOverlayEENS_19__map_value_compareImS5_NS_4lessImEELb1EEENS_9allocatorIS5_EEE16__insert_node_atEPNS_15__tree_end_nodeIPNS_16__tree_node_baseIPvEEEERSH_SH_
__ZNSt3__16__treeINS_12__value_typeImU8__strongP10GMSOverlayEENS_19__map_value_compareImS5_NS_4lessImEELb1EEENS_9allocatorIS5_EEE21__remove_node_pointerEPNS_11__tree_nodeIS5_PvEE
__ZNSt3__16__treeINS_12__value_typeImU8__strongP10GMSOverlayEENS_19__map_value_compareImS5_NS_4lessImEELb1EEENS_9allocatorIS5_EEE7destroyEPNS_11__tree_nodeIS5_PvEE
__ZNSt3__16__treeINS_12__value_typeImiEENS_19__map_value_compareImS2_NS_4lessImEELb1EEENS_9allocatorIS2_EEE16__insert_node_atEPNS_15__tree_end_nodeIPNS_16__tree_node_baseIPvEEEERSE_SE_
__ZNSt3__16__treeINS_12__value_typeImiEENS_19__map_value_compareImS2_NS_4lessImEELb1EEENS_9allocatorIS2_EEE7destroyEPNS_11__tree_nodeIS2_PvEE
__ZNSt3__16__treeINS_12__value_typeImmEENS_19__map_value_compareImS2_NS_4lessImEELb1EEENS_9allocatorIS2_EEE16__insert_node_atEPNS_15__tree_end_nodeIPNS_16__tree_node_baseIPvEEEERSE_SE_
__ZNSt3__16__treeINS_12__value_typeImmEENS_19__map_value_compareImS2_NS_4lessImEELb1EEENS_9allocatorIS2_EEE7destroyEPNS_11__tree_nodeIS2_PvEE
__ZNSt3__16__treeINS_12__value_typeItN7gmscore4base10reffed_ptrINS2_6vector4text17TextureAtlasGlyphEEEEENS_19__map_value_compareItS9_NS_4lessItEELb1EEENS_9allocatorIS9_EEE16__insert_node_atEPNS_15__tree_end_nodeIPNS_16__tree_node_baseIPvEEEERSL_SL_
__ZNSt3__16__treeINS_12__value_typeItN7gmscore4base10reffed_ptrINS2_6vector4text17TextureAtlasGlyphEEEEENS_19__map_value_compareItS9_NS_4lessItEELb1EEENS_9allocatorIS9_EEE7destroyEPNS_11__tree_nodeIS9_PvEE
__ZNSt3__16__treeINS_12__value_typeIxNS_6vectorIU8__strongP9GMSMarkerNS_9allocatorIS5_EEEEEENS_19__map_value_compareIxS9_NS_4lessIxEELb1EEENS6_IS9_EEE16__insert_node_atEPNS_15__tree_end_nodeIPNS_16__tree_node_baseIPvEEEERSK_SK_
__ZNSt3__16__treeINS_12__value_typeIxNS_6vectorIU8__strongP9GMSMarkerNS_9allocatorIS5_EEEEEENS_19__map_value_compareIxS9_NS_4lessIxEELb1EEENS6_IS9_EEE21__remove_node_pointerEPNS_11__tree_nodeIS9_PvEE
__ZNSt3__16__treeINS_12__value_typeIxNS_6vectorIU8__strongP9GMSMarkerNS_9allocatorIS5_EEEEEENS_19__map_value_compareIxS9_NS_4lessIxEELb1EEENS6_IS9_EEE5eraseENS_21__tree_const_iteratorIS9_PNS_11__tree_nodeIS9_PvEElEE
__ZNSt3__16__treeINS_12__value_typeIxNS_6vectorIU8__strongP9GMSMarkerNS_9allocatorIS5_EEEEEENS_19__map_value_compareIxS9_NS_4lessIxEELb1EEENS6_IS9_EEE7destroyEPNS_11__tree_nodeIS9_PvEE
__ZNSt3__16__treeINS_12__value_typeIxU8__strongP17GMSMultiZoomStyleEENS_19__map_value_compareIxS5_NS_4lessIxEELb1EEENS_9allocatorIS5_EEE16__insert_node_atEPNS_15__tree_end_nodeIPNS_16__tree_node_baseIPvEEEERSH_SH_
__ZNSt3__16__treeINS_12__value_typeIxU8__strongP17GMSMultiZoomStyleEENS_19__map_value_compareIxS5_NS_4lessIxEELb1EEENS_9allocatorIS5_EEE7destroyEPNS_11__tree_nodeIS5_PvEE
__ZNSt3__16__treeINS_12__value_typeIxU8__strongP9GMSMarkerEENS_19__map_value_compareIxS5_NS_4lessIxEELb1EEENS_9allocatorIS5_EEE7destroyEPNS_11__tree_nodeIS5_PvEE
__ZNSt3__16__treeINS_12__value_typeIyU8__strongP9GMSMarkerEENS_19__map_value_compareIyS5_NS_4lessIyEELb1EEENS_9allocatorIS5_EEE16__insert_node_atEPNS_15__tree_end_nodeIPNS_16__tree_node_baseIPvEEEERSH_SH_
__ZNSt3__16__treeINS_12__value_typeIyU8__strongP9GMSMarkerEENS_19__map_value_compareIyS5_NS_4lessIyEELb1EEENS_9allocatorIS5_EEE21__remove_node_pointerEPNS_11__tree_nodeIS5_PvEE
__ZNSt3__16__treeINS_12__value_typeIyU8__strongP9GMSMarkerEENS_19__map_value_compareIyS5_NS_4lessIyEELb1EEENS_9allocatorIS5_EEE7destroyEPNS_11__tree_nodeIS5_PvEE
__ZNSt3__16__treeINS_12basic_stringIcNS_11char_traitsIcEENS_9allocatorIcEEEENS_4lessIS6_EENS4_IS6_EEE16__insert_node_atEPNS_15__tree_end_nodeIPNS_16__tree_node_baseIPvEEEERSF_SF_
__ZNSt3__16__treeINS_4pairINS_12basic_stringIcNS_11char_traitsIcEENS_9allocatorIcEEEEiEENS_4lessIS8_EENS5_IS8_EEE16__insert_node_atEPNS_15__tree_end_nodeIPNS_16__tree_node_baseIPvEEEERSH_SH_
__ZNSt3__16__treeINS_4pairINS_12basic_stringIcNS_11char_traitsIcEENS_9allocatorIcEEEEiEENS_4lessIS8_EENS5_IS8_EEE7destroyEPNS_11__tree_nodeIS8_PvEE
__ZNSt3__16__treeINS_4pairIPN7gmscore5model8Region2fEPKNS2_6vector16LabelableFeatureEEENS_4lessISA_EENS_9allocatorISA_EEE16__insert_node_atEPNS_15__tree_end_nodeIPNS_16__tree_node_baseIPvEEEERSK_SK_
__ZNSt3__16__treeINS_4pairIPN7gmscore5model8Region2fEPKNS2_6vector16LabelableFeatureEEENS_4lessISA_EENS_9allocatorISA_EEE21__remove_node_pointerEPNS_11__tree_nodeISA_PvEE
__ZNSt3__16__treeINS_4pairIPN7gmscore5model8Region2fEPKNS2_6vector16LabelableFeatureEEENS_4lessISA_EENS_9allocatorISA_EEE7destroyEPNS_11__tree_nodeISA_PvEE
__ZNSt3__16__treeIPKN7gmscore6vector16LabelableFeatureENS_4lessIS5_EENS_9allocatorIS5_EEE16__insert_node_atEPNS_15__tree_end_nodeIPNS_16__tree_node_baseIPvEEEERSF_SF_
__ZNSt3__16__treeIPKN7gmscore6vector16LabelableFeatureENS_4lessIS5_EENS_9allocatorIS5_EEE7destroyEPNS_11__tree_nodeIS5_PvEE
__ZNSt3__16__treeIPKcNS_4lessIS2_EENS_9allocatorIS2_EEE16__insert_node_atEPNS_15__tree_end_nodeIPNS_16__tree_node_baseIPvEEEERSC_SC_
__ZNSt3__16__treeIPKcNS_4lessIS2_EENS_9allocatorIS2_EEE7destroyEPNS_11__tree_nodeIS2_PvEE
__ZNSt3__16__treeIPN7gmscore5utils7BSPTreeIPKNS1_6vector16LabelableFeatureEE4NodeENS_4lessISA_EENS_9allocatorISA_EEE16__insert_node_atEPNS_15__tree_end_nodeIPNS_16__tree_node_baseIPvEEEERSK_SK_
__ZNSt3__16__treeIPN7gmscore5utils7BSPTreeIPKNS1_6vector16LabelableFeatureEE4NodeENS_4lessISA_EENS_9allocatorISA_EEE7destroyEPNS_11__tree_nodeISA_PvEE
__ZNSt3__16__treeIPN7gmscore6vector17TextureAtlasCache8ListenerENS_4lessIS5_EENS_9allocatorIS5_EEE16__insert_node_atEPNS_15__tree_end_nodeIPNS_16__tree_node_baseIPvEEEERSF_SF_
__ZNSt3__16__treeIPN7gmscore6vector17TextureAtlasCache8ListenerENS_4lessIS5_EENS_9allocatorIS5_EEE21__remove_node_pointerEPNS_11__tree_nodeIS5_PvEE
__ZNSt3__16__treeIPN7gmscore6vector17TextureAtlasCache8ListenerENS_4lessIS5_EENS_9allocatorIS5_EEE7destroyEPNS_11__tree_nodeIS5_PvEE
__ZNSt3__16__treeIPN7gmscore6vector18PolylineSimplifier9PointDataENS3_10IndexOrderENS_9allocatorIS5_EEE13__move_assignERS9_NS_17integral_constantIbLb1EEE
__ZNSt3__16__treeIPN7gmscore6vector18PolylineSimplifier9PointDataENS3_10IndexOrderENS_9allocatorIS5_EEE16__insert_node_atEPNS_15__tree_end_nodeIPNS_16__tree_node_baseIPvEEEERSE_SE_
__ZNSt3__16__treeIPN7gmscore6vector18PolylineSimplifier9PointDataENS3_10IndexOrderENS_9allocatorIS5_EEE7destroyEPNS_11__tree_nodeIS5_PvEE
__ZNSt3__16__treeIPN7gmscore6vector18PolylineSimplifier9PointDataENS3_11WeightOrderENS_9allocatorIS5_EEE13__move_assignERS9_NS_17integral_constantIbLb1EEE
__ZNSt3__16__treeIPN7gmscore6vector18PolylineSimplifier9PointDataENS3_11WeightOrderENS_9allocatorIS5_EEE16__insert_node_atEPNS_15__tree_end_nodeIPNS_16__tree_node_baseIPvEEEERSE_SE_
__ZNSt3__16__treeIPN7gmscore6vector18PolylineSimplifier9PointDataENS3_11WeightOrderENS_9allocatorIS5_EEE21__remove_node_pointerEPNS_11__tree_nodeIS5_PvEE
__ZNSt3__16__treeIPN7gmscore6vector18PolylineSimplifier9PointDataENS3_11WeightOrderENS_9allocatorIS5_EEE7destroyEPNS_11__tree_nodeIS5_PvEE
__ZNSt3__16__treeIPN7gmscore6vector18PolylineSimplifier9PointDataENS_4lessIS5_EENS_9allocatorIS5_EEE16__insert_node_atEPNS_15__tree_end_nodeIPNS_16__tree_node_baseIPvEEEERSF_SF_
__ZNSt3__16__treeIPN7gmscore6vector18PolylineSimplifier9PointDataENS_4lessIS5_EENS_9allocatorIS5_EEE7destroyEPNS_11__tree_nodeIS5_PvEE
__ZNSt3__16__treeIPN7gmscore8renderer12RenderTarget19SizeChangedListenerENS_4lessIS5_EENS_9allocatorIS5_EEE16__insert_node_atEPNS_15__tree_end_nodeIPNS_16__tree_node_baseIPvEEEERSF_SF_
__ZNSt3__16__treeIPN7gmscore8renderer12RenderTarget19SizeChangedListenerENS_4lessIS5_EENS_9allocatorIS5_EEE21__remove_node_pointerEPNS_11__tree_nodeIS5_PvEE
__ZNSt3__16__treeIPN7gmscore8renderer12RenderTarget19SizeChangedListenerENS_4lessIS5_EENS_9allocatorIS5_EEE7destroyEPNS_11__tree_nodeIS5_PvEE
__ZNSt3__16__treeIPN7gmscore8renderer9RenderBinENS_4lessIS4_EENS_9allocatorIS4_EEE16__insert_node_atEPNS_15__tree_end_nodeIPNS_16__tree_node_baseIPvEEEERSE_SE_
__ZNSt3__16__treeIPN7gmscore8renderer9RenderBinENS_4lessIS4_EENS_9allocatorIS4_EEE7destroyEPNS_11__tree_nodeIS4_PvEE
__ZNSt3__16__treeIU8__strongP10GMSOverlayNS_4lessIS3_EENS_9allocatorIS3_EEE16__insert_node_atEPNS_15__tree_end_nodeIPNS_16__tree_node_baseIPvEEEERSD_SD_
__ZNSt3__16__treeIU8__strongP10GMSOverlayNS_4lessIS3_EENS_9allocatorIS3_EEE21__remove_node_pointerEPNS_11__tree_nodeIS3_PvEE
__ZNSt3__16__treeIU8__strongP10GMSOverlayNS_4lessIS3_EENS_9allocatorIS3_EEE7destroyEPNS_11__tree_nodeIS3_PvEE
__ZNSt3__16__treeIU8__strongP15GMSPointFeatureNS_8functionIFbS2_S2_EEENS_9allocatorIS3_EEE11__find_leafENS_21__tree_const_iteratorIS3_PNS_11__tree_nodeIS3_PvEElEERPNS_15__tree_end_nodeIPNS_16__tree_node_baseISC_EEEERU8__strongKS2_
__ZNSt3__16__treeIU8__strongP15GMSPointFeatureNS_8functionIFbS2_S2_EEENS_9allocatorIS3_EEE15__find_leaf_lowERPNS_15__tree_end_nodeIPNS_16__tree_node_baseIPvEEEERU8__strongKS2_
__ZNSt3__16__treeIU8__strongP15GMSPointFeatureNS_8functionIFbS2_S2_EEENS_9allocatorIS3_EEE16__find_leaf_highERPNS_15__tree_end_nodeIPNS_16__tree_node_baseIPvEEEERU8__strongKS2_
__ZNSt3__16__treeIU8__strongP15GMSPointFeatureNS_8functionIFbS2_S2_EEENS_9allocatorIS3_EEE16__insert_node_atEPNS_15__tree_end_nodeIPNS_16__tree_node_baseIPvEEEERSE_SE_
__ZNSt3__16__treeIU8__strongP15GMSPointFeatureNS_8functionIFbS2_S2_EEENS_9allocatorIS3_EEE7destroyEPNS_11__tree_nodeIS3_PvEE
__ZNSt3__16__treeIU8__strongP15GMSPointFeatureNS_8functionIFbS2_S2_EEENS_9allocatorIS3_EEED2Ev
__ZNSt3__16__treeIU8__strongP6UIViewNS_4lessIS3_EENS_9allocatorIS3_EEE16__insert_node_atEPNS_15__tree_end_nodeIPNS_16__tree_node_baseIPvEEEERSD_SD_
__ZNSt3__16__treeIU8__strongP6UIViewNS_4lessIS3_EENS_9allocatorIS3_EEE21__remove_node_pointerEPNS_11__tree_nodeIS3_PvEE
__ZNSt3__16__treeIU8__strongP6UIViewNS_4lessIS3_EENS_9allocatorIS3_EEE7destroyEPNS_11__tree_nodeIS3_PvEE
__ZNSt3__16__treeIU8__strongP7GMSAreaNS_8functionIFbS2_S2_EEENS_9allocatorIS3_EEE11__find_leafENS_21__tree_const_iteratorIS3_PNS_11__tree_nodeIS3_PvEElEERPNS_15__tree_end_nodeIPNS_16__tree_node_baseISC_EEEERU8__strongKS2_
__ZNSt3__16__treeIU8__strongP7GMSAreaNS_8functionIFbS2_S2_EEENS_9allocatorIS3_EEE15__find_leaf_lowERPNS_15__tree_end_nodeIPNS_16__tree_node_baseIPvEEEERU8__strongKS2_
__ZNSt3__16__treeIU8__strongP7GMSAreaNS_8functionIFbS2_S2_EEENS_9allocatorIS3_EEE16__find_leaf_highERPNS_15__tree_end_nodeIPNS_16__tree_node_baseIPvEEEERU8__strongKS2_
__ZNSt3__16__treeIU8__strongP7GMSAreaNS_8functionIFbS2_S2_EEENS_9allocatorIS3_EEE16__insert_node_atEPNS_15__tree_end_nodeIPNS_16__tree_node_baseIPvEEEERSE_SE_
__ZNSt3__16__treeIU8__strongP7GMSAreaNS_8functionIFbS2_S2_EEENS_9allocatorIS3_EEE7destroyEPNS_11__tree_nodeIS3_PvEE
__ZNSt3__16__treeIU8__strongP7GMSAreaNS_8functionIFbS2_S2_EEENS_9allocatorIS3_EEED2Ev
__ZNSt3__16__treeIU8__strongP7GMSLineNS_8functionIFbS2_S2_EEENS_9allocatorIS3_EEE11__find_leafENS_21__tree_const_iteratorIS3_PNS_11__tree_nodeIS3_PvEElEERPNS_15__tree_end_nodeIPNS_16__tree_node_baseISC_EEEERU8__strongKS2_
__ZNSt3__16__treeIU8__strongP7GMSLineNS_8functionIFbS2_S2_EEENS_9allocatorIS3_EEE15__find_leaf_lowERPNS_15__tree_end_nodeIPNS_16__tree_node_baseIPvEEEERU8__strongKS2_
__ZNSt3__16__treeIU8__strongP7GMSLineNS_8functionIFbS2_S2_EEENS_9allocatorIS3_EEE16__find_leaf_highERPNS_15__tree_end_nodeIPNS_16__tree_node_baseIPvEEEERU8__strongKS2_
__ZNSt3__16__treeIU8__strongP7GMSLineNS_8functionIFbS2_S2_EEENS_9allocatorIS3_EEE16__insert_node_atEPNS_15__tree_end_nodeIPNS_16__tree_node_baseIPvEEEERSE_SE_
__ZNSt3__16__treeIU8__strongP7GMSLineNS_8functionIFbS2_S2_EEENS_9allocatorIS3_EEE7destroyEPNS_11__tree_nodeIS3_PvEE
__ZNSt3__16__treeIU8__strongP7GMSLineNS_8functionIFbS2_S2_EEENS_9allocatorIS3_EEED2Ev
__ZNSt3__16__treeIU8__strongP9GMSRasterNS_8functionIFbS2_S2_EEENS_9allocatorIS3_EEE11__find_leafENS_21__tree_const_iteratorIS3_PNS_11__tree_nodeIS3_PvEElEERPNS_15__tree_end_nodeIPNS_16__tree_node_baseISC_EEEERU8__strongKS2_
__ZNSt3__16__treeIU8__strongP9GMSRasterNS_8functionIFbS2_S2_EEENS_9allocatorIS3_EEE15__find_leaf_lowERPNS_15__tree_end_nodeIPNS_16__tree_node_baseIPvEEEERU8__strongKS2_
__ZNSt3__16__treeIU8__strongP9GMSRasterNS_8functionIFbS2_S2_EEENS_9allocatorIS3_EEE16__find_leaf_highERPNS_15__tree_end_nodeIPNS_16__tree_node_baseIPvEEEERU8__strongKS2_
__ZNSt3__16__treeIU8__strongP9GMSRasterNS_8functionIFbS2_S2_EEENS_9allocatorIS3_EEE16__insert_node_atEPNS_15__tree_end_nodeIPNS_16__tree_node_baseIPvEEEERSE_SE_
__ZNSt3__16__treeIU8__strongP9GMSRasterNS_8functionIFbS2_S2_EEENS_9allocatorIS3_EEE7destroyEPNS_11__tree_nodeIS3_PvEE
__ZNSt3__16__treeIU8__strongP9GMSRasterNS_8functionIFbS2_S2_EEENS_9allocatorIS3_EEED2Ev
__ZNSt3__16__treeIU8__strongPU26objcproto15GMSModelFeature11objc_objectN7gmscore6vector6detail19LayeredFeatureGroup12TypeOrderingENS_9allocatorIS3_EEE16__find_leaf_highERPNS_15__tree_end_nodeIPNS_16__tree_node_baseIPvEEEERU8__strongKS2_
__ZNSt3__16__treeIU8__strongPU26objcproto15GMSModelFeature11objc_objectN7gmscore6vector6detail19LayeredFeatureGroup12TypeOrderingENS_9allocatorIS3_EEE16__insert_node_atEPNS_15__tree_end_nodeIPNS_16__tree_node_baseIPvEEEERSG_SG_
__ZNSt3__16__treeIU8__strongPU26objcproto15GMSModelFeature11objc_objectN7gmscore6vector6detail19LayeredFeatureGroup12TypeOrderingENS_9allocatorIS3_EEE7destroyEPNS_11__tree_nodeIS3_PvEE
__ZNSt3__16__treeIU8__strongPU34objcproto23GMSEntityTappableUIItem11objc_objectN7gmscore6vector20TappableMapItemQueue20TappableItemsCompareENS_9allocatorIS3_EEE16__insert_node_atEPNS_15__tree_end_nodeIPNS_16__tree_node_baseIPvEEEERSF_SF_
__ZNSt3__16__treeIU8__strongPU34objcproto23GMSEntityTappableUIItem11objc_objectN7gmscore6vector20TappableMapItemQueue20TappableItemsCompareENS_9allocatorIS3_EEE21__remove_node_pointerEPNS_11__tree_nodeIS3_PvEE
__ZNSt3__16__treeIU8__strongPU34objcproto23GMSEntityTappableUIItem11objc_objectN7gmscore6vector20TappableMapItemQueue20TappableItemsCompareENS_9allocatorIS3_EEE7destroyEPNS_11__tree_nodeIS3_PvEE
__ZNSt3__16__treeIiNS_4lessIiEENS_9allocatorIiEEE16__insert_node_atEPNS_15__tree_end_nodeIPNS_16__tree_node_baseIPvEEEERSA_SA_
__ZNSt3__16__treeIiNS_4lessIiEENS_9allocatorIiEEE18_DetachedTreeCache13__detach_nextEPNS_11__tree_nodeIiPvEE
__ZNSt3__16__treeIiNS_4lessIiEENS_9allocatorIiEEE18_DetachedTreeCacheD2B8ue170006Ev
__ZNSt3__16__treeIiNS_4lessIiEENS_9allocatorIiEEE19__node_insert_multiEPNS_11__tree_nodeIiPvEE
__ZNSt3__16__treeIiNS_4lessIiEENS_9allocatorIiEEE7destroyEPNS_11__tree_nodeIiPvEE
__ZNSt3__16__treeItNS_4lessItEENS_9allocatorItEEE16__insert_node_atEPNS_15__tree_end_nodeIPNS_16__tree_node_baseIPvEEEERSA_SA_
__ZNSt3__16__treeItNS_4lessItEENS_9allocatorItEEE18_DetachedTreeCache13__detach_nextEPNS_11__tree_nodeItPvEE
__ZNSt3__16__treeItNS_4lessItEENS_9allocatorItEEE18_DetachedTreeCacheD2B8ue170006Ev
__ZNSt3__16__treeItNS_4lessItEENS_9allocatorItEEE19__node_insert_multiEPNS_11__tree_nodeItPvEE
__ZNSt3__16__treeItNS_4lessItEENS_9allocatorItEEE7destroyEPNS_11__tree_nodeItPvEE
__ZNSt3__16removeB8ue170006INS_11__wrap_iterIP20CalloutArrowPositionEES2_EET_S5_S5_RKT0_
__ZNSt3__16removeB8ue170006INS_11__wrap_iterIPN7gmscore4base10reffed_ptrINS2_6vector19MyLocationIndicatorEEEEES7_EET_SA_SA_RKT0_
__ZNSt3__16removeB8ue170006INS_11__wrap_iterIPcEEcEET_S4_S4_RKT0_
__ZNSt3__16vectorI10GMSPoint2DNS_9allocatorIS1_EEE11__vallocateB8ue170006Em
__ZNSt3__16vectorI10GMSPoint2DNS_9allocatorIS1_EEE7reserveEm
__ZNSt3__16vectorI10GMSPoint2DNS_9allocatorIS1_EEEC2Em
__ZNSt3__16vectorI12GMSFeatureIDNS_9allocatorIS1_EEE13__move_assignERS4_NS_17integral_constantIbLb1EEE
__ZNSt3__16vectorI12GMSFeatureIDNS_9allocatorIS1_EEE7reserveEm
__ZNSt3__16vectorI13GMSCoordinateNS_9allocatorIS1_EEE7reserveEm
__ZNSt3__16vectorI20CalloutArrowPositionNS_9allocatorIS1_EEE11__vallocateB8ue170006Em
__ZNSt3__16vectorI22CLLocationCoordinate2DNS_9allocatorIS1_EEE11__vallocateB8ue170006Em
__ZNSt3__16vectorI22CLLocationCoordinate2DNS_9allocatorIS1_EEE6insertENS_11__wrap_iterIPKS1_EERS6_
__ZNSt3__16vectorI22CLLocationCoordinate2DNS_9allocatorIS1_EEE7reserveEm
__ZNSt3__16vectorI24GMSx_CommandLineFlagInfoNS_9allocatorIS1_EEE16__destroy_vectorclB8ue170006Ev
__ZNSt3__16vectorI24GMSx_CommandLineFlagInfoNS_9allocatorIS1_EEE26__swap_out_circular_bufferERNS_14__split_bufferIS1_RS3_EE
__ZNSt3__16vectorI6CGRectNS_9allocatorIS1_EEE6resizeEm
__ZNSt3__16vectorI6CGRectNS_9allocatorIS1_EEE8__appendEm
__ZNSt3__16vectorI9GMSPassIDNS_9allocatorIS1_EEE11__vallocateB8ue170006Em
__ZNSt3__16vectorIDv2_fNS_9allocatorIS1_EEE6resizeEmRKS1_
__ZNSt3__16vectorIDv2_fNS_9allocatorIS1_EEE7reserveEm
__ZNSt3__16vectorIDv2_fNS_9allocatorIS1_EEE8__appendEmRKS1_
__ZNSt3__16vectorIDv4_hNS_9allocatorIS1_EEE11__vallocateB8ue170006Em
__ZNSt3__16vectorIDv4_hNS_9allocatorIS1_EEE7reserveEm
__ZNSt3__16vectorIN11GMSx_mathfu12VectorPackedIfLi3EEENS_9allocatorIS3_EEE7reserveEm
__ZNSt3__16vectorIN11GMSx_mathfu6VectorIdLi3EEENS_9allocatorIS3_EEE11__vallocateB8ue170006Em
__ZNSt3__16vectorIN11GMSx_mathfu6VectorIdLi3EEENS_9allocatorIS3_EEE26__swap_out_circular_bufferERNS_14__split_bufferIS3_RS5_EE
__ZNSt3__16vectorIN11GMSx_mathfu6VectorIdLi3EEENS_9allocatorIS3_EEEC2EmRKS3_
__ZNSt3__16vectorIN11GMSx_mathfu6VectorIfLi3EEENS_9allocatorIS3_EEE7reserveEm
__ZNSt3__16vectorIN11GMSx_proto213GMSx_internal17TailCallTableInfo12FieldOptionsENS_9allocatorIS4_EEE7reserveEm
__ZNSt3__16vectorIN11GMSx_proto213GMSx_internal17TailCallTableInfo13FastFieldInfoENS_9allocatorIS4_EEE11__vallocateB8ue170006Em
__ZNSt3__16vectorIN11GMSx_proto213GMSx_internal17TailCallTableInfo14SkipEntryBlockENS_9allocatorIS4_EEE13__vdeallocateEv
__ZNSt3__16vectorIN11GMSx_proto213GMSx_internal17TailCallTableInfo14SkipEntryBlockENS_9allocatorIS4_EEE16__destroy_vectorclB8ue170006Ev
__ZNSt3__16vectorIN11GMSx_proto213GMSx_internal17TailCallTableInfo14SkipEntryBlockENS_9allocatorIS4_EEE22__base_destruct_at_endB8ue170006EPS4_
__ZNSt3__16vectorIN11GMSx_proto213GMSx_internal17TailCallTableInfo14SkipEntryBlockENS_9allocatorIS4_EEE26__swap_out_circular_bufferERNS_14__split_bufferIS4_RS6_EE
__ZNSt3__16vectorIN11GMSx_proto213GMSx_internal17TailCallTableInfo8AuxEntryENS_9allocatorIS4_EEE11__vallocateB8ue170006Em
__ZNSt3__16vectorIN11GMSx_proto213GMSx_internal17TailCallTableInfo8AuxEntryENS_9allocatorIS4_EEE6resizeEm
__ZNSt3__16vectorIN11GMSx_proto213GMSx_internal17TailCallTableInfo8AuxEntryENS_9allocatorIS4_EEE8__appendEm
__ZNSt3__16vectorIN11GMSx_proto225EncodedDescriptorDatabase15DescriptorIndex11SymbolEntryENS_9allocatorIS4_EEE11__vallocateB8ue170006Em
__ZNSt3__16vectorIN11GMSx_proto225EncodedDescriptorDatabase15DescriptorIndex11SymbolEntryENS_9allocatorIS4_EEE13__move_assignERS7_NS_17integral_constantIbLb1EEE
__ZNSt3__16vectorIN11GMSx_proto225EncodedDescriptorDatabase15DescriptorIndex11SymbolEntryENS_9allocatorIS4_EEEC2Em
__ZNSt3__16vectorIN11GMSx_proto225EncodedDescriptorDatabase15DescriptorIndex12EncodedEntryENS_9allocatorIS4_EEE13shrink_to_fitEv
__ZNSt3__16vectorIN11GMSx_proto225EncodedDescriptorDatabase15DescriptorIndex14ExtensionEntryENS_9allocatorIS4_EEE11__vallocateB8ue170006Em
__ZNSt3__16vectorIN11GMSx_proto225EncodedDescriptorDatabase15DescriptorIndex14ExtensionEntryENS_9allocatorIS4_EEE13__move_assignERS7_NS_17integral_constantIbLb1EEE
__ZNSt3__16vectorIN11GMSx_proto225EncodedDescriptorDatabase15DescriptorIndex14ExtensionEntryENS_9allocatorIS4_EEEC2Em
__ZNSt3__16vectorIN11GMSx_proto225EncodedDescriptorDatabase15DescriptorIndex9FileEntryENS_9allocatorIS4_EEE11__vallocateB8ue170006Em
__ZNSt3__16vectorIN11GMSx_proto225EncodedDescriptorDatabase15DescriptorIndex9FileEntryENS_9allocatorIS4_EEE13__move_assignERS7_NS_17integral_constantIbLb1EEE
__ZNSt3__16vectorIN11GMSx_proto225EncodedDescriptorDatabase15DescriptorIndex9FileEntryENS_9allocatorIS4_EEEC2Em
__ZNSt3__16vectorIN11GMSx_proto227FieldOptions_EditionDefaultENS_9allocatorIS2_EEE11__vallocateB8ue170006Em
__ZNSt3__16vectorIN11GMSx_proto227FieldOptions_EditionDefaultENS_9allocatorIS2_EEE16__destroy_vectorclB8ue170006Ev
__ZNSt3__16vectorIN11GMSx_proto22io7Printer6Format4LineENS_9allocatorIS5_EEE16__destroy_vectorclB8ue170006Ev
__ZNSt3__16vectorIN11GMSx_proto22io7Printer6Format4LineENS_9allocatorIS5_EEE22__base_destruct_at_endB8ue170006EPS5_
__ZNSt3__16vectorIN11GMSx_proto22io7Printer6Format4LineENS_9allocatorIS5_EEE26__swap_out_circular_bufferERNS_14__split_bufferIS5_RS7_EE
__ZNSt3__16vectorIN11GMSx_proto26SymbolENS_9allocatorIS2_EEE6resizeEm
__ZNSt3__16vectorIN11GMSx_proto26SymbolENS_9allocatorIS2_EEE8__appendEm
__ZNSt3__16vectorIN11GMSx_proto29GMSx_util18MessageDifferencer13SpecificFieldENS_9allocatorIS4_EEE11__vallocateB8ue170006Em
__ZNSt3__16vectorIN11util_intops6HandleIN12GMSx_mapcore7labeler27LabelCandidateBundleId_tag_EyEENS_9allocatorIS6_EEE11__vallocateB8un170006Em
__ZNSt3__16vectorIN12GMSx_mapcore16MapLoadingStatusENS_9allocatorIS2_EEE13__vdeallocateEv
__ZNSt3__16vectorIN12GMSx_mapcore16MapLoadingStatusENS_9allocatorIS2_EEE16__destroy_vectorclB8un170006Ev
__ZNSt3__16vectorIN12GMSx_mapcore16MapLoadingStatusENS_9allocatorIS2_EEE26__swap_out_circular_bufferERNS_14__split_bufferIS2_RS4_EE
__ZNSt3__16vectorIN12GMSx_mapcore5style14LazyStyleTable9LazyProtoENS_9allocatorIS4_EEE13shrink_to_fitEv
__ZNSt3__16vectorIN12GMSx_mapcore7labeler11RestrictionENS_9allocatorIS3_EEE16__destroy_vectorclB8un170006Ev
__ZNSt3__16vectorIN12GMSx_mapcore7labeler11RestrictionENS_9allocatorIS3_EEE26__swap_out_circular_bufferERNS_14__split_bufferIS3_RS5_EE
__ZNSt3__16vectorIN12GMSx_mapcore7labeler14StyleTransformENS_9allocatorIS3_EEE16__destroy_vectorclB8un170006Ev
__ZNSt3__16vectorIN12GMSx_mapcore7labeler14StyleTransformENS_9allocatorIS3_EEE26__swap_out_circular_bufferERNS_14__split_bufferIS3_RS5_EE
__ZNSt3__16vectorIN12GMSx_mapcore7labeler17PlacedLabelUpdateENS_9allocatorIS3_EEE13__vdeallocateEv
__ZNSt3__16vectorIN12GMSx_mapcore7labeler17PlacedLabelUpdateENS_9allocatorIS3_EEE16__destroy_vectorclB8ue170006Ev
__ZNSt3__16vectorIN12GMSx_mapcore7labeler17PlacedLabelUpdateENS_9allocatorIS3_EEE26__swap_out_circular_bufferERNS_14__split_bufferIS3_RS5_EE
__ZNSt3__16vectorIN12GMSx_mapcore7labeler17TileLabelOpBundleENS_9allocatorIS3_EEE13__vdeallocateEv
__ZNSt3__16vectorIN12GMSx_mapcore7labeler17TileLabelOpBundleENS_9allocatorIS3_EEE16__destroy_vectorclB8un170006Ev
__ZNSt3__16vectorIN12GMSx_mapcore7labeler17TileLabelOpBundleENS_9allocatorIS3_EEE22__base_destruct_at_endB8un170006EPS3_
__ZNSt3__16vectorIN12GMSx_mapcore7labeler17TileLabelOpBundleENS_9allocatorIS3_EEE26__swap_out_circular_bufferERNS_14__split_bufferIS3_RS5_EE
__ZNSt3__16vectorIN12GMSx_mapcore7labeler17TileLabelOpBundleENS_9allocatorIS3_EEE7reserveEm
__ZNSt3__16vectorIN12GMSx_mapcore7labeler18AnnotationsApplier17AppliedAnnotationENS_9allocatorIS4_EEE16__destroy_vectorclB8un170006Ev
__ZNSt3__16vectorIN12GMSx_mapcore7labeler18NinepatchIconLayerENS_9allocatorIS3_EEE16__destroy_vectorclB8un170006Ev
__ZNSt3__16vectorIN12GMSx_mapcore7labeler18NinepatchIconLayerENS_9allocatorIS3_EEE26__swap_out_circular_bufferERNS_14__split_bufferIS3_RS5_EE
__ZNSt3__16vectorIN12GMSx_mapcore7labeler18WorldLabelOpBundleENS_9allocatorIS3_EEE13__vdeallocateEv
__ZNSt3__16vectorIN12GMSx_mapcore7labeler18WorldLabelOpBundleENS_9allocatorIS3_EEE16__destroy_vectorclB8un170006Ev
__ZNSt3__16vectorIN12GMSx_mapcore7labeler18WorldLabelOpBundleENS_9allocatorIS3_EEE22__base_destruct_at_endB8un170006EPS3_
__ZNSt3__16vectorIN12GMSx_mapcore7labeler18WorldLabelOpBundleENS_9allocatorIS3_EEE26__swap_out_circular_bufferERNS_14__split_bufferIS3_RS5_EE
__ZNSt3__16vectorIN12GMSx_mapcore7labeler18WorldLabelOpBundleENS_9allocatorIS3_EEE7reserveEm
__ZNSt3__16vectorIN12GMSx_mapcore7labeler19CalloutStateTracker22ActiveCalloutCandidateENS_9allocatorIS4_EEE13__move_assignERS7_NS_17integral_constantIbLb1EEE
__ZNSt3__16vectorIN12GMSx_mapcore7labeler19CalloutStateTracker22ActiveCalloutCandidateENS_9allocatorIS4_EEE7reserveEm
__ZNSt3__16vectorIN12GMSx_mapcore7labeler24DensityRestrictionBucketENS_9allocatorIS3_EEE7reserveEm
__ZNSt3__16vectorIN12GMSx_mapcore7labeler9AlignmentENS_9allocatorIS3_EEE13__move_assignERS6_NS_17integral_constantIbLb1EEE
__ZNSt3__16vectorIN12GMSx_mapcore7labeler9IconLayerENS_9allocatorIS3_EEE16__destroy_vectorclB8un170006Ev
__ZNSt3__16vectorIN12GMSx_mapcore9RectangleIN13GMSx_filament4math7details5TVec2IfEEEENS_9allocatorIS8_EEE7reserveEm
__ZNSt3__16vectorIN12GMSx_mapcore9TileCoordENS_9allocatorIS2_EEE7reserveEm
__ZNSt3__16vectorIN13GMSx_filament4math7details5TVec2IfEENS_9allocatorIS5_EEE11__vallocateB8un170006Em
__ZNSt3__16vectorIN13GMSx_filament4math7details5TVec2IfEENS_9allocatorIS5_EEE13__move_assignERS8_NS_17integral_constantIbLb1EEE
__ZNSt3__16vectorIN13GMSx_filament4math7details5TVec2IfEENS_9allocatorIS5_EEE7reserveEm
__ZNSt3__16vectorIN13GMSx_filament4math7details5TVec2IiEENS_9allocatorIS5_EEE7reserveEm
__ZNSt3__16vectorIN13GMSx_filament4math7details5TVec3IdEENS_9allocatorIS5_EEE11__vallocateB8un170006Em
__ZNSt3__16vectorIN13GMSx_filament4math7details5TVec3IdEENS_9allocatorIS5_EEE7reserveEm
__ZNSt3__16vectorIN13GMSx_filament4math7details5TVec3IdEENS_9allocatorIS5_EEEC2ERKS8_
__ZNSt3__16vectorIN13GMSx_filament4math7details5TVec3IiEENS_9allocatorIS5_EEE7reserveEm
__ZNSt3__16vectorIN20GMSx_ShardedLRUCacheIN7gmscore6vector13CTLineBuilder12FontCacheKeyENS2_4base16scoped_cftyperefIPK8__CTFontEEN9GMSx_absl13hash_internal4HashIS5_EE19GMSx_SimpleLRUCacheIS5_SB_SF_NS_8equal_toIS5_EEN9GMSx_util5cache15CycleClockTimerEEE5ShardENS_9allocatorISO_EEE11__vallocateB8ue170006Em
__ZNSt3__16vectorIN20GMSx_ShardedLRUCacheIN7gmscore6vector13CTLineBuilder12FontCacheKeyENS2_4base16scoped_cftyperefIPK8__CTFontEEN9GMSx_absl13hash_internal4HashIS5_EE19GMSx_SimpleLRUCacheIS5_SB_SF_NS_8equal_toIS5_EEN9GMSx_util5cache15CycleClockTimerEEE5ShardENS_9allocatorISO_EEE16__destroy_vectorclB8ue170006Ev
__ZNSt3__16vectorIN20GMSx_ShardedLRUCacheIN7gmscore6vector13CTLineBuilder12FontCacheKeyENS2_4base16scoped_cftyperefIPK8__CTFontEEN9GMSx_absl13hash_internal4HashIS5_EE19GMSx_SimpleLRUCacheIS5_SB_SF_NS_8equal_toIS5_EEN9GMSx_util5cache15CycleClockTimerEEE5ShardENS_9allocatorISO_EEE22__base_destruct_at_endB8ue170006EPSO_
__ZNSt3__16vectorIN20GMSx_ShardedLRUCacheIN7gmscore6vector13CTLineBuilder12FontCacheKeyENS2_4base16scoped_cftyperefIPK8__CTFontEEN9GMSx_absl13hash_internal4HashIS5_EE19GMSx_SimpleLRUCacheIS5_SB_SF_NS_8equal_toIS5_EEN9GMSx_util5cache15CycleClockTimerEEE5ShardENS_9allocatorISO_EEEC2Em
__ZNSt3__16vectorIN20GMSx_ShardedLRUCacheIN7gmscore6vector13CTLineBuilder12LineCacheKeyENS2_4base16scoped_cftyperefIPK8__CTLineEEN9GMSx_absl13hash_internal4HashIS5_EE19GMSx_SimpleLRUCacheIS5_SB_SF_NS_8equal_toIS5_EEN9GMSx_util5cache15CycleClockTimerEEE5ShardENS_9allocatorISO_EEE11__vallocateB8ue170006Em
__ZNSt3__16vectorIN20GMSx_ShardedLRUCacheIN7gmscore6vector13CTLineBuilder12LineCacheKeyENS2_4base16scoped_cftyperefIPK8__CTLineEEN9GMSx_absl13hash_internal4HashIS5_EE19GMSx_SimpleLRUCacheIS5_SB_SF_NS_8equal_toIS5_EEN9GMSx_util5cache15CycleClockTimerEEE5ShardENS_9allocatorISO_EEE16__destroy_vectorclB8ue170006Ev
__ZNSt3__16vectorIN20GMSx_ShardedLRUCacheIN7gmscore6vector13CTLineBuilder12LineCacheKeyENS2_4base16scoped_cftyperefIPK8__CTLineEEN9GMSx_absl13hash_internal4HashIS5_EE19GMSx_SimpleLRUCacheIS5_SB_SF_NS_8equal_toIS5_EEN9GMSx_util5cache15CycleClockTimerEEE5ShardENS_9allocatorISO_EEE22__base_destruct_at_endB8ue170006EPSO_
__ZNSt3__16vectorIN20GMSx_ShardedLRUCacheIN7gmscore6vector13CTLineBuilder12LineCacheKeyENS2_4base16scoped_cftyperefIPK8__CTLineEEN9GMSx_absl13hash_internal4HashIS5_EE19GMSx_SimpleLRUCacheIS5_SB_SF_NS_8equal_toIS5_EEN9GMSx_util5cache15CycleClockTimerEEE5ShardENS_9allocatorISO_EEEC2Em
__ZNSt3__16vectorIN22GMSx_maps_paint_client18RenderOpAnnotationENS_9allocatorIS2_EEE26__swap_out_circular_bufferERNS_14__split_bufferIS2_RS4_EE
__ZNSt3__16vectorIN22GMSx_maps_paint_client19AnnotationAttributeENS_9allocatorIS2_EEE11__vallocateB8un170006Em
__ZNSt3__16vectorIN22GMSx_maps_paint_client19AnnotationAttributeENS_9allocatorIS2_EEE13__vdeallocateEv
__ZNSt3__16vectorIN22GMSx_maps_paint_client19AnnotationAttributeENS_9allocatorIS2_EEE16__destroy_vectorclB8un170006Ev
__ZNSt3__16vectorIN22GMSx_maps_paint_client19AnnotationAttributeENS_9allocatorIS2_EEE26__swap_out_circular_bufferERNS_14__split_bufferIS2_RS4_EE
__ZNSt3__16vectorIN22GMSx_maps_paint_client19AnnotationAttributeENS_9allocatorIS2_EEE7reserveEm
__ZNSt3__16vectorIN22GMSx_maps_paint_client9IconStyleENS_9allocatorIS2_EEE16__destroy_vectorclB8un170006Ev
__ZNSt3__16vectorIN22GMSx_maps_paint_client9IconStyleENS_9allocatorIS2_EEE26__swap_out_circular_bufferERNS_14__split_bufferIS2_RS4_EE
__ZNSt3__16vectorIN22GMSx_maps_paint_client9IconStyleENS_9allocatorIS2_EEE7reserveEm
__ZNSt3__16vectorIN23GMSx_geo_imagery_viewer12platform_ios14ServicesConfig12TileTemplateENS_9allocatorIS4_EEE11__vallocateB8ue170006Em
__ZNSt3__16vectorIN23GMSx_geo_imagery_viewer12platform_ios14ServicesConfig12TileTemplateENS_9allocatorIS4_EEE13__vdeallocateEv
__ZNSt3__16vectorIN23GMSx_geo_imagery_viewer12platform_ios14ServicesConfig12TileTemplateENS_9allocatorIS4_EEE16__destroy_vectorclB8ue170006Ev
__ZNSt3__16vectorIN23GMSx_geo_imagery_viewer12platform_ios14ServicesConfig12TileTemplateENS_9allocatorIS4_EEE22__base_destruct_at_endB8ue170006EPS4_
__ZNSt3__16vectorIN23GMSx_geo_imagery_viewer12platform_ios14ServicesConfig12TileTemplateENS_9allocatorIS4_EEE26__swap_out_circular_bufferERNS_14__split_bufferIS4_RS6_EE
__ZNSt3__16vectorIN23GMSx_geo_imagery_viewer3api10IconHandleENS_9allocatorIS3_EEE7reserveEm
__ZNSt3__16vectorIN23GMSx_geo_imagery_viewer4math5RangeIdLi2EEENS_9allocatorIS4_EEE26__swap_out_circular_bufferERNS_14__split_bufferIS4_RS6_EE
__ZNSt3__16vectorIN23GMSx_geo_imagery_viewer5swipe11PhotoVertexENS_9allocatorIS3_EEE16__destroy_vectorclB8ue170006Ev
__ZNSt3__16vectorIN23GMSx_geo_imagery_viewer5swipe11PhotoVertexENS_9allocatorIS3_EEE26__swap_out_circular_bufferERNS_14__split_bufferIS3_RS5_EE
__ZNSt3__16vectorIN23GMSx_geo_imagery_viewer7impress5PlaneENS_9allocatorIS3_EEE6resizeEm
__ZNSt3__16vectorIN23GMSx_geo_imagery_viewer7impress5PlaneENS_9allocatorIS3_EEE8__appendEm
__ZNSt3__16vectorIN23GMSx_geo_imagery_viewer7overlay13NodeCandidateENS_9allocatorIS3_EEE16__destroy_vectorclB8ue170006Ev
__ZNSt3__16vectorIN23GMSx_geo_imagery_viewer7overlay13NodeCandidateENS_9allocatorIS3_EEE26__swap_out_circular_bufferERNS_14__split_bufferIS3_RS5_EE
__ZNSt3__16vectorIN23GMSx_geo_imagery_viewer7overlay16RoadLabelManager17PreparedRoadLabelENS_9allocatorIS4_EEE13shrink_to_fitEv
__ZNSt3__16vectorIN23GMSx_geo_imagery_viewer7overlay16RoadLabelManager17PreparedRoadLabelENS_9allocatorIS4_EEE16__destroy_vectorclB8ue170006Ev
__ZNSt3__16vectorIN23GMSx_geo_imagery_viewer7overlay16RoadLabelManager17PreparedRoadLabelENS_9allocatorIS4_EEE26__swap_out_circular_bufferERNS_14__split_bufferIS4_RS6_EE
__ZNSt3__16vectorIN23GMSx_geo_imagery_viewer7overlay16RoadLabelManager17PreparedRoadLabelENS_9allocatorIS4_EEE7reserveEm
__ZNSt3__16vectorIN27GMSx_program_image_remapper19GMSx_classification7SectionENS_9allocatorIS3_EEE6resizeEm
__ZNSt3__16vectorIN27GMSx_program_image_remapper19GMSx_classification7SectionENS_9allocatorIS3_EEE8__appendEm
__ZNSt3__16vectorIN4simd8float4x4ENS_9allocatorIS2_EEE6resizeEmRKS2_
__ZNSt3__16vectorIN4simd8float4x4ENS_9allocatorIS2_EEE8__appendEmRKS2_
__ZNSt3__16vectorIN7gmscore4base10reffed_ptrINS1_6vector12FeatureGroupEEENS_9allocatorIS6_EEE12__move_rangeEPS6_SA_SA_
__ZNSt3__16vectorIN7gmscore4base10reffed_ptrINS1_6vector12FeatureGroupEEENS_9allocatorIS6_EEE16__destroy_vectorclB8ue170006Ev
__ZNSt3__16vectorIN7gmscore4base10reffed_ptrINS1_6vector12FeatureGroupEEENS_9allocatorIS6_EEE26__swap_out_circular_bufferERNS_14__split_bufferIS6_RS8_EE
__ZNSt3__16vectorIN7gmscore4base10reffed_ptrINS1_6vector12FeatureGroupEEENS_9allocatorIS6_EEE26__swap_out_circular_bufferERNS_14__split_bufferIS6_RS8_EEPS6_
__ZNSt3__16vectorIN7gmscore4base10reffed_ptrINS1_6vector12MutableStateEEENS_9allocatorIS6_EEE11__vallocateB8ue170006Em
__ZNSt3__16vectorIN7gmscore4base10reffed_ptrINS1_6vector12MutableStateEEENS_9allocatorIS6_EEE16__destroy_vectorclB8ue170006Ev
__ZNSt3__16vectorIN7gmscore4base10reffed_ptrINS1_6vector12MutableStateEEENS_9allocatorIS6_EEE26__swap_out_circular_bufferERNS_14__split_bufferIS6_RS8_EE
__ZNSt3__16vectorIN7gmscore4base10reffed_ptrINS1_6vector16GLBaseLabelBatchEEENS_9allocatorIS6_EEE16__destroy_vectorclB8ue170006Ev
__ZNSt3__16vectorIN7gmscore4base10reffed_ptrINS1_6vector16GLBaseLabelBatchEEENS_9allocatorIS6_EEE26__swap_out_circular_bufferERNS_14__split_bufferIS6_RS8_EE
__ZNSt3__16vectorIN7gmscore4base10reffed_ptrINS1_6vector17GMSMarkupInstanceEEENS_9allocatorIS6_EEE16__destroy_vectorclB8ue170006Ev
__ZNSt3__16vectorIN7gmscore4base10reffed_ptrINS1_6vector17GMSMarkupInstanceEEENS_9allocatorIS6_EEE26__swap_out_circular_bufferERNS_14__split_bufferIS6_RS8_EE
__ZNSt3__16vectorIN7gmscore4base10reffed_ptrINS1_6vector17GMSMarkupInstanceEEENS_9allocatorIS6_EEE7reserveEm
__ZNSt3__16vectorIN7gmscore4base10reffed_ptrINS1_6vector18TextureAtlasLayoutEEENS_9allocatorIS6_EEE16__destroy_vectorclB8ue170006Ev
__ZNSt3__16vectorIN7gmscore4base10reffed_ptrINS1_6vector18TextureAtlasLayoutEEENS_9allocatorIS6_EEE26__swap_out_circular_bufferERNS_14__split_bufferIS6_RS8_EE
__ZNSt3__16vectorIN7gmscore4base10reffed_ptrINS1_6vector18TextureAtlasLayoutEEENS_9allocatorIS6_EEE6resizeEm
__ZNSt3__16vectorIN7gmscore4base10reffed_ptrINS1_6vector18TextureAtlasLayoutEEENS_9allocatorIS6_EEE8__appendEm
__ZNSt3__16vectorIN7gmscore4base10reffed_ptrINS1_6vector19BuildingGroupSubsetEEENS_9allocatorIS6_EEE16__destroy_vectorclB8ue170006Ev
__ZNSt3__16vectorIN7gmscore4base10reffed_ptrINS1_6vector19BuildingGroupSubsetEEENS_9allocatorIS6_EEE26__swap_out_circular_bufferERNS_14__split_bufferIS6_RS8_EE
__ZNSt3__16vectorIN7gmscore4base10reffed_ptrINS1_6vector19MutableTextureAtlasEEENS_9allocatorIS6_EEE16__destroy_vectorclB8ue170006Ev
__ZNSt3__16vectorIN7gmscore4base10reffed_ptrINS1_6vector19MutableTextureAtlasEEENS_9allocatorIS6_EEE26__swap_out_circular_bufferERNS_14__split_bufferIS6_RS8_EE
__ZNSt3__16vectorIN7gmscore4base10reffed_ptrINS1_6vector19MyLocationIndicatorEEENS_9allocatorIS6_EEE16__destroy_vectorclB8ue170006Ev
__ZNSt3__16vectorIN7gmscore4base10reffed_ptrINS1_6vector19MyLocationIndicatorEEENS_9allocatorIS6_EEE26__swap_out_circular_bufferERNS_14__split_bufferIS6_RS8_EE
__ZNSt3__16vectorIN7gmscore4base10reffed_ptrINS1_6vector19MyLocationIndicatorEEENS_9allocatorIS6_EEE5eraseENS_11__wrap_iterIPKS6_EESD_
__ZNSt3__16vectorIN7gmscore4base10reffed_ptrINS1_6vector19TextureAtlasElementEEENS_9allocatorIS6_EEE11__vallocateB8ue170006Em
__ZNSt3__16vectorIN7gmscore4base10reffed_ptrINS1_6vector19TextureAtlasElementEEENS_9allocatorIS6_EEE13__vdeallocateEv
__ZNSt3__16vectorIN7gmscore4base10reffed_ptrINS1_6vector19TextureAtlasElementEEENS_9allocatorIS6_EEE16__destroy_vectorclB8ue170006Ev
__ZNSt3__16vectorIN7gmscore4base10reffed_ptrINS1_6vector19TextureAtlasElementEEENS_9allocatorIS6_EEE26__swap_out_circular_bufferERNS_14__split_bufferIS6_RS8_EE
__ZNSt3__16vectorIN7gmscore4base10reffed_ptrINS1_6vector24GMSGeneratedTextureAtlasEEENS_9allocatorIS6_EEE16__destroy_vectorclB8ue170006Ev
__ZNSt3__16vectorIN7gmscore4base10reffed_ptrINS1_6vector24GMSGeneratedTextureAtlasEEENS_9allocatorIS6_EEE26__swap_out_circular_bufferERNS_14__split_bufferIS6_RS8_EE
__ZNSt3__16vectorIN7gmscore4base10reffed_ptrINS1_6vector24GMSGeneratedTextureAtlasEEENS_9allocatorIS6_EEE7reserveEm
__ZNSt3__16vectorIN7gmscore4base10reffed_ptrINS1_6vector28GMSTexturedStrokeShaderStateEEENS_9allocatorIS6_EEE16__destroy_vectorclB8ue170006Ev
__ZNSt3__16vectorIN7gmscore4base10reffed_ptrINS1_6vector28GMSTexturedStrokeShaderStateEEENS_9allocatorIS6_EEE26__swap_out_circular_bufferERNS_14__split_bufferIS6_RS8_EE
__ZNSt3__16vectorIN7gmscore4base10reffed_ptrINS1_6vector4text13MetalGlyphSetEEENS_9allocatorIS7_EEE16__destroy_vectorclB8ue170006Ev
__ZNSt3__16vectorIN7gmscore4base10reffed_ptrINS1_6vector4text13MetalGlyphSetEEENS_9allocatorIS7_EEE26__swap_out_circular_bufferERNS_14__split_bufferIS7_RS9_EE
__ZNSt3__16vectorIN7gmscore4base10reffed_ptrINS1_6vector4text15RenderTextGroupEEENS_9allocatorIS7_EEE16__destroy_vectorclB8ue170006Ev
__ZNSt3__16vectorIN7gmscore4base10reffed_ptrINS1_6vector4text17TextureAtlasGlyphEEENS_9allocatorIS7_EEE16__destroy_vectorclB8ue170006Ev
__ZNSt3__16vectorIN7gmscore4base10reffed_ptrINS1_6vector4text17TextureAtlasGlyphEEENS_9allocatorIS7_EEE26__swap_out_circular_bufferERNS_14__split_bufferIS7_RS9_EE
__ZNSt3__16vectorIN7gmscore4base10reffed_ptrINS1_6vector4text17TextureAtlasGlyphEEENS_9allocatorIS7_EEE6resizeEm
__ZNSt3__16vectorIN7gmscore4base10reffed_ptrINS1_6vector4text17TextureAtlasGlyphEEENS_9allocatorIS7_EEE8__appendEm
__ZNSt3__16vectorIN7gmscore4base10reffed_ptrINS1_6vector4text20RenderableGlyphGroupEEENS_9allocatorIS7_EEE11__vallocateB8ue170006Em
__ZNSt3__16vectorIN7gmscore4base10reffed_ptrINS1_6vector4text20RenderableGlyphGroupEEENS_9allocatorIS7_EEE12__move_rangeEPS7_SB_SB_
__ZNSt3__16vectorIN7gmscore4base10reffed_ptrINS1_6vector4text20RenderableGlyphGroupEEENS_9allocatorIS7_EEE16__destroy_vectorclB8ue170006Ev
__ZNSt3__16vectorIN7gmscore4base10reffed_ptrINS1_6vector4text20RenderableGlyphGroupEEENS_9allocatorIS7_EEE26__swap_out_circular_bufferERNS_14__split_bufferIS7_RS9_EE
__ZNSt3__16vectorIN7gmscore4base10reffed_ptrINS1_6vector4text20RenderableGlyphGroupEEENS_9allocatorIS7_EEE26__swap_out_circular_bufferERNS_14__split_bufferIS7_RS9_EEPS7_
__ZNSt3__16vectorIN7gmscore4base10reffed_ptrINS1_6vector4text8BaseTextEEENS_9allocatorIS7_EEE11__vallocateB8ue170006Em
__ZNSt3__16vectorIN7gmscore4base10reffed_ptrINS1_6vector4text8BaseTextEEENS_9allocatorIS7_EEE13__vdeallocateEv
__ZNSt3__16vectorIN7gmscore4base10reffed_ptrINS1_6vector4text8BaseTextEEENS_9allocatorIS7_EEE16__destroy_vectorclB8ue170006Ev
__ZNSt3__16vectorIN7gmscore4base10reffed_ptrINS1_6vector4text8BaseTextEEENS_9allocatorIS7_EEE26__swap_out_circular_bufferERNS_14__split_bufferIS7_RS9_EE
__ZNSt3__16vectorIN7gmscore4base10reffed_ptrINS1_6vector4text8BaseTextEEENS_9allocatorIS7_EEEC2EmRKS7_
__ZNSt3__16vectorIN7gmscore4base10reffed_ptrINS1_6vector4text8GlyphSetEEENS_9allocatorIS7_EEE16__destroy_vectorclB8ue170006Ev
__ZNSt3__16vectorIN7gmscore4base10reffed_ptrINS1_6vector4text8GlyphSetEEENS_9allocatorIS7_EEE26__swap_out_circular_bufferERNS_14__split_bufferIS7_RS9_EE
__ZNSt3__16vectorIN7gmscore4base10reffed_ptrINS1_6vector6SpriteEEENS_9allocatorIS6_EEE11__vallocateB8ue170006Em
__ZNSt3__16vectorIN7gmscore4base10reffed_ptrINS1_6vector6SpriteEEENS_9allocatorIS6_EEE13__vdeallocateEv
__ZNSt3__16vectorIN7gmscore4base10reffed_ptrINS1_6vector6SpriteEEENS_9allocatorIS6_EEE16__destroy_vectorclB8ue170006Ev
__ZNSt3__16vectorIN7gmscore4base10reffed_ptrINS1_6vector6SpriteEEENS_9allocatorIS6_EEE26__swap_out_circular_bufferERNS_14__split_bufferIS6_RS8_EE
__ZNSt3__16vectorIN7gmscore4base10reffed_ptrINS1_8renderer10BaseEntityEEENS_9allocatorIS6_EEE11__vallocateB8ue170006Em
__ZNSt3__16vectorIN7gmscore4base10reffed_ptrINS1_8renderer10BaseEntityEEENS_9allocatorIS6_EEE12__move_rangeEPS6_SA_SA_
__ZNSt3__16vectorIN7gmscore4base10reffed_ptrINS1_8renderer10BaseEntityEEENS_9allocatorIS6_EEE13__vdeallocateEv
__ZNSt3__16vectorIN7gmscore4base10reffed_ptrINS1_8renderer10BaseEntityEEENS_9allocatorIS6_EEE16__destroy_vectorclB8ue170006Ev
__ZNSt3__16vectorIN7gmscore4base10reffed_ptrINS1_8renderer10BaseEntityEEENS_9allocatorIS6_EEE26__swap_out_circular_bufferERNS_14__split_bufferIS6_RS8_EE
__ZNSt3__16vectorIN7gmscore4base10reffed_ptrINS1_8renderer10BaseEntityEEENS_9allocatorIS6_EEE26__swap_out_circular_bufferERNS_14__split_bufferIS6_RS8_EEPS6_
__ZNSt3__16vectorIN7gmscore4base10reffed_ptrINS1_8renderer10BaseEntityEEENS_9allocatorIS6_EEE6insertENS_11__wrap_iterIPKS6_EERSB_
__ZNSt3__16vectorIN7gmscore4base10reffed_ptrINS1_8renderer10BaseEntityEEENS_9allocatorIS6_EEE7reserveEm
__ZNSt3__16vectorIN7gmscore4base10reffed_ptrINS1_8renderer10VertexDataEEENS_9allocatorIS6_EEE16__destroy_vectorclB8ue170006Ev
__ZNSt3__16vectorIN7gmscore4base10reffed_ptrINS1_8renderer10VertexDataEEENS_9allocatorIS6_EEE26__swap_out_circular_bufferERNS_14__split_bufferIS6_RS8_EE
__ZNSt3__16vectorIN7gmscore4base10reffed_ptrINS1_8renderer12PolygonStateEEENS_9allocatorIS6_EEE16__destroy_vectorclB8ue170006Ev
__ZNSt3__16vectorIN7gmscore4base10reffed_ptrINS1_8renderer12PolygonStateEEENS_9allocatorIS6_EEE26__swap_out_circular_bufferERNS_14__split_bufferIS6_RS8_EE
__ZNSt3__16vectorIN7gmscore4base10reffed_ptrINS1_8renderer16AlphaShaderStateEEENS_9allocatorIS6_EEE11__vallocateB8ue170006Em
__ZNSt3__16vectorIN7gmscore4base10reffed_ptrINS1_8renderer16AlphaShaderStateEEENS_9allocatorIS6_EEE16__destroy_vectorclB8ue170006Ev
__ZNSt3__16vectorIN7gmscore4base10reffed_ptrINS1_8renderer16AlphaShaderStateEEENS_9allocatorIS6_EEE26__swap_out_circular_bufferERNS_14__split_bufferIS6_RS8_EE
__ZNSt3__16vectorIN7gmscore4base10reffed_ptrINS1_8renderer17VBOWithAttributesEEENS_9allocatorIS6_EEE11__vallocateB8ue170006Em
__ZNSt3__16vectorIN7gmscore4base10reffed_ptrINS1_8renderer17VBOWithAttributesEEENS_9allocatorIS6_EEE16__destroy_vectorclB8ue170006Ev
__ZNSt3__16vectorIN7gmscore4base10reffed_ptrINS1_8renderer17VBOWithAttributesEEENS_9allocatorIS6_EEE26__swap_out_circular_bufferERNS_14__split_bufferIS6_RS8_EE
__ZNSt3__16vectorIN7gmscore4base10reffed_ptrINS1_8renderer17VBOWithAttributesEEENS_9allocatorIS6_EEE6resizeEm
__ZNSt3__16vectorIN7gmscore4base10reffed_ptrINS1_8renderer17VBOWithAttributesEEENS_9allocatorIS6_EEE8__appendEm
__ZNSt3__16vectorIN7gmscore4base10reffed_ptrINS1_8renderer17VertexArrayObjectEEENS_9allocatorIS6_EEE16__destroy_vectorclB8ue170006Ev
__ZNSt3__16vectorIN7gmscore4base10reffed_ptrINS1_8renderer17VertexArrayObjectEEENS_9allocatorIS6_EEE26__swap_out_circular_bufferERNS_14__split_bufferIS6_RS8_EE
__ZNSt3__16vectorIN7gmscore4base10reffed_ptrINS1_8renderer21SafeVBOWithAttributesINS1_6vector22GMSLineStampAttributesEEEEENS_9allocatorIS9_EEE11__vallocateB8ue170006Em
__ZNSt3__16vectorIN7gmscore4base10reffed_ptrINS1_8renderer21SafeVBOWithAttributesINS1_6vector22GMSLineStampAttributesEEEEENS_9allocatorIS9_EEE16__destroy_vectorclB8ue170006Ev
__ZNSt3__16vectorIN7gmscore4base10reffed_ptrINS1_8renderer21SafeVBOWithAttributesINS1_6vector22GMSLineStampAttributesEEEEENS_9allocatorIS9_EEE26__swap_out_circular_bufferERNS_14__split_bufferIS9_RSB_EE
__ZNSt3__16vectorIN7gmscore4base10reffed_ptrINS1_8renderer21SafeVBOWithAttributesINS1_6vector22GMSLineStampAttributesEEEEENS_9allocatorIS9_EEE6resizeEm
__ZNSt3__16vectorIN7gmscore4base10reffed_ptrINS1_8renderer21SafeVBOWithAttributesINS1_6vector22GMSLineStampAttributesEEEEENS_9allocatorIS9_EEE8__appendEm
__ZNSt3__16vectorIN7gmscore4base10reffed_ptrINS1_8renderer21SafeVBOWithAttributesINS1_6vector24GMSLineConsumeAttributesEEEEENS_9allocatorIS9_EEE11__vallocateB8ue170006Em
__ZNSt3__16vectorIN7gmscore4base10reffed_ptrINS1_8renderer21SafeVBOWithAttributesINS1_6vector24GMSLineConsumeAttributesEEEEENS_9allocatorIS9_EEE16__destroy_vectorclB8ue170006Ev
__ZNSt3__16vectorIN7gmscore4base10reffed_ptrINS1_8renderer21SafeVBOWithAttributesINS1_6vector24GMSLineConsumeAttributesEEEEENS_9allocatorIS9_EEE26__swap_out_circular_bufferERNS_14__split_bufferIS9_RSB_EE
__ZNSt3__16vectorIN7gmscore4base10reffed_ptrINS1_8renderer21SafeVBOWithAttributesINS1_6vector24GMSLineConsumeAttributesEEEEENS_9allocatorIS9_EEE6resizeEm
__ZNSt3__16vectorIN7gmscore4base10reffed_ptrINS1_8renderer21SafeVBOWithAttributesINS1_6vector24GMSLineConsumeAttributesEEEEENS_9allocatorIS9_EEE8__appendEm
__ZNSt3__16vectorIN7gmscore4base10reffed_ptrINS1_8renderer21SafeVBOWithAttributesINS1_6vector24GMSLineStippleAttributesEEEEENS_9allocatorIS9_EEE11__vallocateB8ue170006Em
__ZNSt3__16vectorIN7gmscore4base10reffed_ptrINS1_8renderer21SafeVBOWithAttributesINS1_6vector24GMSLineStippleAttributesEEEEENS_9allocatorIS9_EEE16__destroy_vectorclB8ue170006Ev
__ZNSt3__16vectorIN7gmscore4base10reffed_ptrINS1_8renderer21SafeVBOWithAttributesINS1_6vector24GMSLineStippleAttributesEEEEENS_9allocatorIS9_EEE26__swap_out_circular_bufferERNS_14__split_bufferIS9_RSB_EE
__ZNSt3__16vectorIN7gmscore4base10reffed_ptrINS1_8renderer21SafeVBOWithAttributesINS1_6vector24GMSLineStippleAttributesEEEEENS_9allocatorIS9_EEE6resizeEm
__ZNSt3__16vectorIN7gmscore4base10reffed_ptrINS1_8renderer21SafeVBOWithAttributesINS1_6vector24GMSLineStippleAttributesEEEEENS_9allocatorIS9_EEE8__appendEm
__ZNSt3__16vectorIN7gmscore4base10reffed_ptrINS1_8renderer21SafeVBOWithAttributesINS1_6vector30GMSLineColorAndWidthAttributesEEEEENS_9allocatorIS9_EEE11__vallocateB8ue170006Em
__ZNSt3__16vectorIN7gmscore4base10reffed_ptrINS1_8renderer21SafeVBOWithAttributesINS1_6vector30GMSLineColorAndWidthAttributesEEEEENS_9allocatorIS9_EEE16__destroy_vectorclB8ue170006Ev
__ZNSt3__16vectorIN7gmscore4base10reffed_ptrINS1_8renderer21SafeVBOWithAttributesINS1_6vector30GMSLineColorAndWidthAttributesEEEEENS_9allocatorIS9_EEE26__swap_out_circular_bufferERNS_14__split_bufferIS9_RSB_EE
__ZNSt3__16vectorIN7gmscore4base10reffed_ptrINS1_8renderer21SafeVBOWithAttributesINS1_6vector30GMSLineColorAndWidthAttributesEEEEENS_9allocatorIS9_EEE6resizeEm
__ZNSt3__16vectorIN7gmscore4base10reffed_ptrINS1_8renderer21SafeVBOWithAttributesINS1_6vector30GMSLineColorAndWidthAttributesEEEEENS_9allocatorIS9_EEE8__appendEm
__ZNSt3__16vectorIN7gmscore4base10reffed_ptrINS1_8renderer27DistanceConsumedShaderStateEEENS_9allocatorIS6_EEE16__destroy_vectorclB8ue170006Ev
__ZNSt3__16vectorIN7gmscore4base10reffed_ptrINS1_8renderer27DistanceConsumedShaderStateEEENS_9allocatorIS6_EEE26__swap_out_circular_bufferERNS_14__split_bufferIS6_RS8_EE
__ZNSt3__16vectorIN7gmscore4base10reffed_ptrINS1_8renderer8BehaviorEEENS_9allocatorIS6_EEE16__destroy_vectorclB8ue170006Ev
__ZNSt3__16vectorIN7gmscore4base10reffed_ptrINS1_8renderer8BehaviorEEENS_9allocatorIS6_EEE26__swap_out_circular_bufferERNS_14__split_bufferIS6_RS8_EE
__ZNSt3__16vectorIN7gmscore4base16scoped_cftyperefIP9CGContextEENS_9allocatorIS6_EEE16__destroy_vectorclB8ue170006Ev
__ZNSt3__16vectorIN7gmscore4base16scoped_cftyperefIP9CGContextEENS_9allocatorIS6_EEE26__swap_out_circular_bufferERNS_14__split_bufferIS6_RS8_EE
__ZNSt3__16vectorIN7gmscore4base16scoped_cftyperefIP9CGContextEENS_9allocatorIS6_EEE6resizeEm
__ZNSt3__16vectorIN7gmscore4base16scoped_cftyperefIP9CGContextEENS_9allocatorIS6_EEE8__appendEm
__ZNSt3__16vectorIN7gmscore4math8Vector2fENS_9allocatorIS3_EEE11__vallocateB8ue170006Em
__ZNSt3__16vectorIN7gmscore4math8Vector2fENS_9allocatorIS3_EEE13__move_assignERS6_NS_17integral_constantIbLb1EEE
__ZNSt3__16vectorIN7gmscore4math8Vector2fENS_9allocatorIS3_EEE7reserveEm
__ZNSt3__16vectorIN7gmscore4math8Vector2fENS_9allocatorIS3_EEEC2Em
__ZNSt3__16vectorIN7gmscore5model10LabelGroupENS_9allocatorIS3_EEE13__vdeallocateEv
__ZNSt3__16vectorIN7gmscore5model10LabelGroupENS_9allocatorIS3_EEE16__destroy_vectorclB8ue170006Ev
__ZNSt3__16vectorIN7gmscore5model10LabelGroupENS_9allocatorIS3_EEE22__base_destruct_at_endB8ue170006EPS3_
__ZNSt3__16vectorIN7gmscore5model10LabelGroupENS_9allocatorIS3_EEE26__swap_out_circular_bufferERNS_14__split_bufferIS3_RS5_EE
__ZNSt3__16vectorIN7gmscore5model10Polyline2DENS_9allocatorIS3_EEE11__vallocateB8ue170006Em
__ZNSt3__16vectorIN7gmscore5model10Polyline2DENS_9allocatorIS3_EEE12__move_rangeEPS3_S7_S7_
__ZNSt3__16vectorIN7gmscore5model10Polyline2DENS_9allocatorIS3_EEE13__vdeallocateEv
__ZNSt3__16vectorIN7gmscore5model10Polyline2DENS_9allocatorIS3_EEE16__destroy_vectorclB8ue170006Ev
__ZNSt3__16vectorIN7gmscore5model10Polyline2DENS_9allocatorIS3_EEE26__swap_out_circular_bufferERNS_14__split_bufferIS3_RS5_EE
__ZNSt3__16vectorIN7gmscore5model10Polyline2DENS_9allocatorIS3_EEE26__swap_out_circular_bufferERNS_14__split_bufferIS3_RS5_EEPS3_
__ZNSt3__16vectorIN7gmscore5model10Polyline2DENS_9allocatorIS3_EEE7reserveEm
__ZNSt3__16vectorIN7gmscore5model10Triangle2DENS_9allocatorIS3_EEE13__vdeallocateEv
__ZNSt3__16vectorIN7gmscore5model10Triangle2DENS_9allocatorIS3_EEE16__destroy_vectorclB8ue170006Ev
__ZNSt3__16vectorIN7gmscore5model10Triangle2DENS_9allocatorIS3_EEE26__swap_out_circular_bufferERNS_14__split_bufferIS3_RS5_EE
__ZNSt3__16vectorIN7gmscore5model10Triangle2DENS_9allocatorIS3_EEE7reserveEm
__ZNSt3__16vectorIN7gmscore5model11Rectangle2DENS_9allocatorIS3_EEE11__vallocateB8ue170006Em
__ZNSt3__16vectorIN7gmscore5model11Rectangle2DENS_9allocatorIS3_EEE16__destroy_vectorclB8ue170006Ev
__ZNSt3__16vectorIN7gmscore5model11Rectangle2DENS_9allocatorIS3_EEE7reserveEm
__ZNSt3__16vectorIN7gmscore5model11Rectangle2DENS_9allocatorIS3_EEEC2Em
__ZNSt3__16vectorIN7gmscore5model11Rectangle2fENS_9allocatorIS3_EEE11__vallocateB8ue170006Em
__ZNSt3__16vectorIN7gmscore5model11Rectangle2fENS_9allocatorIS3_EEE13__vdeallocateEv
__ZNSt3__16vectorIN7gmscore5model11Rectangle2fENS_9allocatorIS3_EEE16__destroy_vectorclB8ue170006Ev
__ZNSt3__16vectorIN7gmscore5model11Rectangle2fENS_9allocatorIS3_EEE7reserveEm
__ZNSt3__16vectorIN7gmscore5model12LabelElementENS_9allocatorIS3_EEE11__vallocateB8ue170006Em
__ZNSt3__16vectorIN7gmscore5model12LabelElementENS_9allocatorIS3_EEE13__vdeallocateEv
__ZNSt3__16vectorIN7gmscore5model12LabelElementENS_9allocatorIS3_EEE16__destroy_vectorclB8ue170006Ev
__ZNSt3__16vectorIN7gmscore5model12LabelElementENS_9allocatorIS3_EEE26__swap_out_circular_bufferERNS_14__split_bufferIS3_RS5_EE
__ZNSt3__16vectorIN7gmscore5model14Point2DSegmentENS_9allocatorIS3_EEE7reserveEm
__ZNSt3__16vectorIN7gmscore5model14PolylineSpan2DENS_9allocatorIS3_EEE11__vallocateB8ue170006Em
__ZNSt3__16vectorIN7gmscore5model14PolylineSpan2DENS_9allocatorIS3_EEE16__destroy_vectorclB8ue170006Ev
__ZNSt3__16vectorIN7gmscore5model14PolylineSpan2DENS_9allocatorIS3_EEE26__swap_out_circular_bufferERNS_14__split_bufferIS3_RS5_EE
__ZNSt3__16vectorIN7gmscore5model15stripified_mesh12NormalVectorENS_9allocatorIS4_EEE11__vallocateB8ue170006Em
__ZNSt3__16vectorIN7gmscore5model16AbsolutePositionENS_9allocatorIS3_EEE11__vallocateB8ue170006Em
__ZNSt3__16vectorIN7gmscore5model16AbsolutePositionENS_9allocatorIS3_EEE26__swap_out_circular_bufferERNS_14__split_bufferIS3_RS5_EE
__ZNSt3__16vectorIN7gmscore5model6StrokeENS_9allocatorIS3_EEE11__vallocateB8ue170006Em
__ZNSt3__16vectorIN7gmscore5model6StrokeENS_9allocatorIS3_EEE13__vdeallocateEv
__ZNSt3__16vectorIN7gmscore5model6StrokeENS_9allocatorIS3_EEE16__destroy_vectorclB8ue170006Ev
__ZNSt3__16vectorIN7gmscore5model6StrokeENS_9allocatorIS3_EEE22__base_destruct_at_endB8ue170006EPS3_
__ZNSt3__16vectorIN7gmscore5model6StrokeENS_9allocatorIS3_EEE26__swap_out_circular_bufferERNS_14__split_bufferIS3_RS5_EE
__ZNSt3__16vectorIN7gmscore5model6StrokeENS_9allocatorIS3_EEE7__clearB8ue170006Ev
__ZNSt3__16vectorIN7gmscore5model7Point2DENS_9allocatorIS3_EEE11__vallocateB8ue170006Em
__ZNSt3__16vectorIN7gmscore5model7Point2DENS_9allocatorIS3_EEE13__move_assignERS6_NS_17integral_constantIbLb1EEE
__ZNSt3__16vectorIN7gmscore5model7Point2DENS_9allocatorIS3_EEE26__swap_out_circular_bufferERNS_14__split_bufferIS3_RS5_EEPS3_
__ZNSt3__16vectorIN7gmscore5model7Point2DENS_9allocatorIS3_EEE6resizeEm
__ZNSt3__16vectorIN7gmscore5model7Point2DENS_9allocatorIS3_EEE7reserveEm
__ZNSt3__16vectorIN7gmscore5model7Point2DENS_9allocatorIS3_EEE8__appendEm
__ZNSt3__16vectorIN7gmscore5model7Point2DENS_9allocatorIS3_EEEC2Em
__ZNSt3__16vectorIN7gmscore5model7Point3DENS_9allocatorIS3_EEE11__vallocateB8ue170006Em
__ZNSt3__16vectorIN7gmscore5model7Point3DENS_9allocatorIS3_EEE26__swap_out_circular_bufferERNS_14__split_bufferIS3_RS5_EE
__ZNSt3__16vectorIN7gmscore5model7Point3DENS_9allocatorIS3_EEE7reserveEm
__ZNSt3__16vectorIN7gmscore5model9AlignmentENS_9allocatorIS3_EEE11__vallocateB8ue170006Em
__ZNSt3__16vectorIN7gmscore5model9AlignmentENS_9allocatorIS3_EEE13__move_assignERS6_NS_17integral_constantIbLb1EEE
__ZNSt3__16vectorIN7gmscore5model9AlignmentENS_9allocatorIS3_EEE26__swap_out_circular_bufferERNS_14__split_bufferIS3_RS5_EE
__ZNSt3__16vectorIN7gmscore5model9Clipper2D10ClipResultENS_9allocatorIS4_EEE16__destroy_vectorclB8ue170006Ev
__ZNSt3__16vectorIN7gmscore5model9Clipper2D10ClipResultENS_9allocatorIS4_EEE22__base_destruct_at_endB8ue170006EPS4_
__ZNSt3__16vectorIN7gmscore5model9Clipper2D10ClipResultENS_9allocatorIS4_EEE26__swap_out_circular_bufferERNS_14__split_bufferIS4_RS6_EE
__ZNSt3__16vectorIN7gmscore5model9Frustum2DENS_9allocatorIS3_EEE16__destroy_vectorclB8ue170006Ev
__ZNSt3__16vectorIN7gmscore5model9Frustum2DENS_9allocatorIS3_EEE26__swap_out_circular_bufferERNS_14__split_bufferIS3_RS5_EE
__ZNSt3__16vectorIN7gmscore6vector12ColoredPointENS_9allocatorIS3_EEE11__vallocateB8ue170006Em
__ZNSt3__16vectorIN7gmscore6vector12ColoredPointENS_9allocatorIS3_EEE13__move_assignERS6_NS_17integral_constantIbLb1EEE
__ZNSt3__16vectorIN7gmscore6vector13GLStrokeLayer17LineAttributeInfoENS_9allocatorIS4_EEE16__destroy_vectorclB8ue170006Ev
__ZNSt3__16vectorIN7gmscore6vector13GLStrokeLayer17LineAttributeInfoENS_9allocatorIS4_EEE26__swap_out_circular_bufferERNS_14__split_bufferIS4_RS6_EE
__ZNSt3__16vectorIN7gmscore6vector13GLStrokeLayer17LineAttributeInfoENS_9allocatorIS4_EEE6resizeEm
__ZNSt3__16vectorIN7gmscore6vector13GLStrokeLayer17LineAttributeInfoENS_9allocatorIS4_EEE8__appendEm
__ZNSt3__16vectorIN7gmscore6vector13GLStrokeLayer22LineAllStyleAttributesENS_9allocatorIS4_EEE6resizeEm
__ZNSt3__16vectorIN7gmscore6vector13GLStrokeLayer22LineAllStyleAttributesENS_9allocatorIS4_EEE8__appendEm
__ZNSt3__16vectorIN7gmscore6vector13LabelProvider19LabelCandidateBatchENS_9allocatorIS4_EEE13__vdeallocateEv
__ZNSt3__16vectorIN7gmscore6vector13LabelProvider19LabelCandidateBatchENS_9allocatorIS4_EEE16__destroy_vectorclB8ue170006Ev
__ZNSt3__16vectorIN7gmscore6vector13LabelProvider19LabelCandidateBatchENS_9allocatorIS4_EEE7reserveEm
__ZNSt3__16vectorIN7gmscore6vector13NinePatchInfo6RegionENS_9allocatorIS4_EEE11__vallocateB8ue170006Em
__ZNSt3__16vectorIN7gmscore6vector13NinePatchInfoENS_9allocatorIS3_EEE16__destroy_vectorclB8ue170006Ev
__ZNSt3__16vectorIN7gmscore6vector13NinePatchInfoENS_9allocatorIS3_EEE22__base_destruct_at_endB8ue170006EPS3_
__ZNSt3__16vectorIN7gmscore6vector13NinePatchInfoENS_9allocatorIS3_EEE26__swap_out_circular_bufferERNS_14__split_bufferIS3_RS5_EE
__ZNSt3__16vectorIN7gmscore6vector13NinePatchInfoENS_9allocatorIS3_EEE7reserveEm
__ZNSt3__16vectorIN7gmscore6vector13NinePatchInfoENS_9allocatorIS3_EEE9push_backB8ue170006ERKS3_
__ZNSt3__16vectorIN7gmscore6vector14AnimatedValues13AnimatedValueENS_9allocatorIS4_EEE13__move_assignERS7_NS_17integral_constantIbLb1EEE
__ZNSt3__16vectorIN7gmscore6vector14AnimatedValues13AnimatedValueENS_9allocatorIS4_EEE7reserveEm
__ZNSt3__16vectorIN7gmscore6vector14AnimatedValuesENS_9allocatorIS3_EEE16__destroy_vectorclB8ue170006Ev
__ZNSt3__16vectorIN7gmscore6vector14AnimatedValuesENS_9allocatorIS3_EEE26__swap_out_circular_bufferERNS_14__split_bufferIS3_RS5_EE
__ZNSt3__16vectorIN7gmscore6vector14ColorPairPointENS_9allocatorIS3_EEE7reserveEm
__ZNSt3__16vectorIN7gmscore6vector14MarkupPolylineENS_9allocatorIS3_EEE16__destroy_vectorclB8ue170006Ev
__ZNSt3__16vectorIN7gmscore6vector14MarkupPolylineENS_9allocatorIS3_EEE22__base_destruct_at_endB8ue170006EPS3_
__ZNSt3__16vectorIN7gmscore6vector14MarkupPolylineENS_9allocatorIS3_EEE26__swap_out_circular_bufferERNS_14__split_bufferIS3_RS5_EE
__ZNSt3__16vectorIN7gmscore6vector16ColoredTextStyleENS_9allocatorIS3_EEE6resizeEmRKS3_
__ZNSt3__16vectorIN7gmscore6vector16ColoredTextStyleENS_9allocatorIS3_EEE8__appendEmRKS3_
__ZNSt3__16vectorIN7gmscore6vector17GMSMarkupBehavior17InstanceOperationENS_9allocatorIS4_EEE16__destroy_vectorclB8ue170006Ev
__ZNSt3__16vectorIN7gmscore6vector17GMSMarkupBehavior17InstanceOperationENS_9allocatorIS4_EEE26__swap_out_circular_bufferERNS_14__split_bufferIS4_RS6_EE
__ZNSt3__16vectorIN7gmscore6vector17PlaceholderUpdateENS_9allocatorIS3_EEE11__vallocateB8ue170006Em
__ZNSt3__16vectorIN7gmscore6vector17PlaceholderUpdateENS_9allocatorIS3_EEE12__move_rangeEPS3_S7_S7_
__ZNSt3__16vectorIN7gmscore6vector17PlaceholderUpdateENS_9allocatorIS3_EEE13__vdeallocateEv
__ZNSt3__16vectorIN7gmscore6vector17PlaceholderUpdateENS_9allocatorIS3_EEE16__destroy_vectorclB8ue170006Ev
__ZNSt3__16vectorIN7gmscore6vector17PlaceholderUpdateENS_9allocatorIS3_EEE26__swap_out_circular_bufferERNS_14__split_bufferIS3_RS5_EE
__ZNSt3__16vectorIN7gmscore6vector17PlaceholderUpdateENS_9allocatorIS3_EEE26__swap_out_circular_bufferERNS_14__split_bufferIS3_RS5_EEPS3_
__ZNSt3__16vectorIN7gmscore6vector17PlaceholderUpdateENS_9allocatorIS3_EEE5eraseENS_11__wrap_iterIPKS3_EESA_
__ZNSt3__16vectorIN7gmscore6vector17PlaceholderUpdateENS_9allocatorIS3_EEE9push_backB8ue170006ERKS3_
__ZNSt3__16vectorIN7gmscore6vector17PolylineVertexSetENS_9allocatorIS3_EEE16__destroy_vectorclB8ue170006Ev
__ZNSt3__16vectorIN7gmscore6vector17PolylineVertexSetENS_9allocatorIS3_EEE26__swap_out_circular_bufferERNS_14__split_bufferIS3_RS5_EE
__ZNSt3__16vectorIN7gmscore6vector17PolylineVertexSetENS_9allocatorIS3_EEE7reserveEm
__ZNSt3__16vectorIN7gmscore6vector18PolylineSimplifier10ActionDataENS_9allocatorIS4_EEE13__move_assignERS7_NS_17integral_constantIbLb1EEE
__ZNSt3__16vectorIN7gmscore6vector18PolylineSimplifier14SimplifyResultENS_9allocatorIS4_EEE16__destroy_vectorclB8ue170006Ev
__ZNSt3__16vectorIN7gmscore6vector18PolylineSimplifier14SimplifyResultENS_9allocatorIS4_EEE22__base_destruct_at_endB8ue170006EPS4_
__ZNSt3__16vectorIN7gmscore6vector18PolylineSimplifier14SimplifyResultENS_9allocatorIS4_EEE26__swap_out_circular_bufferERNS_14__split_bufferIS4_RS6_EE
__ZNSt3__16vectorIN7gmscore6vector18PolylineSimplifier9PointDataENS_9allocatorIS4_EEE13__move_assignERS7_NS_17integral_constantIbLb1EEE
__ZNSt3__16vectorIN7gmscore6vector18PolylineSimplifier9PointDataENS_9allocatorIS4_EEE7reserveEm
__ZNSt3__16vectorIN7gmscore6vector18PolylineSimplifierENS_9allocatorIS3_EEE16__destroy_vectorclB8ue170006Ev
__ZNSt3__16vectorIN7gmscore6vector18PolylineSimplifierENS_9allocatorIS3_EEE22__base_destruct_at_endB8ue170006EPS3_
__ZNSt3__16vectorIN7gmscore6vector18PolylineSimplifierENS_9allocatorIS3_EEE26__swap_out_circular_bufferERNS_14__split_bufferIS3_RS5_EE
__ZNSt3__16vectorIN7gmscore6vector18PolylineSimplifierENS_9allocatorIS3_EEE7reserveEm
__ZNSt3__16vectorIN7gmscore6vector18TextureAtlasRegionENS_9allocatorIS3_EEE7reserveEm
__ZNSt3__16vectorIN7gmscore6vector22GMSLineStampAttributesENS_9allocatorIS3_EEE11__vallocateB8ue170006Em
__ZNSt3__16vectorIN7gmscore6vector22GMSLineStampAttributesENS_9allocatorIS3_EEEC2Em
__ZNSt3__16vectorIN7gmscore6vector22TexturedDistanceVertexENS_9allocatorIS3_EEE7reserveEm
__ZNSt3__16vectorIN7gmscore6vector23ClientVectorOpsBehavior16PendingOperationENS_9allocatorIS4_EEE16__destroy_vectorclB8ue170006Ev
__ZNSt3__16vectorIN7gmscore6vector23ClientVectorOpsBehavior16PendingOperationENS_9allocatorIS4_EEE26__swap_out_circular_bufferERNS_14__split_bufferIS4_RS6_EE
__ZNSt3__16vectorIN7gmscore6vector24GMSLineConsumeAttributesENS_9allocatorIS3_EEE11__vallocateB8ue170006Em
__ZNSt3__16vectorIN7gmscore6vector24GMSLineConsumeAttributesENS_9allocatorIS3_EEEC2Em
__ZNSt3__16vectorIN7gmscore6vector24GMSLineStippleAttributesENS_9allocatorIS3_EEE11__vallocateB8ue170006Em
__ZNSt3__16vectorIN7gmscore6vector24GMSLineStippleAttributesENS_9allocatorIS3_EEEC2Em
__ZNSt3__16vectorIN7gmscore6vector28GMSGeneratedTextureAtlasInfoENS_9allocatorIS3_EEE16__destroy_vectorclB8ue170006Ev
__ZNSt3__16vectorIN7gmscore6vector28GMSGeneratedTextureAtlasInfoENS_9allocatorIS3_EEE22__base_destruct_at_endB8ue170006EPS3_
__ZNSt3__16vectorIN7gmscore6vector28GMSGeneratedTextureAtlasInfoENS_9allocatorIS3_EEE26__swap_out_circular_bufferERNS_14__split_bufferIS3_RS5_EE
__ZNSt3__16vectorIN7gmscore6vector28GMSGeneratedTextureAtlasInfoENS_9allocatorIS3_EEE7reserveEm
__ZNSt3__16vectorIN7gmscore6vector30GMSLineColorAndWidthAttributesENS_9allocatorIS3_EEE11__vallocateB8ue170006Em
__ZNSt3__16vectorIN7gmscore6vector30GMSLineColorAndWidthAttributesENS_9allocatorIS3_EEEC2Em
__ZNSt3__16vectorIN7gmscore6vector37LayeredSpritePerLayerFragmentUniformsENS_9allocatorIS3_EEE6resizeEm
__ZNSt3__16vectorIN7gmscore6vector37LayeredSpritePerLayerFragmentUniformsENS_9allocatorIS3_EEE8__appendEm
__ZNSt3__16vectorIN7gmscore6vector4text13GlyphPositionENS_9allocatorIS4_EEE6resizeEm
__ZNSt3__16vectorIN7gmscore6vector4text13GlyphPositionENS_9allocatorIS4_EEE8__appendEm
__ZNSt3__16vectorIN7gmscore6vector4text9GlyphQuadENS_9allocatorIS4_EEE11__vallocateB8ue170006Em
__ZNSt3__16vectorIN7gmscore6vector4text9GlyphQuadENS_9allocatorIS4_EEE7reserveEm
__ZNSt3__16vectorIN7gmscore6vector6VertexENS_9allocatorIS3_EEE7reserveEm
__ZNSt3__16vectorIN7gmscore6vector9AreaGroup10AreaSubsetENS_9allocatorIS4_EEE16__destroy_vectorclB8ue170006Ev
__ZNSt3__16vectorIN7gmscore6vector9AreaGroup10AreaSubsetENS_9allocatorIS4_EEE22__base_destruct_at_endB8ue170006EPS4_
__ZNSt3__16vectorIN7gmscore6vector9AreaGroup10AreaSubsetENS_9allocatorIS4_EEE26__swap_out_circular_bufferERNS_14__split_bufferIS4_RS6_EE
__ZNSt3__16vectorIN7gmscore6vector9AreaGroup10AreaSubsetENS_9allocatorIS4_EEE9push_backB8ue170006ERKS4_
__ZNSt3__16vectorIN7gmscore6vector9ColorSpanENS_9allocatorIS3_EEE11__vallocateB8ue170006Em
__ZNSt3__16vectorIN7gmscore6vector9ColorSpanENS_9allocatorIS3_EEE13__move_assignERS6_NS_17integral_constantIbLb1EEE
__ZNSt3__16vectorIN7gmscore6vector9ColorSpanENS_9allocatorIS3_EEE7reserveEm
__ZNSt3__16vectorIN7gmscore8renderer14EntityRenderer9PendingOpENS_9allocatorIS4_EEE16__destroy_vectorclB8ue170006Ev
__ZNSt3__16vectorIN7gmscore8renderer14EntityRenderer9PendingOpENS_9allocatorIS4_EEE26__swap_out_circular_bufferERNS_14__split_bufferIS4_RS6_EE
__ZNSt3__16vectorIN7gmscore8renderer15VertexAttributeENS_9allocatorIS3_EEE11__vallocateB8ue170006Em
__ZNSt3__16vectorIN7gmscore8renderer21ColoredTexturedVertexENS_9allocatorIS3_EEE7reserveEm
__ZNSt3__16vectorIN7gmscore8renderer22MetalBufferRenderState19BufferObjectBindingENS_9allocatorIS4_EEE11__vallocateB8ue170006Em
__ZNSt3__16vectorIN7gmscore8renderer22MetalBufferRenderState19BufferObjectBindingENS_9allocatorIS4_EEE13__vdeallocateEv
__ZNSt3__16vectorIN7gmscore8renderer22MetalBufferRenderState19BufferObjectBindingENS_9allocatorIS4_EEE16__destroy_vectorclB8ue170006Ev
__ZNSt3__16vectorIN7gmscore8renderer22MetalBufferRenderState19BufferObjectBindingENS_9allocatorIS4_EEE26__swap_out_circular_bufferERNS_14__split_bufferIS4_RS6_EE
__ZNSt3__16vectorIN7gmscore8renderer22MetalBufferRenderState19BufferObjectBindingENS_9allocatorIS4_EEE9push_backB8ue170006EOS4_
__ZNSt3__16vectorIN7gmscore8renderer23MetalTextureRenderState14TextureBindingENS_9allocatorIS4_EEE11__vallocateB8ue170006Em
__ZNSt3__16vectorIN7gmscore8renderer23MetalTextureRenderState14TextureBindingENS_9allocatorIS4_EEE16__destroy_vectorclB8ue170006Ev
__ZNSt3__16vectorIN7gmscore8renderer23MetalTextureRenderState14TextureBindingENS_9allocatorIS4_EEE26__swap_out_circular_bufferERNS_14__split_bufferIS4_RS6_EE
__ZNSt3__16vectorIN7gmscore8renderer23MetalTextureRenderState14TextureBindingENS_9allocatorIS4_EEE9push_backB8ue170006EOS4_
__ZNSt3__16vectorIN8GMSx_tsl17detail_robin_hash12bucket_entryINS_4pairIN9GMSx_absl11string_viewEPK7FileTocEELb1EEENS_9allocatorISB_EEE11__vallocateB8un170006Em
__ZNSt3__16vectorIN8GMSx_tsl17detail_robin_hash12bucket_entryINS_4pairIN9GMSx_absl11string_viewEPK7FileTocEELb1EEENS_9allocatorISB_EEE16__destroy_vectorclB8un170006Ev
__ZNSt3__16vectorIN8GMSx_tsl17detail_robin_hash12bucket_entryINS_4pairIN9GMSx_absl11string_viewEPK7FileTocEELb1EEENS_9allocatorISB_EEEC2EmRKSD_
__ZNSt3__16vectorIN8GMSx_tsl17detail_robin_hash12bucket_entryINS_4pairINS_12basic_stringIcNS_11char_traitsIcEENS_9allocatorIcEEEEN8GMSx_imp7TypedIdINS_10unique_ptrINSB_15MeasurementDataENS_14default_deleteISE_EEEEiEEEELb1EEENS8_ISK_EEE11__vallocateB8un170006Em
__ZNSt3__16vectorIN8GMSx_tsl17detail_robin_hash12bucket_entryINS_4pairINS_12basic_stringIcNS_11char_traitsIcEENS_9allocatorIcEEEEN8GMSx_imp7TypedIdINS_10unique_ptrINSB_15MeasurementDataENS_14default_deleteISE_EEEEiEEEELb1EEENS8_ISK_EEE16__destroy_vectorclB8ue170006Ev
__ZNSt3__16vectorIN8GMSx_tsl17detail_robin_hash12bucket_entryINS_4pairINS_12basic_stringIcNS_11char_traitsIcEENS_9allocatorIcEEEEN8GMSx_imp7TypedIdINS_10unique_ptrINSB_15MeasurementDataENS_14default_deleteISE_EEEEiEEEELb1EEENS8_ISK_EEE16__destroy_vectorclB8un170006Ev
__ZNSt3__16vectorIN8GMSx_tsl17detail_robin_hash12bucket_entryINS_4pairINS_12basic_stringIcNS_11char_traitsIcEENS_9allocatorIcEEEEN8GMSx_imp7TypedIdINS_10unique_ptrINSB_15MeasurementDataENS_14default_deleteISE_EEEEiEEEELb1EEENS8_ISK_EEE7__clearB8ue170006Ev
__ZNSt3__16vectorIN8GMSx_tsl17detail_robin_hash12bucket_entryINS_4pairINS_12basic_stringIcNS_11char_traitsIcEENS_9allocatorIcEEEEN8GMSx_imp7TypedIdINS_10unique_ptrINSB_15MeasurementDataENS_14default_deleteISE_EEEEiEEEELb1EEENS8_ISK_EEE7__clearB8un170006Ev
__ZNSt3__16vectorIN8GMSx_tsl17detail_robin_hash12bucket_entryINS_4pairINS_12basic_stringIcNS_11char_traitsIcEENS_9allocatorIcEEEEN8GMSx_imp7TypedIdINS_10unique_ptrINSB_15MeasurementDataENS_14default_deleteISE_EEEEiEEEELb1EEENS8_ISK_EEEC2EmRKSL_
__ZNSt3__16vectorIN8GMSx_tsl17detail_robin_hash12bucket_entryINS_4pairIiNS_8weak_ptrIN8GMSx_imp13GMSx_internal10FutureImplEEEEELb1EEENS_9allocatorISB_EEE11__vallocateB8un170006Em
__ZNSt3__16vectorIN8GMSx_tsl17detail_robin_hash12bucket_entryINS_4pairIiNS_8weak_ptrIN8GMSx_imp13GMSx_internal10FutureImplEEEEELb1EEENS_9allocatorISB_EEE16__destroy_vectorclB8un170006Ev
__ZNSt3__16vectorIN8GMSx_tsl17detail_robin_hash12bucket_entryINS_4pairIiNS_8weak_ptrIN8GMSx_imp13GMSx_internal10FutureImplEEEEELb1EEENS_9allocatorISB_EEE22__base_destruct_at_endB8un170006EPSB_
__ZNSt3__16vectorIN8GMSx_tsl17detail_robin_hash12bucket_entryINS_4pairIiNS_8weak_ptrIN8GMSx_imp13GMSx_internal10FutureImplEEEEELb1EEENS_9allocatorISB_EEEC2EmRKSD_
__ZNSt3__16vectorIN8GMSx_tsl17detail_robin_hash12bucket_entryIPK7FileTocLb1EEENS_9allocatorIS7_EEE11__vallocateB8un170006Em
__ZNSt3__16vectorIN8GMSx_tsl17detail_robin_hash12bucket_entryIPK7FileTocLb1EEENS_9allocatorIS7_EEE16__destroy_vectorclB8un170006Ev
__ZNSt3__16vectorIN8GMSx_tsl17detail_robin_hash12bucket_entryIPK7FileTocLb1EEENS_9allocatorIS7_EEEC2EmRKS9_
__ZNSt3__16vectorIN9GMSx_absl12AnyInvocableIKFbRKN12GMSx_mapcore7labeler14LabelCandidateEEEENS_9allocatorIS9_EEE11__vallocateB8un170006Em
__ZNSt3__16vectorIN9GMSx_absl12AnyInvocableIKFbRKN12GMSx_mapcore7labeler14LabelCandidateEEEENS_9allocatorIS9_EEE16__destroy_vectorclB8un170006Ev
__ZNSt3__16vectorIN9GMSx_absl13flat_hash_mapIjN12GMSx_mapcore5style7StyleIdENS1_13hash_internal4HashIjEENS_8equal_toIjEENS_9allocatorINS_4pairIKjS5_EEEEEENSB_ISG_EEE16__destroy_vectorclB8un170006Ev
__ZNSt3__16vectorIN9GMSx_absl13flat_hash_mapIjN12GMSx_mapcore5style7StyleIdENS1_13hash_internal4HashIjEENS_8equal_toIjEENS_9allocatorINS_4pairIKjS5_EEEEEENSB_ISG_EEE26__swap_out_circular_bufferERNS_14__split_bufferISG_RSH_EE
__ZNSt3__16vectorIN9GMSx_absl13time_internal4cctz10TransitionENS_9allocatorIS4_EEE13shrink_to_fitEv
__ZNSt3__16vectorIN9GMSx_absl13time_internal4cctz10TransitionENS_9allocatorIS4_EEE6resizeEm
__ZNSt3__16vectorIN9GMSx_absl13time_internal4cctz10TransitionENS_9allocatorIS4_EEE7reserveEm
__ZNSt3__16vectorIN9GMSx_absl13time_internal4cctz10TransitionENS_9allocatorIS4_EEE8__appendEm
__ZNSt3__16vectorIN9GMSx_absl13time_internal4cctz14TransitionTypeENS_9allocatorIS4_EEE6resizeEm
__ZNSt3__16vectorIN9GMSx_absl13time_internal4cctz14TransitionTypeENS_9allocatorIS4_EEE7reserveEm
__ZNSt3__16vectorIN9GMSx_absl13time_internal4cctz14TransitionTypeENS_9allocatorIS4_EEE8__appendEm
__ZNSt3__16vectorIN9GMSx_absl16UnrecognizedFlagENS_9allocatorIS2_EEE16__destroy_vectorclB8ue170006Ev
__ZNSt3__16vectorIN9GMSx_absl16UnrecognizedFlagENS_9allocatorIS2_EEE22__base_destruct_at_endB8ue170006EPS2_
__ZNSt3__16vectorIN9GMSx_absl16UnrecognizedFlagENS_9allocatorIS2_EEE26__swap_out_circular_bufferERNS_14__split_bufferIS2_RS4_EE
__ZNSt3__16vectorIN9GMSx_absl16UnrecognizedFlagENS_9allocatorIS2_EEE7reserveEm
__ZNSt3__16vectorIN9GMSx_absl21GMSx_strings_internal18ViableSubstitutionENS_9allocatorIS3_EEE7reserveEm
__ZNSt3__16vectorINS0_I10GMSPoint2DNS_9allocatorIS1_EEEENS2_IS4_EEE16__destroy_vectorclB8ue170006Ev
__ZNSt3__16vectorINS0_I10GMSPoint2DNS_9allocatorIS1_EEEENS2_IS4_EEE22__base_destruct_at_endB8ue170006EPS4_
__ZNSt3__16vectorINS0_I10GMSPoint2DNS_9allocatorIS1_EEEENS2_IS4_EEE26__swap_out_circular_bufferERNS_14__split_bufferIS4_RS5_EE
__ZNSt3__16vectorINS0_IN7gmscore4base10reffed_ptrINS1_6vector6SpriteEEENS_9allocatorIS6_EEEENS7_IS9_EEE16__destroy_vectorclB8ue170006Ev
__ZNSt3__16vectorINS0_IN7gmscore4base10reffed_ptrINS1_6vector6SpriteEEENS_9allocatorIS6_EEEENS7_IS9_EEE26__swap_out_circular_bufferERNS_14__split_bufferIS9_RSA_EE
__ZNSt3__16vectorINS0_IN7gmscore4base10reffed_ptrINS1_6vector6SpriteEEENS_9allocatorIS6_EEEENS7_IS9_EEE6resizeEm
__ZNSt3__16vectorINS0_IN7gmscore4base10reffed_ptrINS1_6vector6SpriteEEENS_9allocatorIS6_EEEENS7_IS9_EEE8__appendEm
__ZNSt3__16vectorINS0_IN7gmscore4base10reffed_ptrINS1_8renderer21SafeVBOWithAttributesINS1_6vector22GMSLineStampAttributesEEEEENS_9allocatorIS9_EEEENSA_ISC_EEE16__destroy_vectorclB8ue170006Ev
__ZNSt3__16vectorINS0_IN7gmscore4base10reffed_ptrINS1_8renderer21SafeVBOWithAttributesINS1_6vector22GMSLineStampAttributesEEEEENS_9allocatorIS9_EEEENSA_ISC_EEE26__swap_out_circular_bufferERNS_14__split_bufferISC_RSD_EE
